                            ;************************************************************************************************
                            ;*                                           FUNCTION                                           *
                            ;************************************************************************************************
                            ;undefined Reset()
                                                          ;XREF[1,0]:   Entry Point
ram:00000000    dbf021e3        msr         cpsr_c,#0xdb                            
                            ;************************************************************************************************
                            ;*                                           FUNCTION                                           *
                            ;************************************************************************************************
                            ;undefined UndefinedInstruction()
                                                          ;XREF[1,0]:   Entry Point
ram:00000004    68d09fe5        ldr         sp,[DAT_00000074]                       ;= 00006C00h
                            ;************************************************************************************************
                            ;*                                           FUNCTION                                           *
                            ;************************************************************************************************
                            ;undefined SupervisorCall()
                                                          ;XREF[1,1]:   Entry Point,000032ce
ram:00000008    d7f021e3        msr         cpsr_c,#0xd7                            
                            ;************************************************************************************************
                            ;*                                           FUNCTION                                           *
                            ;************************************************************************************************
                            ;undefined PrefetchAbort()
                                                          ;XREF[1,0]:   Entry Point
ram:0000000c    64d09fe5        ldr         sp,[DAT_00000078]                       ;= 00007000h
                            ;************************************************************************************************
                            ;*                                           FUNCTION                                           *
                            ;************************************************************************************************
                            ;undefined DataAbort()
                                                          ;XREF[1,0]:   Entry Point
ram:00000010    d2f021e3        msr         cpsr_c,#0xd2                            
                            ;************************************************************************************************
                            ;*                                           FUNCTION                                           *
                            ;************************************************************************************************
                            ;undefined NotUsed()
                                                          ;XREF[1,0]:   Entry Point
ram:00000014    60d09fe5        ldr         sp,[DAT_0000007c]                       ;= 00007400h
                            ;************************************************************************************************
                            ;*                                           FUNCTION                                           *
                            ;************************************************************************************************
                            ;undefined IRQ()
                                                          ;XREF[1,0]:   Entry Point
ram:00000018    d1f021e3        msr         cpsr_c,#0xd1                            
                            ;************************************************************************************************
                            ;*                                           FUNCTION                                           *
                            ;************************************************************************************************
                            ;undefined FIQ()
                                                          ;XREF[1,0]:   Entry Point
ram:0000001c    5cd09fe5        ldr         sp,[DAT_00000080]                       ;= 00007800h
ram:00000020    dff021e3        msr         cpsr_c,#0xdf                            
ram:00000024    58d09fe5        ldr         sp,[DAT_00000084]                       ;= 00008000h
ram:00000028    d3f021e3        msr         cpsr_c,#0xd3                            
ram:0000002c    54d09fe5        ldr         sp,[DAT_00000088]                       ;= 00007C00h
ram:00000030    00000fe1        mrs         r0,cpsr                                 
ram:00000034    1f00c0e3        bic         r0,r0,#0x1f                             
ram:00000038    d30080e3        orr         r0,r0,#0xd3                             
ram:0000003c    00f02fe1        msr         cpsr_cxsf,r0                            
ram:00000040    100f11ee        mrc         p15,0x0,r0,cr1,cr0,0x0                  
ram:00000044    020ac0e3        bic         r0,r0,#0x2000                           
ram:00000048    100f01ee        mcr         p15,0x0,r0,cr1,cr0,0x0                  
ram:0000004c    38009fe5        ldr         r0,[PTR_DAT_0000008c]                   ;= 00002f68
ram:00000050    102f11ee        mrc         p15,0x0,r2,cr1,cr0,0x0                  
ram:00000054    022a12e2        ands        r2,r2,#0x2000                           
ram:00000058    0010a003        moveq       r1,#0x0                                 
ram:0000005c    2c109f15        ldrne       r1,[->H_Reset]                          ;= ffff0000
                                                          ; FWD[8,0]:   00002f68,00002f6c,00002f70,00002f74
                                                          ;             00002f78,00002f7c,00002f80,00002f84
ram:00000060    fc05b0e8        ldmia       r0!,{r2 r3 r4 r5 r6 r7 r8 r10}=>DAT_0...;= E59FF018h
                                                                                    ;= E1A00000h
                                                                                    ;= EAFFF424h
ram:00000064    fc05a1e8        stmia       r1!,{ r2 r3 r4 r5 r6 r7 r8 r10 }        
                                                          ; FWD[9,0]:   00002f88,00002f8c,00002f90,00002f94
                                                          ;             00002f98,00002f9c,00002fa0,00002fa4
                                                          ;             00002fa8
ram:00000068    fc05b0e8        ldmia       r0!,{r2 r3 r4 r5 r6 r7 r8 r10}=>DAT_0...;= 00002fc0
                                                                                    ;= 00002fb0
                                                                                    ;= 00002fa8
                                                                                    ;= 00002fbc
                                                                                    ;= 00002fac
                                                                                    ;= 00002fb4
                                                          ; FWD[6,0]:   00002fa8,00002fac,00002fb0,00002fb4
                                                          ;             00002fbc,00002fc0
ram:0000006c    fc05a1e8        stmia       r1!,{ r2 r3 r4 r5 r6 r7 r8 r10 }=>DAT...;= FEh
ram:00000070    070000ea        b           LAB_00000094                            
                            DAT_00000074:                 ;XREF[1,0]:   00000004
ram:00000074    006c0000        undefined4  00006C00h                               
                            DAT_00000078:                 ;XREF[1,0]:   0000000c
ram:00000078    00700000        undefined4  00007000h                               
                            DAT_0000007c:                 ;XREF[1,0]:   00000014
ram:0000007c    00740000        undefined4  00007400h                               
                            DAT_00000080:                 ;XREF[1,0]:   0000001c
ram:00000080    00780000        undefined4  00007800h                               
                            DAT_00000084:                 ;XREF[1,0]:   00000024
ram:00000084    00800000        undefined4  00008000h                               
                            DAT_00000088:                 ;XREF[1,0]:   0000002c
ram:00000088    007c0000        undefined4  00007C00h                               
                            PTR_DAT_0000008c:             ;XREF[1,0]:   0000004c
ram:0000008c    682f0000        addr        DAT_00002f68                            ;= EAFFF424h
                            PTR_H_Reset_00000090:         ;XREF[1,0]:   0000005c
ram:00000090    0000ffff        addr        H_Reset                                 
                            LAB_00000094:                 ;XREF[1,0]:   00000070
ram:00000094    000000eb        bl          FUN_0000009c                            ;undefined FUN_0000009c()
ram:00000098    1b0000eb        bl          FUN_0000010c                            ;undefined FUN_0000010c()
                            ;************************************************************************************************
                            ;*                                           FUNCTION                                           *
                            ;************************************************************************************************
                            ;undefined FUN_0000009c()
                                                          ;XREF[1,0]:   00000094
ram:0000009c    2c008fe2        adr         r0,0xd0                                 
                                                          ; FWD[2,0]:   000000d0,000000d4
ram:000000a0    000c90e8        ldmia       r0,{r10 r11}=>->FUN_000032d8            ;= 000032d8
                                                                                    ;= 000032E8h
ram:000000a4    00a08ae0        add         r10,r10,r0                              
ram:000000a8    00b08be0        add         r11,r11,r0                              
ram:000000ac    01704ae2        sub         r7,r10,#0x1                             
ram:000000b0    0b005ae1        cmp         r10,r11                                 
ram:000000b4    0000001a        bne         LAB_000000bc                            
ram:000000b8    130000eb        bl          FUN_0000010c                            ;undefined FUN_0000010c()
                            LAB_000000bc:                 ;XREF[1,0]:   000000b4
                                                          ; FWD[5,0]:   000033a8,000033ac,000033b0,000033b4
                                                          ;             000033c0
ram:000000bc    0f00bae8        ldmia       r10!,{r0 r1 r2 r3}=>PTR_DAT_000033a8    ;= 00000070h
                                                                                    ;= 000033c0
                                                                                    ;= 000000D8h
ram:000000c0    18e04fe2        adr         lr,0xb0                                 
ram:000000c4    010013e3        tst         r3,#0x1                                 
ram:000000c8    03f04710        subne       pc=>LAB_000032ce,r7,r3                  
ram:000000cc    13ff2fe1        bx          r3=>LAB_000000d8                        
                            PTR_FUN_000000d0:             ;XREF[1,0]:   000000a0
ram:000000d0    d8320000        addr        FUN_000032d8                            
                            DAT_000000d4:                 ;XREF[1,0]:   000000a0
ram:000000d4    e8320000        undefined4  000032E8h                               ;?  ->  000032e8
                            LAB_000000d8:                 ;XREF[1,0]:   000000cc
ram:000000d8    0030b0e3        movs        r3,#0x0                                 
ram:000000dc    0040b0e3        movs        r4,#0x0                                 
ram:000000e0    0050b0e3        movs        r5,#0x0                                 
ram:000000e4    0060b0e3        movs        r6,#0x0                                 
                            LAB_000000e8:                 ;XREF[1,0]:   000000f0
ram:000000e8    102052e2        subs        r2,r2,#0x10                             
                                                          ; FWD[8,0]:   000033c0,000033c4,000033c8,000033cc
                                                          ;             000033d0,000033d4,000033d8,000033dc
ram:000000ec    7800a128        stmiacs     r1!,{ r3 r4 r5 r6 }=>DAT_000033c0       
ram:000000f0    fcffff8a        bhi         LAB_000000e8                            
ram:000000f4    822eb0e1        movs        r2,r2, lsl #0x1d                        
                                                          ; FWD[2,0]:   000033d0,000033d4
ram:000000f8    3000a128        stmiacs     r1!,{ r4 r5 }=>DAT_000033d0             
ram:000000fc    00308145        strmi       r3,[r1,#0x0]=>DAT_000033d8              
ram:00000100    1eff2fe1        bx          lr                                      
                            ;************************************************************************************************
                            ;*                                           FUNCTION                                           *
                            ;************************************************************************************************
                            ;undefined FUN_00000104()
                                                          ;XREF[1,0]:   00000114
ram:00000104    1fb5            push        { r0, r1, r2, r3, r4, lr }              
ram:00000106    1fbd            pop         { r0, r1, r2, r3, r4, pc }              
                            ;************************************************************************************************
                            ;*                                           FUNCTION                                           *
                            ;************************************************************************************************
                            ;undefined FUN_00000108()
                                                          ;XREF[1,0]:   00000144
ram:00000108    10b5            push        { r4, lr }                              
ram:0000010a    10bd            pop         { r4, pc }                              
                            ;************************************************************************************************
                            ;*                                           FUNCTION                                           *
                            ;************************************************************************************************
                            ;undefined FUN_0000010c()
                                                          ;XREF[2,0]:   00000098,000000b8
ram:0000010c    950100eb        bl          FUN_00000768                            ;undefined FUN_00000768()
ram:00000110    0210a0e1        mov         r1,r2                                   
ram:00000114    fafffffa        blx         FUN_00000104                            ;undefined FUN_00000104()
ram:00000118    1cc09fe5        ldr         r12,[DAT_0000013c]                      ;= 000003B4h
ram:0000011c    0fc08ce0        add         r12,r12,pc                              
ram:00000120    01001ce3        tst         r12,#0x1                                
ram:00000124    0de08f12        adrne       lr,0x139                                
ram:00000128    0fe0a001        moveq       lr,pc                                   
ram:0000012c    1cff2fe1        bx          r12=>FUN_000004d8                       ;undefined FUN_000004d8()
ram:00000130    01c08fe2        adr         r12,0x139                               
ram:00000134    1cff2fe1        bx          r12=>LAB_00000138                       
                            LAB_00000138:                 ;XREF[1,0]:   00000134
ram:00000138    02f0fefe        bl          FUN_00002f38                            ;undefined FUN_00002f38()
                            DAT_0000013c:                 ;XREF[1,0]:   00000118
ram:0000013c    b4030000        undefined4  000003B4h                               ;?  ->  000003b4
                            ;************************************************************************************************
                            ;*                                           FUNCTION                                           *
                            ;************************************************************************************************
                            ;undefined FUN_00000140()
          ;local_8       undefined4          -8                      ;XREF[1,0]:   00000148
                                                          ;XREF[1,0]:   00002f40
ram:00000140    03002de9        stmdb       sp!,{r0 r1}                             
ram:00000144    effffffa        blx         FUN_00000108                            ;undefined FUN_00000108()
ram:00000148    0300bde8        ldmia       sp!,{r0 r1}=>local_8                    
ram:0000014c    810100eb        bl          FUN_00000758                            ;undefined FUN_00000758()
                            ;************************************************************************************************
                            ;*                                           FUNCTION                                           *
                            ;************************************************************************************************
                            ;undefined FUN_00000150()
                                                          ;XREF[3,0]:   000002ec,000002f8,00000340
ram:00000150    10402de9        stmdb       sp!,{r4 lr}                             
ram:00000154    0030a0e3        mov         r3,#0x0                                 
ram:00000158    0320a0e1        mov         r2,r3                                   
ram:0000015c    0310a0e1        mov         r1,r3                                   
ram:00000160    bc059fe5        ldr         r0,[DAT_00000724]                       ;= 01C20890h
ram:00000164    9b0500eb        bl          FUN_000017d8                            ;undefined FUN_000017d8()
ram:00000168    0030a0e3        mov         r3,#0x0                                 
ram:0000016c    0320a0e1        mov         r2,r3                                   
ram:00000170    0110a0e3        mov         r1,#0x1                                 
ram:00000174    a8059fe5        ldr         r0,[DAT_00000724]                       ;= 01C20890h
ram:00000178    960500eb        bl          FUN_000017d8                            ;undefined FUN_000017d8()
ram:0000017c    0030a0e3        mov         r3,#0x0                                 
ram:00000180    0320a0e1        mov         r2,r3                                   
ram:00000184    0210a0e3        mov         r1,#0x2                                 
ram:00000188    94059fe5        ldr         r0,[DAT_00000724]                       ;= 01C20890h
ram:0000018c    910500eb        bl          FUN_000017d8                            ;undefined FUN_000017d8()
ram:00000190    0030a0e3        mov         r3,#0x0                                 
ram:00000194    0320a0e1        mov         r2,r3                                   
ram:00000198    0310a0e3        mov         r1,#0x3                                 
ram:0000019c    80059fe5        ldr         r0,[DAT_00000724]                       ;= 01C20890h
ram:000001a0    8c0500eb        bl          FUN_000017d8                            ;undefined FUN_000017d8()
ram:000001a4    0030a0e3        mov         r3,#0x0                                 
ram:000001a8    0320a0e1        mov         r2,r3                                   
ram:000001ac    0410a0e3        mov         r1,#0x4                                 
ram:000001b0    6c059fe5        ldr         r0,[DAT_00000724]                       ;= 01C20890h
ram:000001b4    870500eb        bl          FUN_000017d8                            ;undefined FUN_000017d8()
ram:000001b8    0030a0e3        mov         r3,#0x0                                 
ram:000001bc    0320a0e1        mov         r2,r3                                   
ram:000001c0    0510a0e3        mov         r1,#0x5                                 
ram:000001c4    58059fe5        ldr         r0,[DAT_00000724]                       ;= 01C20890h
ram:000001c8    820500eb        bl          FUN_000017d8                            ;undefined FUN_000017d8()
ram:000001cc    0030a0e3        mov         r3,#0x0                                 
ram:000001d0    0320a0e1        mov         r2,r3                                   
ram:000001d4    0610a0e3        mov         r1,#0x6                                 
ram:000001d8    44059fe5        ldr         r0,[DAT_00000724]                       ;= 01C20890h
ram:000001dc    7d0500eb        bl          FUN_000017d8                            ;undefined FUN_000017d8()
ram:000001e0    0030a0e3        mov         r3,#0x0                                 
ram:000001e4    0320a0e1        mov         r2,r3                                   
ram:000001e8    0710a0e3        mov         r1,#0x7                                 
ram:000001ec    30059fe5        ldr         r0,[DAT_00000724]                       ;= 01C20890h
ram:000001f0    780500eb        bl          FUN_000017d8                            ;undefined FUN_000017d8()
ram:000001f4    1080bde8        ldmia       sp!,{r4 pc}                             
                            ;************************************************************************************************
                            ;*                                           FUNCTION                                           *
                            ;************************************************************************************************
                            ;undefined FUN_000001f8()
                                                          ;XREF[2,0]:   00000388,000003e4
ram:000001f8    10402de9        stmdb       sp!,{r4 lr}                             
ram:000001fc    0030a0e3        mov         r3,#0x0                                 
ram:00000200    0120a0e3        mov         r2,#0x1                                 
ram:00000204    0310a0e1        mov         r1,r3                                   
ram:00000208    14059fe5        ldr         r0,[DAT_00000724]                       ;= 01C20890h
ram:0000020c    710500eb        bl          FUN_000017d8                            ;undefined FUN_000017d8()
ram:00000210    0030a0e3        mov         r3,#0x0                                 
ram:00000214    0120a0e3        mov         r2,#0x1                                 
ram:00000218    0210a0e1        mov         r1,r2                                   
ram:0000021c    00059fe5        ldr         r0,[DAT_00000724]                       ;= 01C20890h
ram:00000220    6c0500eb        bl          FUN_000017d8                            ;undefined FUN_000017d8()
ram:00000224    0030a0e3        mov         r3,#0x0                                 
ram:00000228    0120a0e3        mov         r2,#0x1                                 
ram:0000022c    0210a0e3        mov         r1,#0x2                                 
ram:00000230    ec049fe5        ldr         r0,[DAT_00000724]                       ;= 01C20890h
ram:00000234    670500eb        bl          FUN_000017d8                            ;undefined FUN_000017d8()
ram:00000238    0030a0e3        mov         r3,#0x0                                 
ram:0000023c    0120a0e3        mov         r2,#0x1                                 
ram:00000240    0310a0e3        mov         r1,#0x3                                 
ram:00000244    d8049fe5        ldr         r0,[DAT_00000724]                       ;= 01C20890h
ram:00000248    620500eb        bl          FUN_000017d8                            ;undefined FUN_000017d8()
ram:0000024c    0030a0e3        mov         r3,#0x0                                 
ram:00000250    0120a0e3        mov         r2,#0x1                                 
ram:00000254    0410a0e3        mov         r1,#0x4                                 
ram:00000258    c4049fe5        ldr         r0,[DAT_00000724]                       ;= 01C20890h
ram:0000025c    5d0500eb        bl          FUN_000017d8                            ;undefined FUN_000017d8()
ram:00000260    0030a0e3        mov         r3,#0x0                                 
ram:00000264    0120a0e3        mov         r2,#0x1                                 
ram:00000268    0510a0e3        mov         r1,#0x5                                 
ram:0000026c    b0049fe5        ldr         r0,[DAT_00000724]                       ;= 01C20890h
ram:00000270    580500eb        bl          FUN_000017d8                            ;undefined FUN_000017d8()
ram:00000274    0030a0e3        mov         r3,#0x0                                 
ram:00000278    0120a0e3        mov         r2,#0x1                                 
ram:0000027c    0610a0e3        mov         r1,#0x6                                 
ram:00000280    9c049fe5        ldr         r0,[DAT_00000724]                       ;= 01C20890h
ram:00000284    530500eb        bl          FUN_000017d8                            ;undefined FUN_000017d8()
ram:00000288    0030a0e3        mov         r3,#0x0                                 
ram:0000028c    0120a0e3        mov         r2,#0x1                                 
ram:00000290    0710a0e3        mov         r1,#0x7                                 
ram:00000294    88049fe5        ldr         r0,[DAT_00000724]                       ;= 01C20890h
ram:00000298    4e0500eb        bl          FUN_000017d8                            ;undefined FUN_000017d8()
ram:0000029c    1080bde8        ldmia       sp!,{r4 pc}                             
                            ;************************************************************************************************
                            ;*                                           FUNCTION                                           *
                            ;************************************************************************************************
                            ;undefined FUN_000002a0()
                                                          ;XREF[1,0]:   00000464
ram:000002a0    10402de9        stmdb       sp!,{r4 lr}                             
ram:000002a4    0030a0e3        mov         r3,#0x0                                 
ram:000002a8    0120a0e3        mov         r2,#0x1                                 
ram:000002ac    0910a0e3        mov         r1,#0x9                                 
ram:000002b0    6c049fe5        ldr         r0,[DAT_00000724]                       ;= 01C20890h
ram:000002b4    470500eb        bl          FUN_000017d8                            ;undefined FUN_000017d8()
ram:000002b8    0030a0e3        mov         r3,#0x0                                 
ram:000002bc    0120a0e3        mov         r2,#0x1                                 
ram:000002c0    0a10a0e3        mov         r1,#0xa                                 
ram:000002c4    58049fe5        ldr         r0,[DAT_00000724]                       ;= 01C20890h
ram:000002c8    420500eb        bl          FUN_000017d8                            ;undefined FUN_000017d8()
ram:000002cc    0030a0e3        mov         r3,#0x0                                 
ram:000002d0    0120a0e3        mov         r2,#0x1                                 
ram:000002d4    0810a0e3        mov         r1,#0x8                                 
ram:000002d8    44049fe5        ldr         r0,[DAT_00000724]                       ;= 01C20890h
ram:000002dc    3d0500eb        bl          FUN_000017d8                            ;undefined FUN_000017d8()
ram:000002e0    0810a0e3        mov         r1,#0x8                                 
ram:000002e4    38049fe5        ldr         r0,[DAT_00000724]                       ;= 01C20890h
ram:000002e8    740500eb        bl          FUN_000018c0                            ;undefined FUN_000018c0()
ram:000002ec    97ffffeb        bl          FUN_00000150                            ;undefined FUN_00000150()
ram:000002f0    1080bde8        ldmia       sp!,{r4 pc}                             
                            ;************************************************************************************************
                            ;*                                           FUNCTION                                           *
                            ;************************************************************************************************
                            ;undefined FUN_000002f4()
ram:000002f4    10402de9        stmdb       sp!,{r4 lr}                             
ram:000002f8    94ffffeb        bl          FUN_00000150                            ;undefined FUN_00000150()
ram:000002fc    0910a0e3        mov         r1,#0x9                                 
ram:00000300    1c049fe5        ldr         r0,[DAT_00000724]                       ;= 01C20890h
ram:00000304    720500eb        bl          FUN_000018d4                            ;undefined FUN_000018d4()
ram:00000308    0a10a0e3        mov         r1,#0xa                                 
ram:0000030c    10049fe5        ldr         r0,[DAT_00000724]                       ;= 01C20890h
ram:00000310    6f0500eb        bl          FUN_000018d4                            ;undefined FUN_000018d4()
ram:00000314    0810a0e3        mov         r1,#0x8                                 
ram:00000318    04049fe5        ldr         r0,[DAT_00000724]                       ;= 01C20890h
ram:0000031c    6c0500eb        bl          FUN_000018d4                            ;undefined FUN_000018d4()
ram:00000320    0810a0e3        mov         r1,#0x8                                 
ram:00000324    f8039fe5        ldr         r0,[DAT_00000724]                       ;= 01C20890h
ram:00000328    640500eb        bl          FUN_000018c0                            ;undefined FUN_000018c0()
ram:0000032c    f4039fe5        ldr         r0,[DAT_00000728]                       ;= 01C208A0h
ram:00000330    000090e5        ldr         r0,[r0,#0x0]=>DAT_01c208a0              
ram:00000334    ff0000e2        and         r0,r0,#0xff                             
ram:00000338    1080bde8        ldmia       sp!,{r4 pc}                             
                            ;************************************************************************************************
                            ;*                                           FUNCTION                                           *
                            ;************************************************************************************************
                            ;undefined FUN_0000033c()
ram:0000033c    10402de9        stmdb       sp!,{r4 lr}                             
ram:00000340    82ffffeb        bl          FUN_00000150                            ;undefined FUN_00000150()
ram:00000344    0910a0e3        mov         r1,#0x9                                 
ram:00000348    d4039fe5        ldr         r0,[DAT_00000724]                       ;= 01C20890h
ram:0000034c    600500eb        bl          FUN_000018d4                            ;undefined FUN_000018d4()
ram:00000350    0a10a0e3        mov         r1,#0xa                                 
ram:00000354    c8039fe5        ldr         r0,[DAT_00000724]                       ;= 01C20890h
ram:00000358    580500eb        bl          FUN_000018c0                            ;undefined FUN_000018c0()
ram:0000035c    0810a0e3        mov         r1,#0x8                                 
ram:00000360    bc039fe5        ldr         r0,[DAT_00000724]                       ;= 01C20890h
ram:00000364    5a0500eb        bl          FUN_000018d4                            ;undefined FUN_000018d4()
ram:00000368    0810a0e3        mov         r1,#0x8                                 
ram:0000036c    b0039fe5        ldr         r0,[DAT_00000724]                       ;= 01C20890h
ram:00000370    520500eb        bl          FUN_000018c0                            ;undefined FUN_000018c0()
ram:00000374    ac039fe5        ldr         r0,[DAT_00000728]                       ;= 01C208A0h
ram:00000378    000090e5        ldr         r0,[r0,#0x0]=>DAT_01c208a0              
ram:0000037c    ff0000e2        and         r0,r0,#0xff                             
ram:00000380    1080bde8        ldmia       sp!,{r4 pc}                             
                            ;************************************************************************************************
                            ;*                                           FUNCTION                                           *
                            ;************************************************************************************************
                            ;undefined FUN_00000384()
          ;local_8       undefined4          -8                      ;XREF[1,0]:   000003b0
                                                          ;XREF[2,0]:   0000044c,00000454
ram:00000384    01402de9        stmdb       sp!,{r0 lr}                             
ram:00000388    9affffeb        bl          FUN_000001f8                            ;undefined FUN_000001f8()
ram:0000038c    0910a0e3        mov         r1,#0x9                                 
ram:00000390    8c039fe5        ldr         r0,[DAT_00000724]                       ;= 01C20890h
ram:00000394    490500eb        bl          FUN_000018c0                            ;undefined FUN_000018c0()
ram:00000398    0a10a0e3        mov         r1,#0xa                                 
ram:0000039c    80039fe5        ldr         r0,[DAT_00000724]                       ;= 01C20890h
ram:000003a0    4b0500eb        bl          FUN_000018d4                            ;undefined FUN_000018d4()
ram:000003a4    7c039fe5        ldr         r0,[DAT_00000728]                       ;= 01C208A0h
ram:000003a8    000090e5        ldr         r0,[r0,#0x0]=>DAT_01c208a0              
ram:000003ac    ff00c0e3        bic         r0,r0,#0xff                             
ram:000003b0    00109de5        ldr         r1,[sp,#0x0]=>local_8                   
ram:000003b4    ff1001e2        and         r1,r1,#0xff                             
ram:000003b8    010080e1        orr         r0,r0,r1                                
ram:000003bc    64139fe5        ldr         r1,[DAT_00000728]                       ;= 01C208A0h
ram:000003c0    000081e5        str         r0,[r1,#0x0]=>DAT_01c208a0              
ram:000003c4    0810a0e3        mov         r1,#0x8                                 
ram:000003c8    54039fe5        ldr         r0,[DAT_00000724]                       ;= 01C20890h
ram:000003cc    400500eb        bl          FUN_000018d4                            ;undefined FUN_000018d4()
ram:000003d0    0810a0e3        mov         r1,#0x8                                 
ram:000003d4    48039fe5        ldr         r0,[DAT_00000724]                       ;= 01C20890h
ram:000003d8    380500eb        bl          FUN_000018c0                            ;undefined FUN_000018c0()
ram:000003dc    0880bde8        ldmia       sp!,{r3 pc}                             
                            ;************************************************************************************************
                            ;*                                           FUNCTION                                           *
                            ;************************************************************************************************
                            ;undefined FUN_000003e0()
          ;local_8       undefined4          -8                      ;XREF[1,0]:   0000040c
                                                          ;XREF[1,0]:   00000444
ram:000003e0    01402de9        stmdb       sp!,{r0 lr}                             
ram:000003e4    83ffffeb        bl          FUN_000001f8                            ;undefined FUN_000001f8()
ram:000003e8    0910a0e3        mov         r1,#0x9                                 
ram:000003ec    30039fe5        ldr         r0,[DAT_00000724]                       ;= 01C20890h
ram:000003f0    320500eb        bl          FUN_000018c0                            ;undefined FUN_000018c0()
ram:000003f4    0a10a0e3        mov         r1,#0xa                                 
ram:000003f8    24039fe5        ldr         r0,[DAT_00000724]                       ;= 01C20890h
ram:000003fc    2f0500eb        bl          FUN_000018c0                            ;undefined FUN_000018c0()
ram:00000400    20039fe5        ldr         r0,[DAT_00000728]                       ;= 01C208A0h
ram:00000404    000090e5        ldr         r0,[r0,#0x0]=>DAT_01c208a0              
ram:00000408    ff00c0e3        bic         r0,r0,#0xff                             
ram:0000040c    00109de5        ldr         r1,[sp,#0x0]=>local_8                   
ram:00000410    ff1001e2        and         r1,r1,#0xff                             
ram:00000414    010080e1        orr         r0,r0,r1                                
ram:00000418    08139fe5        ldr         r1,[DAT_00000728]                       ;= 01C208A0h
ram:0000041c    000081e5        str         r0,[r1,#0x0]=>DAT_01c208a0              
ram:00000420    0810a0e3        mov         r1,#0x8                                 
ram:00000424    f8029fe5        ldr         r0,[DAT_00000724]                       ;= 01C20890h
ram:00000428    290500eb        bl          FUN_000018d4                            ;undefined FUN_000018d4()
ram:0000042c    0810a0e3        mov         r1,#0x8                                 
ram:00000430    ec029fe5        ldr         r0,[DAT_00000724]                       ;= 01C20890h
ram:00000434    210500eb        bl          FUN_000018c0                            ;undefined FUN_000018c0()
ram:00000438    0880bde8        ldmia       sp!,{r3 pc}                             
                            ;************************************************************************************************
                            ;*                                           FUNCTION                                           *
                            ;************************************************************************************************
                            ;undefined FUN_0000043c()
                                                          ;XREF[1,0]:   000005ec
ram:0000043c    10402de9        stmdb       sp!,{r4 lr}                             
ram:00000440    3800a0e3        mov         r0,#0x38                                
ram:00000444    e5ffffeb        bl          FUN_000003e0                            ;undefined FUN_000003e0()
ram:00000448    ea00a0e3        mov         r0,#0xea                                
ram:0000044c    ccffffeb        bl          FUN_00000384                            ;undefined FUN_00000384()
ram:00000450    d4029fe5        ldr         r0,[DAT_0000072c]                       ;= 0000EA60h
ram:00000454    caffffeb        bl          FUN_00000384                            ;undefined FUN_00000384()
ram:00000458    1080bde8        ldmia       sp!,{r4 pc}                             
ram:0000045c    1e              ??          1Eh                                     
ram:0000045d    ff              ??          FFh                                     
ram:0000045e    2f              ??          2Fh    /                                
ram:0000045f    e1              ??          E1h                                     
                            ;************************************************************************************************
                            ;*                                           FUNCTION                                           *
                            ;************************************************************************************************
                            ;undefined FUN_00000460()
                                                          ;XREF[1,0]:   00000590
ram:00000460    10402de9        stmdb       sp!,{r4 lr}                             
ram:00000464    8dffffeb        bl          FUN_000002a0                            ;undefined FUN_000002a0()
ram:00000468    1080bde8        ldmia       sp!,{r4 pc}                             
                            ;************************************************************************************************
                            ;*                                           FUNCTION                                           *
                            ;************************************************************************************************
                            ;undefined FUN_0000046c(undefined param_1, undefined param_2, undefined param_3, undefined param_4, undefined4 param_5)
          ;param_1       undefined           r0                      
          ;param_2       undefined           r1                      
          ;param_3       undefined           r2                      
          ;param_4       undefined           r3                      
          ;param_5       undefined4           0                      ;XREF[1,0]:   00000478
                                                          ;XREF[1,0]:   000005e8
ram:0000046c    f0412de9        stmdb       sp!,{r4 r5 r6 r7 r8 lr}                 
ram:00000470    0040a0e1        mov         r4,param_1                              
ram:00000474    0150a0e1        mov         r5,param_2                              
ram:00000478    18c09de5        ldr         r12,[sp,#param_5+0x18]                  
ram:0000047c    ac729fe5        ldr         r7,[PTR_DAT_00000730]                   ;= 000033b8
ram:00000480    006097e5        ldr         r6,[r7,#0x0]=>DAT_000033b8              
ram:00000484    0010a0e3        mov         param_2,#0x0                            
ram:00000488    0f0000ea        b           LAB_000004cc                            
                            LAB_0000048c:                 ;XREF[1,0]:   000004d0
ram:0000048c    017085e0        add         r7,r5,param_2                           
ram:00000490    328ea0e3        mov         r8,#0x320                               
ram:00000494    980707e0        mul         r7,r8,r7                                
ram:00000498    90829fe5        ldr         r8,[PTR_DAT_00000730]                   ;= 000033b8
ram:0000049c    008098e5        ldr         r8,[r8,#0x0]=>DAT_000033b8              
ram:000004a0    877088e0        add         r7,r8,r7, lsl #0x1                      
ram:000004a4    846087e0        add         r6,r7,r4, lsl #0x1                      
ram:000004a8    0000a0e3        mov         param_1,#0x0                            
ram:000004ac    030000ea        b           LAB_000004c0                            
                            LAB_000004b0:                 ;XREF[1,0]:   000004c4
ram:000004b0    b270dce0        ldrh        r7,[r12],#0x2                           
ram:000004b4    808086e0        add         r8,r6,param_1, lsl #0x1                 
ram:000004b8    b070c8e1        strh        r7,[r8,#0x0]                            
ram:000004bc    010080e2        add         param_1,param_1,#0x1                    
                            LAB_000004c0:                 ;XREF[1,0]:   000004ac
ram:000004c0    020050e1        cmp         param_1,param_3                         
ram:000004c4    f9ffffba        blt         LAB_000004b0                            
ram:000004c8    011081e2        add         param_2,param_2,#0x1                    
                            LAB_000004cc:                 ;XREF[1,0]:   00000488
ram:000004cc    030051e1        cmp         param_2,param_4                         
ram:000004d0    edffffba        blt         LAB_0000048c                            
ram:000004d4    f081bde8        ldmia       sp!,{r4 r5 r6 r7 r8 pc}                 
                            ;************************************************************************************************
                            ;*                                           FUNCTION                                           *
                            ;************************************************************************************************
                            ;undefined FUN_000004d8()
          ;local_8       undefined4          -8                      ;XREF[1,0]:   000004e4
          ;local_10      undefined4         -10                      ;XREF[3,0]:   000004f0,00000618,000006b0
          ;local_13      undefined1         -13                      ;XREF[1,0]:   00000570
          ;local_14      undefined1         -14                      ;XREF[1,0]:   0000056c
          ;local_15      undefined1         -15                      ;XREF[1,0]:   00000564
          ;local_16      undefined1         -16                      ;XREF[1,0]:   00000560
          ;local_1d      undefined1         -1d                      ;XREF[3,0]:   00000538,00000640,000006d8
          ;local_1e      undefined1         -1e                      ;XREF[3,0]:   00000540,00000648,000006e0
          ;local_1f      undefined1         -1f                      ;XREF[3,0]:   00000548,00000650,000006e8
          ;local_20      undefined1         -20                      ;XREF[3,0]:   00000550,00000658,000006f0
          ;local_38      undefined4         -38                      ;XREF[1,0]:   000005e4
                                                          ;XREF[1,0]:   0000012c
ram:000004d8    38d04de2        sub         sp,sp,#0x38                             
ram:000004dc    251e8fe2        adr         r1,0x734                                
ram:000004e0    030091e8        ldmia       r1,{r0 r1}                              
ram:000004e4    f003cde1        strd        r0,r1,[sp,#local_8+0x38]                
ram:000004e8    931f8fe2        adr         r1,0x73c                                
ram:000004ec    030091e8        ldmia       r1,{r0 r1}                              
ram:000004f0    f802cde1        strd        r0,r1,[sp,#local_10+0x38]               
ram:000004f4    0251a0e3        mov         r5,#0x80000000                          
ram:000004f8    8194a0e3        mov         r9,#0x81000000                          
ram:000004fc    1b7685e2        add         r7,r5,#0x1b00000                        
                            LAB_00000500:                 ;XREF[1,0]:   000029dc
ram:00000500    0000a0e1        mov         r0,r0                                   
ram:00000504    0080a0e3        mov         r8,#0x0                                 
ram:00000508    00a0a0e3        mov         r10,#0x0                                
ram:0000050c    00b0a0e3        mov         r11,#0x0                                
ram:00000510    0000a0e1        mov         r0,r0                                   
ram:00000514    550400eb        bl          FUN_00001670                            ;undefined FUN_00001670()
ram:00000518    140100eb        bl          FUN_00000970                            ;undefined FUN_00000970()
ram:0000051c    020700eb        bl          FUN_0000212c                            ;undefined FUN_0000212c()
ram:00000520    1c029fe5        ldr         r0,[0x744]                              
ram:00000524    110500eb        bl          FUN_00001970                            ;undefined FUN_00001970()
ram:00000528    2020a0e3        mov         r2,#0x20                                
ram:0000052c    08108de2        add         r1,sp,#0x8                              
ram:00000530    130aa0e3        mov         r0,#0x13000                             
ram:00000534    1b0800eb        bl          FUN_000025a8                            ;undefined FUN_000025a8()
ram:00000538    1b00dde5        ldrb        r0,[sp,#local_1d+0x38]                  
ram:0000053c    000ca0e1        mov         r0,r0, lsl #0x18                        
ram:00000540    1a10dde5        ldrb        r1,[sp,#local_1e+0x38]                  
ram:00000544    010880e1        orr         r0,r0,r1, lsl #0x10                     
ram:00000548    1910dde5        ldrb        r1,[sp,#local_1f+0x38]                  
ram:0000054c    010480e1        orr         r0,r0,r1, lsl #0x8                      
ram:00000550    1810dde5        ldrb        r1,[sp,#local_20+0x38]                  
ram:00000554    018080e1        orr         r8,r0,r1                                
ram:00000558    288048e2        sub         r8,r8,#0x28                             
ram:0000055c    0000a0e1        mov         r0,r0                                   
ram:00000560    2200dde5        ldrb        r0,[sp,#local_16+0x38]                  
ram:00000564    2310dde5        ldrb        r1,[sp,#local_15+0x38]                  
ram:00000568    01a480e1        orr         r10,r0,r1, lsl #0x8                     
ram:0000056c    2400dde5        ldrb        r0,[sp,#local_14+0x38]                  
ram:00000570    2510dde5        ldrb        r1,[sp,#local_13+0x38]                  
ram:00000574    01b480e1        orr         r11,r0,r1, lsl #0x8                     
ram:00000578    0820a0e1        mov         r2,r8                                   
ram:0000057c    0910a0e1        mov         r1,r9                                   
ram:00000580    c0019fe5        ldr         r0,[0x748]                              
ram:00000584    070800eb        bl          FUN_000025a8                            ;undefined FUN_000025a8()
ram:00000588    4b0ea0e3        mov         r0,#0x4b0                               
ram:0000058c    930600eb        bl          FUN_00001fe0                            ;undefined FUN_00001fe0()
ram:00000590    b2ffffeb        bl          FUN_00000460                            ;undefined FUN_00000460()
ram:00000594    94019fe5        ldr         r0,[0x730]                              
ram:00000598    007080e5        str         r7,[r0,#0x0]                            
ram:0000059c    a8419fe5        ldr         r4,[0x74c]                              
ram:000005a0    020000ea        b           LAB_000005b0                            
                            LAB_000005a4:                 ;XREF[1,0]:   000005b4
ram:000005a4    0000a0e3        mov         r0,#0x0                                 
ram:000005a8    040187e7        str         r0,[r7,r4,lsl #0x2]                     
ram:000005ac    014044e2        sub         r4,r4,#0x1                              
                            LAB_000005b0:                 ;XREF[1,0]:   000005a0
ram:000005b0    000054e3        cmp         r4,#0x0                                 
ram:000005b4    faffffaa        bge         LAB_000005a4                            
ram:000005b8    0730a0e1        mov         r3,r7                                   
ram:000005bc    0720a0e1        mov         r2,r7                                   
ram:000005c0    1e1ea0e3        mov         r1,#0x1e0                               
ram:000005c4    320ea0e3        mov         r0,#0x320                               
ram:000005c8    d50900eb        bl          FUN_00002d24                            ;undefined FUN_00002d24()
ram:000005cc    1e2e6be2        rsb         r2,r11,#0x1e0                           
ram:000005d0    a210a0e1        mov         r1,r2, lsr #0x1                         
ram:000005d4    322e6ae2        rsb         r2,r10,#0x320                           
ram:000005d8    a200a0e1        mov         r0,r2, lsr #0x1                         
ram:000005dc    0b30a0e1        mov         r3,r11                                  
ram:000005e0    0a20a0e1        mov         r2,r10                                  
ram:000005e4    00908de5        str         r9,[sp,#0x0]=>local_38                  
ram:000005e8    9fffffeb        bl          FUN_0000046c                            ;undefined FUN_0000046c(undefined par...
ram:000005ec    92ffffeb        bl          FUN_0000043c                            ;undefined FUN_0000043c()
ram:000005f0    2020a0e3        mov         r2,#0x20                                
ram:000005f4    08108de2        add         r1,sp,#0x8                              
ram:000005f8    270aa0e3        mov         r0,#0x27000                             
ram:000005fc    e90700eb        bl          FUN_000025a8                            ;undefined FUN_000025a8()
ram:00000600    0040a0e3        mov         r4,#0x0                                 
ram:00000604    080000ea        b           LAB_0000062c                            
                            LAB_00000608:                 ;XREF[1,0]:   00000630
ram:00000608    040084e2        add         r0,r4,#0x4                              
ram:0000060c    08108de2        add         r1,sp,#0x8                              
ram:00000610    0000d1e7        ldrb        r0,[r1,r0]                              
ram:00000614    28108de2        add         r1,sp,#0x28                             
ram:00000618    0410d1e7        ldrb        r1=>local_10,[r1,r4]                    
ram:0000061c    010050e1        cmp         r0,r1                                   
ram:00000620    0000000a        beq         LAB_00000628                            
ram:00000624    020000ea        b           LAB_00000634                            
                            LAB_00000628:                 ;XREF[1,0]:   00000620
ram:00000628    014084e2        add         r4,r4,#0x1                              
                            LAB_0000062c:                 ;XREF[1,0]:   00000604
ram:0000062c    080054e3        cmp         r4,#0x8                                 
ram:00000630    f4ffffba        blt         LAB_00000608                            
                            LAB_00000634:                 ;XREF[1,0]:   00000624
ram:00000634    0000a0e1        mov         r0,r0                                   
ram:00000638    080054e3        cmp         r4,#0x8                                 
ram:0000063c    1100001a        bne         LAB_00000688                            
ram:00000640    1b00dde5        ldrb        r0,[sp,#local_1d+0x38]                  
ram:00000644    000ca0e1        mov         r0,r0, lsl #0x18                        
ram:00000648    1a10dde5        ldrb        r1,[sp,#local_1e+0x38]                  
ram:0000064c    010880e1        orr         r0,r0,r1, lsl #0x10                     
ram:00000650    1910dde5        ldrb        r1,[sp,#local_1f+0x38]                  
ram:00000654    010480e1        orr         r0,r0,r1, lsl #0x8                      
ram:00000658    1810dde5        ldrb        r1,[sp,#local_20+0x38]                  
ram:0000065c    018080e1        orr         r8,r0,r1                                
ram:00000660    208048e2        sub         r8,r8,#0x20                             
ram:00000664    0820a0e1        mov         r2,r8                                   
ram:00000668    0510a0e1        mov         r1,r5                                   
ram:0000066c    dc009fe5        ldr         r0,[0x750]                              
ram:00000670    cc0700eb        bl          FUN_000025a8                            ;undefined FUN_000025a8()
ram:00000674    6400a0e3        mov         r0,#0x64                                
ram:00000678    580600eb        bl          FUN_00001fe0                            ;undefined FUN_00001fe0()
ram:0000067c    0560a0e1        mov         r6,r5                                   
ram:00000680    36ff2fe1        blx         r6                                      
ram:00000684    240000ea        b           LAB_0000071c                            
                            LAB_00000688:                 ;XREF[1,0]:   0000063c
ram:00000688    2020a0e3        mov         r2,#0x20                                
ram:0000068c    08108de2        add         r1,sp,#0x8                              
ram:00000690    060aa0e3        mov         r0,#0x6000                              
ram:00000694    c30700eb        bl          FUN_000025a8                            ;undefined FUN_000025a8()
ram:00000698    0040a0e3        mov         r4,#0x0                                 
ram:0000069c    080000ea        b           LAB_000006c4                            
                            LAB_000006a0:                 ;XREF[1,0]:   000006c8
ram:000006a0    040084e2        add         r0,r4,#0x4                              
ram:000006a4    08108de2        add         r1,sp,#0x8                              
ram:000006a8    0000d1e7        ldrb        r0,[r1,r0]                              
ram:000006ac    28108de2        add         r1,sp,#0x28                             
ram:000006b0    0410d1e7        ldrb        r1=>local_10,[r1,r4]                    
ram:000006b4    010050e1        cmp         r0,r1                                   
ram:000006b8    0000000a        beq         LAB_000006c0                            
ram:000006bc    020000ea        b           LAB_000006cc                            
                            LAB_000006c0:                 ;XREF[1,0]:   000006b8
ram:000006c0    014084e2        add         r4,r4,#0x1                              
                            LAB_000006c4:                 ;XREF[1,0]:   0000069c
ram:000006c4    080054e3        cmp         r4,#0x8                                 
ram:000006c8    f4ffffba        blt         LAB_000006a0                            
                            LAB_000006cc:                 ;XREF[1,0]:   000006bc
ram:000006cc    0000a0e1        mov         r0,r0                                   
ram:000006d0    080054e3        cmp         r4,#0x8                                 
ram:000006d4    1000001a        bne         LAB_0000071c                            
ram:000006d8    1b00dde5        ldrb        r0,[sp,#local_1d+0x38]                  
ram:000006dc    000ca0e1        mov         r0,r0, lsl #0x18                        
ram:000006e0    1a10dde5        ldrb        r1,[sp,#local_1e+0x38]                  
ram:000006e4    010880e1        orr         r0,r0,r1, lsl #0x10                     
ram:000006e8    1910dde5        ldrb        r1,[sp,#local_1f+0x38]                  
ram:000006ec    010480e1        orr         r0,r0,r1, lsl #0x8                      
ram:000006f0    1810dde5        ldrb        r1,[sp,#local_20+0x38]                  
ram:000006f4    018080e1        orr         r8,r0,r1                                
ram:000006f8    208048e2        sub         r8,r8,#0x20                             
ram:000006fc    0820a0e1        mov         r2,r8                                   
ram:00000700    0510a0e1        mov         r1,r5                                   
ram:00000704    48009fe5        ldr         r0,[0x754]                              
ram:00000708    a60700eb        bl          FUN_000025a8                            ;undefined FUN_000025a8()
ram:0000070c    6400a0e3        mov         r0,#0x64                                
ram:00000710    320600eb        bl          FUN_00001fe0                            ;undefined FUN_00001fe0()
ram:00000714    0560a0e1        mov         r6,r5                                   
ram:00000718    36ff2fe1        blx         r6                                      
                            LAB_0000071c:                 ;XREF[2,0]:   00000684,000006d4
ram:0000071c    0000a0e1        mov         r0,r0                                   
                            LAB_00000720:                 ;XREF[1,0]:   00000720
ram:00000720    feffffea        b           LAB_00000720                            
                            DAT_00000724:                 ;XREF[36,0]:  00000160,00000174,00000188,0000019c
                                                          ;             000001b0,000001c4,000001d8,000001ec
                                                          ;             00000208,0000021c,00000230,00000244
                                                          ;             00000258,0000026c,00000280,00000294
                                                          ;             000002b0,000002c4,000002d8,000002e4
                                                          ;             00000300,0000030c,00000318,00000324
                                                          ;             00000348,00000354,00000360,0000036c
                                                          ;             00000390,0000039c,000003c8,000003d4
                                                          ;             000003ec,000003f8,00000424,00000430
ram:00000724    9008c201        undefined4  01C20890h                               
                            DAT_00000728:                 ;XREF[6,0]:   0000032c,00000374,000003a4,000003bc
                                                          ;             00000400,00000418
ram:00000728    a008c201        undefined4  01C208A0h                               
                            DAT_0000072c:                 ;XREF[1,0]:   00000450
ram:0000072c    60ea0000        undefined4  0000EA60h                               
                            PTR_DAT_00000730:             ;XREF[2,0]:   0000047c,00000498
ram:00000730    b8330000        addr        DAT_000033b8                            
ram:00000734    65474f4e2...    ds          "eGON.BMPeGON.EXE"                      
ram:00000745    c2              ??          C2h                                     
ram:00000746    01              ??          01h                                     
ram:00000747    00              ??          00h                                     
ram:00000748    28              ??          28h    (                                
ram:00000749    30              ??          30h    0                                
ram:0000074a    01              ??          01h                                     
ram:0000074b    00              ??          00h                                     
ram:0000074c    00              ??          00h                                     
ram:0000074d    ee              ??          EEh                                     
ram:0000074e    02              ??          02h                                     
ram:0000074f    00              ??          00h                                     
ram:00000750    20              ??          20h                                     
ram:00000751    70              ??          70h    p                                
ram:00000752    02              ??          02h                                     
ram:00000753    00              ??          00h                                     
ram:00000754    20              ??          20h                                     
ram:00000755    60              ??          60h    `                                
ram:00000756    00              ??          00h                                     
ram:00000757    00              ??          00h                                     
                            ;************************************************************************************************
                            ;*                                           FUNCTION                                           *
                            ;************************************************************************************************
                            ;undefined FUN_00000758()
                                                          ;XREF[1,0]:   0000014c
ram:00000758    0000a0e1        mov         r0,r0                                   
                            LAB_0000075c:                 ;XREF[1,0]:   0000075c
ram:0000075c    feffffea        b           LAB_0000075c                            
ram:00000760    ff              ??          FFh                                     
ram:00000761    10              ??          10h                                     
ram:00000762    00              ??          00h                                     
ram:00000763    e2              ??          E2h                                     
ram:00000764    1e              ??          1Eh                                     
ram:00000765    ff              ??          FFh                                     
ram:00000766    2f              ??          2Fh    /                                
ram:00000767    e1              ??          E1h                                     
                            ;************************************************************************************************
                            ;*                                           FUNCTION                                           *
                            ;************************************************************************************************
                            ;undefined FUN_00000768()
          ;local_1c      undefined4         -1c                      ;XREF[1,0]:   00000784
          ;local_20      undefined4         -20                      ;XREF[2,0]:   00000780,00000788
                                                          ;XREF[1,0]:   0000010c
ram:00000768    7f402de9        stmdb       sp!,{r0 r1 r2 r3 r4 r5 r6 lr}           
ram:0000076c    0040a0e1        mov         r4,r0                                   
ram:00000770    01c0a0e1        mov         r12,r1                                  
ram:00000774    0250a0e1        mov         r5,r2                                   
ram:00000778    0360a0e1        mov         r6,r3                                   
ram:0000077c    10009fe5        ldr         r0,[DAT_00000794]                       ;= 00003430h
ram:00000780    00008de5        str         r0,[sp,#0x0]=>local_20                  
ram:00000784    04c08de5        str         r12,[sp,#local_1c+0x20]                 
ram:00000788    0f009de8        ldmia       sp,{r0 r1 r2 r3}=>local_20              
ram:0000078c    10d08de2        add         sp,sp,#0x10                             
ram:00000790    7080bde8        ldmia       sp!,{r4 r5 r6 pc}                       
                            DAT_00000794:                 ;XREF[1,0]:   0000077c
ram:00000794    30340000        undefined4  00003430h                               
ram:00000798    00              ??          00h                                     
ram:00000799    20              ??          20h                                     
ram:0000079a    a0              ??          A0h                                     
ram:0000079b    e1              ??          E1h                                     
ram:0000079c    01              ??          01h                                     
ram:0000079d    30              ??          30h    0                                
ram:0000079e    a0              ??          A0h                                     
ram:0000079f    e1              ??          E1h                                     
ram:000007a0    00              ??          00h                                     
ram:000007a1    00              ??          00h                                     
ram:000007a2    d2              ??          D2h                                     
ram:000007a3    e5              ??          E5h                                     
ram:000007a4    1e              ??          1Eh                                     
ram:000007a5    ff              ??          FFh                                     
ram:000007a6    2f              ??          2Fh    /                                
ram:000007a7    e1              ??          E1h                                     
ram:000007a8    00              ??          00h                                     
ram:000007a9    20              ??          20h                                     
ram:000007aa    a0              ??          A0h                                     
ram:000007ab    e1              ??          E1h                                     
ram:000007ac    01              ??          01h                                     
ram:000007ad    30              ??          30h    0                                
ram:000007ae    a0              ??          A0h                                     
ram:000007af    e1              ??          E1h                                     
ram:000007b0    b0              ??          B0h                                     
ram:000007b1    00              ??          00h                                     
ram:000007b2    d2              ??          D2h                                     
ram:000007b3    e1              ??          E1h                                     
ram:000007b4    1e              ??          1Eh                                     
ram:000007b5    ff              ??          FFh                                     
ram:000007b6    2f              ??          2Fh    /                                
ram:000007b7    e1              ??          E1h                                     
                            ;************************************************************************************************
                            ;*                                           FUNCTION                                           *
                            ;************************************************************************************************
                            ;undefined FUN_000007b8()
                                                          ;XREF[5,0]:   00000814,0000092c,0000099c,00000a14
                                                          ;             00000a48
ram:000007b8    0020a0e1        mov         r2,r0                                   
ram:000007bc    0130a0e1        mov         r3,r1                                   
ram:000007c0    000092e5        ldr         r0,[r2,#0x0]                            
ram:000007c4    1eff2fe1        bx          lr                                      
ram:000007c8    00              ??          00h                                     
ram:000007c9    20              ??          20h                                     
ram:000007ca    a0              ??          A0h                                     
ram:000007cb    e1              ??          E1h                                     
ram:000007cc    01              ??          01h                                     
ram:000007cd    30              ??          30h    0                                
ram:000007ce    a0              ??          A0h                                     
ram:000007cf    e1              ??          E1h                                     
ram:000007d0    d0              ??          D0h                                     
ram:000007d1    00              ??          00h                                     
ram:000007d2    c2              ??          C2h                                     
ram:000007d3    e1              ??          E1h                                     
ram:000007d4    1e              ??          1Eh                                     
ram:000007d5    ff              ??          FFh                                     
ram:000007d6    2f              ??          2Fh    /                                
ram:000007d7    e1              ??          E1h                                     
ram:000007d8    00              ??          00h                                     
ram:000007d9    20              ??          20h                                     
ram:000007da    c0              ??          C0h                                     
ram:000007db    e5              ??          E5h                                     
ram:000007dc    1e              ??          1Eh                                     
ram:000007dd    ff              ??          FFh                                     
ram:000007de    2f              ??          2Fh    /                                
ram:000007df    e1              ??          E1h                                     
ram:000007e0    b0              ??          B0h                                     
ram:000007e1    20              ??          20h                                     
ram:000007e2    c0              ??          C0h                                     
ram:000007e3    e1              ??          E1h                                     
ram:000007e4    1e              ??          1Eh                                     
ram:000007e5    ff              ??          FFh                                     
ram:000007e6    2f              ??          2Fh    /                                
ram:000007e7    e1              ??          E1h                                     
                            ;************************************************************************************************
                            ;*                                           FUNCTION                                           *
                            ;************************************************************************************************
                            ;undefined FUN_000007e8()
                                                          ;XREF[9,0]:   00000960,00000980,00000990,000009b8
                                                          ;             000009d0,000009e8,00000a00,00000a2c
                                                          ;             00000a64
ram:000007e8    002080e5        str         r2,[r0,#0x0]                            
ram:000007ec    1eff2fe1        bx          lr                                      
ram:000007f0    f0              ??          F0h                                     
ram:000007f1    20              ??          20h                                     
ram:000007f2    c0              ??          C0h                                     
ram:000007f3    e1              ??          E1h                                     
ram:000007f4    1e              ??          1Eh                                     
ram:000007f5    ff              ??          FFh                                     
ram:000007f6    2f              ??          2Fh    /                                
ram:000007f7    e1              ??          E1h                                     
                            ;************************************************************************************************
                            ;*                                           FUNCTION                                           *
                            ;************************************************************************************************
                            ;undefined FUN_000007f8()
                                                          ;XREF[1,0]:   00000968
ram:000007f8    70402de9        stmdb       sp!,{r4 r5 r6 lr}                       
ram:000007fc    0040a0e1        mov         r4,r0                                   
ram:00000800    0060a0e3        mov         r6,#0x0                                 
ram:00000804    84529fe5        ldr         r5,[DAT_00000a90]                       ;= 00000FFFh
ram:00000808    0000a0e1        mov         r0,r0                                   
                            LAB_0000080c:                 ;XREF[1,0]:   00000830
ram:0000080c    0400a0e1        mov         r0,r4                                   
ram:00000810    0010a0e3        mov         r1,#0x0                                 
ram:00000814    e7ffffeb        bl          FUN_000007b8                            ;undefined FUN_000007b8()
ram:00000818    0060a0e1        mov         r6,r0                                   
ram:0000081c    015045e2        sub         r5,r5,#0x1                              
ram:00000820    000055e3        cmp         r5,#0x0                                 
ram:00000824    0200000a        beq         LAB_00000834                            
ram:00000828    010206e2        and         r0,r6,#0x10000000                       
ram:0000082c    000050e3        cmp         r0,#0x0                                 
ram:00000830    f5ffff0a        beq         LAB_0000080c                            
                            LAB_00000834:                 ;XREF[1,0]:   00000824
ram:00000834    7080bde8        ldmia       sp!,{r4 r5 r6 pc}                       
                            ;************************************************************************************************
                            ;*                                           FUNCTION                                           *
                            ;************************************************************************************************
                            ;undefined FUN_00000838()
                                                          ;XREF[1,0]:   00000a3c
ram:00000838    f0472de9        stmdb       sp!,{r4 r5 r6 r7 r8 r9 r10 lr}          
ram:0000083c    00a0a0e1        mov         r10,r0                                  
ram:00000840    0090a0e3        mov         r9,#0x0                                 
ram:00000844    0080a0e3        mov         r8,#0x0                                 
ram:00000848    44029fe5        ldr         r0,[DAT_00000a94]                       ;= 2AEA5400h
ram:0000084c    00005ae1        cmp         r10,r0                                  
ram:00000850    0000009a        bls         LAB_00000858                            
ram:00000854    00a0a0e1        mov         r10,r0                                  
                            LAB_00000858:                 ;XREF[1,0]:   00000850
ram:00000858    38129fe5        ldr         r1,[DAT_00000a98]                       ;= 016E3600h
ram:0000085c    0a00a0e1        mov         r0,r10                                  
ram:00000860    b70900eb        bl          FUN_00002f44                            ;undefined FUN_00002f44()
ram:00000864    000051e3        cmp         r1,#0x0                                 
ram:00000868    0800001a        bne         LAB_00000890                            
ram:0000086c    24129fe5        ldr         r1,[DAT_00000a98]                       ;= 016E3600h
ram:00000870    0a00a0e1        mov         r0,r10                                  
ram:00000874    b20900eb        bl          FUN_00002f44                            ;undefined FUN_00002f44()
ram:00000878    0080a0e1        mov         r8,r0                                   
ram:0000087c    015048e2        sub         r5,r8,#0x1                              
ram:00000880    0040a0e3        mov         r4,#0x0                                 
ram:00000884    0060a0e3        mov         r6,#0x0                                 
ram:00000888    0070a0e3        mov         r7,#0x0                                 
ram:0000088c    240000ea        b           LAB_00000924                            
                            LAB_00000890:                 ;XREF[1,0]:   00000868
ram:00000890    04129fe5        ldr         r1,[DAT_00000a9c]                       ;= 00B71B00h
ram:00000894    0a00a0e1        mov         r0,r10                                  
ram:00000898    a90900eb        bl          FUN_00002f44                            ;undefined FUN_00002f44()
ram:0000089c    000051e3        cmp         r1,#0x0                                 
ram:000008a0    1700001a        bne         LAB_00000904                            
ram:000008a4    0160a0e3        mov         r6,#0x1                                 
ram:000008a8    ec119fe5        ldr         r1,[DAT_00000a9c]                       ;= 00B71B00h
ram:000008ac    0a00a0e1        mov         r0,r10                                  
ram:000008b0    a30900eb        bl          FUN_00002f44                            ;undefined FUN_00002f44()
ram:000008b4    0080a0e1        mov         r8,r0                                   
ram:000008b8    0310a0e3        mov         r1,#0x3                                 
ram:000008bc    0800a0e1        mov         r0,r8                                   
ram:000008c0    9f0900eb        bl          FUN_00002f44                            ;undefined FUN_00002f44()
ram:000008c4    000051e3        cmp         r1,#0x0                                 
ram:000008c8    0100001a        bne         LAB_000008d4                            
ram:000008cc    0240a0e3        mov         r4,#0x2                                 
ram:000008d0    050000ea        b           LAB_000008ec                            
                            LAB_000008d4:                 ;XREF[1,0]:   000008c8
ram:000008d4    030008e2        and         r0,r8,#0x3                              
ram:000008d8    000050e3        cmp         r0,#0x0                                 
ram:000008dc    0100001a        bne         LAB_000008e8                            
ram:000008e0    0340a0e3        mov         r4,#0x3                                 
ram:000008e4    000000ea        b           LAB_000008ec                            
                            LAB_000008e8:                 ;XREF[1,0]:   000008dc
ram:000008e8    0140a0e3        mov         r4,#0x1                                 
                            LAB_000008ec:                 ;XREF[2,0]:   000008d0,000008e4
ram:000008ec    011084e2        add         r1,r4,#0x1                              
ram:000008f0    0800a0e1        mov         r0,r8                                   
ram:000008f4    920900eb        bl          FUN_00002f44                            ;undefined FUN_00002f44()
ram:000008f8    015040e2        sub         r5,r0,#0x1                              
ram:000008fc    0070a0e3        mov         r7,#0x0                                 
ram:00000900    070000ea        b           LAB_00000924                            
                            LAB_00000904:                 ;XREF[1,0]:   000008a0
ram:00000904    8c119fe5        ldr         r1,[DAT_00000a98]                       ;= 016E3600h
ram:00000908    0a00a0e1        mov         r0,r10                                  
ram:0000090c    8c0900eb        bl          FUN_00002f44                            ;undefined FUN_00002f44()
ram:00000910    0080a0e1        mov         r8,r0                                   
ram:00000914    015048e2        sub         r5,r8,#0x1                              
ram:00000918    0040a0e3        mov         r4,#0x0                                 
ram:0000091c    0060a0e3        mov         r6,#0x0                                 
ram:00000920    0070a0e3        mov         r7,#0x0                                 
                            LAB_00000924:                 ;XREF[2,0]:   0000088c,00000900
ram:00000924    74019fe5        ldr         r0,[DAT_00000aa0]                       ;= 01C20000h
ram:00000928    0010a0e3        mov         r1,#0x0                                 
ram:0000092c    a1ffffeb        bl          FUN_000007b8                            ;undefined FUN_000007b8()
ram:00000930    0090a0e1        mov         r9,r0                                   
ram:00000934    68019fe5        ldr         r0,[DAT_00000aa4]                       ;= FFFCE0CCh
ram:00000938    009009e0        and         r9,r9,r0                                
ram:0000093c    0201a0e3        mov         r0,#0x80000000                          
ram:00000940    070880e1        orr         r0,r0,r7, lsl #0x10                     
ram:00000944    050480e1        orr         r0,r0,r5, lsl #0x8                      
ram:00000948    040280e1        orr         r0,r0,r4, lsl #0x4                      
ram:0000094c    060080e1        orr         r0,r0,r6                                
ram:00000950    009089e1        orr         r9,r9,r0                                
ram:00000954    0920a0e1        mov         r2,r9                                   
ram:00000958    40019fe5        ldr         r0,[DAT_00000aa0]                       ;= 01C20000h
ram:0000095c    0010a0e3        mov         r1,#0x0                                 
ram:00000960    a0ffffeb        bl          FUN_000007e8                            ;undefined FUN_000007e8()
ram:00000964    34019fe5        ldr         r0,[DAT_00000aa0]                       ;= 01C20000h
ram:00000968    a2ffffeb        bl          FUN_000007f8                            ;undefined FUN_000007f8()
ram:0000096c    f087bde8        ldmia       sp!,{r4 r5 r6 r7 r8 r9 r10 pc}          
                            ;************************************************************************************************
                            ;*                                           FUNCTION                                           *
                            ;************************************************************************************************
                            ;undefined FUN_00000970()
                                                          ;XREF[1,0]:   00000518
ram:00000970    10402de9        stmdb       sp!,{r4 lr}                             
ram:00000974    2c219fe5        ldr         r2,[DAT_00000aa8]                       ;= 000001FFh
ram:00000978    2c019fe5        ldr         r0,[DAT_00000aac]                       ;= 01C20200h
ram:0000097c    0010a0e3        mov         r1,#0x0                                 
ram:00000980    98ffffeb        bl          FUN_000007e8                            ;undefined FUN_000007e8()
ram:00000984    1c219fe5        ldr         r2,[DAT_00000aa8]                       ;= 000001FFh
ram:00000988    20019fe5        ldr         r0,[DAT_00000ab0]                       ;= 01C20204h
ram:0000098c    0010a0e3        mov         r1,#0x0                                 
ram:00000990    94ffffeb        bl          FUN_000007e8                            ;undefined FUN_000007e8()
ram:00000994    18019fe5        ldr         r0,[DAT_00000ab4]                       ;= 01C20050h
ram:00000998    0010a0e3        mov         r1,#0x0                                 
ram:0000099c    85ffffeb        bl          FUN_000007b8                            ;undefined FUN_000007b8()
ram:000009a0    0040a0e1        mov         r4,r0                                   
ram:000009a4    0348c4e3        bic         r4,r4,#0x30000                          
ram:000009a8    014884e3        orr         r4,r4,#0x10000                          
ram:000009ac    0420a0e1        mov         r2,r4                                   
ram:000009b0    fc009fe5        ldr         r0,[DAT_00000ab4]                       ;= 01C20050h
ram:000009b4    0010a0e3        mov         r1,#0x0                                 
ram:000009b8    8affffeb        bl          FUN_000007e8                            ;undefined FUN_000007e8()
ram:000009bc    6400a0e3        mov         r0,#0x64                                
ram:000009c0    2b0000eb        bl          FUN_00000a74                            ;undefined FUN_00000a74()
ram:000009c4    ec209fe5        ldr         r2,[DAT_00000ab8]                       ;= 81004107h
ram:000009c8    ec009fe5        ldr         r0,[DAT_00000abc]                       ;= 01C20010h
ram:000009cc    0010a0e3        mov         r1,#0x0                                 
ram:000009d0    84ffffeb        bl          FUN_000007e8                            ;undefined FUN_000007e8()
ram:000009d4    6400a0e3        mov         r0,#0x64                                
ram:000009d8    250000eb        bl          FUN_00000a74                            ;undefined FUN_00000a74()
ram:000009dc    dc209fe5        ldr         r2,[DAT_00000ac0]                       ;= 80041800h
ram:000009e0    dc009fe5        ldr         r0,[DAT_00000ac4]                       ;= 01C20028h
ram:000009e4    0010a0e3        mov         r1,#0x0                                 
ram:000009e8    7effffeb        bl          FUN_000007e8                            ;undefined FUN_000007e8()
ram:000009ec    6400a0e3        mov         r0,#0x64                                
ram:000009f0    1f0000eb        bl          FUN_00000a74                            ;undefined FUN_00000a74()
ram:000009f4    c62da0e3        mov         r2,#0x3180                              
ram:000009f8    c8009fe5        ldr         r0,[DAT_00000ac8]                       ;= 01C20054h
ram:000009fc    0010a0e3        mov         r1,#0x0                                 
ram:00000a00    78ffffeb        bl          FUN_000007e8                            ;undefined FUN_000007e8()
ram:00000a04    6400a0e3        mov         r0,#0x64                                
ram:00000a08    190000eb        bl          FUN_00000a74                            ;undefined FUN_00000a74()
ram:00000a0c    b8009fe5        ldr         r0,[DAT_00000acc]                       ;= 01C20100h
ram:00000a10    0010a0e3        mov         r1,#0x0                                 
ram:00000a14    67ffffeb        bl          FUN_000007b8                            ;undefined FUN_000007b8()
ram:00000a18    0040a0e1        mov         r4,r0                                   
ram:00000a1c    054484e3        orr         r4,r4,#0x5000000                        
ram:00000a20    0420a0e1        mov         r2,r4                                   
ram:00000a24    a0009fe5        ldr         r0,[DAT_00000acc]                       ;= 01C20100h
ram:00000a28    0010a0e3        mov         r1,#0x0                                 
ram:00000a2c    6dffffeb        bl          FUN_000007e8                            ;undefined FUN_000007e8()
ram:00000a30    6400a0e3        mov         r0,#0x64                                
ram:00000a34    0e0000eb        bl          FUN_00000a74                            ;undefined FUN_00000a74()
ram:00000a38    90009fe5        ldr         r0,[DAT_00000ad0]                       ;= 18519600h
ram:00000a3c    7dffffeb        bl          FUN_00000838                            ;undefined FUN_00000838()
ram:00000a40    6c009fe5        ldr         r0,[DAT_00000ab4]                       ;= 01C20050h
ram:00000a44    0010a0e3        mov         r1,#0x0                                 
ram:00000a48    5affffeb        bl          FUN_000007b8                            ;undefined FUN_000007b8()
ram:00000a4c    0040a0e1        mov         r4,r0                                   
ram:00000a50    0348c4e3        bic         r4,r4,#0x30000                          
ram:00000a54    024884e3        orr         r4,r4,#0x20000                          
ram:00000a58    0420a0e1        mov         r2,r4                                   
ram:00000a5c    50009fe5        ldr         r0,[DAT_00000ab4]                       ;= 01C20050h
ram:00000a60    0010a0e3        mov         r1,#0x0                                 
ram:00000a64    5fffffeb        bl          FUN_000007e8                            ;undefined FUN_000007e8()
ram:00000a68    6400a0e3        mov         r0,#0x64                                
ram:00000a6c    000000eb        bl          FUN_00000a74                            ;undefined FUN_00000a74()
ram:00000a70    1080bde8        ldmia       sp!,{r4 pc}                             
                            ;************************************************************************************************
                            ;*                                           FUNCTION                                           *
                            ;************************************************************************************************
                            ;undefined FUN_00000a74()
                                                          ;XREF[6,0]:   000009c0,000009d8,000009f0,00000a08
                                                          ;             00000a34,00000a6c
ram:00000a74    0010a0e1        mov         r1,r0                                   
ram:00000a78    0000a0e3        mov         r0,#0x0                                 
ram:00000a7c    000000ea        b           LAB_00000a84                            
                            LAB_00000a80:                 ;XREF[1,0]:   00000a88
ram:00000a80    010080e2        add         r0,r0,#0x1                              
                            LAB_00000a84:                 ;XREF[1,0]:   00000a7c
ram:00000a84    4b0f50e3        cmp         r0,#0x12c                               
ram:00000a88    fcffffba        blt         LAB_00000a80                            
ram:00000a8c    1eff2fe1        bx          lr                                      
                            DAT_00000a90:                 ;XREF[1,0]:   00000804
ram:00000a90    ff0f0000        undefined4  00000FFFh                               ;?  ->  00000fff
                            DAT_00000a94:                 ;XREF[1,0]:   00000848
ram:00000a94    0054ea2a        undefined4  2AEA5400h                               
                            DAT_00000a98:                 ;XREF[3,0]:   00000858,0000086c,00000904
ram:00000a98    00366e01        undefined4  016E3600h                               
                            DAT_00000a9c:                 ;XREF[2,0]:   00000890,000008a8
ram:00000a9c    001bb700        undefined4  00B71B00h                               
                            DAT_00000aa0:                 ;XREF[3,0]:   00000924,00000958,00000964
ram:00000aa0    0000c201        undefined4  01C20000h                               
                            DAT_00000aa4:                 ;XREF[1,0]:   00000934
ram:00000aa4    cce0fcff        undefined4  FFFCE0CCh                               
                            DAT_00000aa8:                 ;XREF[2,1]:   00000974,00000984,00001360
ram:00000aa8    ff010000        undefined4  000001FFh                               ;?  ->  000001ff
                            DAT_00000aac:                 ;XREF[1,0]:   00000978
ram:00000aac    0002c201        undefined4  01C20200h                               
                            DAT_00000ab0:                 ;XREF[1,0]:   00000988
ram:00000ab0    0402c201        undefined4  01C20204h                               
                            DAT_00000ab4:                 ;XREF[4,0]:   00000994,000009b0,00000a40,00000a5c
ram:00000ab4    5000c201        undefined4  01C20050h                               
                            DAT_00000ab8:                 ;XREF[1,0]:   000009c4
ram:00000ab8    07410081        undefined4  81004107h                               
                            DAT_00000abc:                 ;XREF[1,0]:   000009c8
ram:00000abc    1000c201        undefined4  01C20010h                               
                            DAT_00000ac0:                 ;XREF[1,0]:   000009dc
ram:00000ac0    00180480        undefined4  80041800h                               
                            DAT_00000ac4:                 ;XREF[1,0]:   000009e0
ram:00000ac4    2800c201        undefined4  01C20028h                               
                            DAT_00000ac8:                 ;XREF[1,0]:   000009f8
ram:00000ac8    5400c201        undefined4  01C20054h                               
                            DAT_00000acc:                 ;XREF[2,0]:   00000a0c,00000a24
ram:00000acc    0001c201        undefined4  01C20100h                               
                            DAT_00000ad0:                 ;XREF[1,0]:   00000a38
ram:00000ad0    00965118        undefined4  18519600h                               
ram:00000ad4    00              ??          00h                                     
ram:00000ad5    20              ??          20h                                     
ram:00000ad6    a0              ??          A0h                                     
ram:00000ad7    e1              ??          E1h                                     
ram:00000ad8    01              ??          01h                                     
ram:00000ad9    30              ??          30h    0                                
ram:00000ada    a0              ??          A0h                                     
ram:00000adb    e1              ??          E1h                                     
ram:00000adc    00              ??          00h                                     
ram:00000add    00              ??          00h                                     
ram:00000ade    d2              ??          D2h                                     
ram:00000adf    e5              ??          E5h                                     
ram:00000ae0    1e              ??          1Eh                                     
ram:00000ae1    ff              ??          FFh                                     
ram:00000ae2    2f              ??          2Fh    /                                
ram:00000ae3    e1              ??          E1h                                     
ram:00000ae4    00              ??          00h                                     
ram:00000ae5    20              ??          20h                                     
ram:00000ae6    a0              ??          A0h                                     
ram:00000ae7    e1              ??          E1h                                     
ram:00000ae8    01              ??          01h                                     
ram:00000ae9    30              ??          30h    0                                
ram:00000aea    a0              ??          A0h                                     
ram:00000aeb    e1              ??          E1h                                     
ram:00000aec    b0              ??          B0h                                     
ram:00000aed    00              ??          00h                                     
ram:00000aee    d2              ??          D2h                                     
ram:00000aef    e1              ??          E1h                                     
ram:00000af0    1e              ??          1Eh                                     
ram:00000af1    ff              ??          FFh                                     
ram:00000af2    2f              ??          2Fh    /                                
ram:00000af3    e1              ??          E1h                                     
                            ;************************************************************************************************
                            ;*                                           FUNCTION                                           *
                            ;************************************************************************************************
                            ;undefined FUN_00000af4()
                                                          ;XREF[29,0]:  00000b6c,00000ba0,00000bd4,00000c08
                                                          ;             00000c48,00000d98,00000df8,00000e14
                                                          ;             00000e30,00000e4c,00000edc,00000f20
                                                          ;             00000f88,00000fb4,0000102c,00001060
                                                          ;             0000107c,000010c4,000010f4,00001124
                                                          ;             000012f4,00001330,00001494,000014b8
                                                          ;             000014d8,000014f8,00001530,00001550
                                                          ;             000015c0
ram:00000af4    0020a0e1        mov         r2,r0                                   
ram:00000af8    0130a0e1        mov         r3,r1                                   
ram:00000afc    000092e5        ldr         r0,[r2,#0x0]                            
ram:00000b00    1eff2fe1        bx          lr                                      
ram:00000b04    00              ??          00h                                     
ram:00000b05    20              ??          20h                                     
ram:00000b06    a0              ??          A0h                                     
ram:00000b07    e1              ??          E1h                                     
ram:00000b08    01              ??          01h                                     
ram:00000b09    30              ??          30h    0                                
ram:00000b0a    a0              ??          A0h                                     
ram:00000b0b    e1              ??          E1h                                     
ram:00000b0c    d0              ??          D0h                                     
ram:00000b0d    00              ??          00h                                     
ram:00000b0e    c2              ??          C2h                                     
ram:00000b0f    e1              ??          E1h                                     
ram:00000b10    1e              ??          1Eh                                     
ram:00000b11    ff              ??          FFh                                     
ram:00000b12    2f              ??          2Fh    /                                
ram:00000b13    e1              ??          E1h                                     
ram:00000b14    00              ??          00h                                     
ram:00000b15    20              ??          20h                                     
ram:00000b16    c0              ??          C0h                                     
ram:00000b17    e5              ??          E5h                                     
ram:00000b18    1e              ??          1Eh                                     
ram:00000b19    ff              ??          FFh                                     
ram:00000b1a    2f              ??          2Fh    /                                
ram:00000b1b    e1              ??          E1h                                     
ram:00000b1c    b0              ??          B0h                                     
ram:00000b1d    20              ??          20h                                     
ram:00000b1e    c0              ??          C0h                                     
ram:00000b1f    e1              ??          E1h                                     
ram:00000b20    1e              ??          1Eh                                     
ram:00000b21    ff              ??          FFh                                     
ram:00000b22    2f              ??          2Fh    /                                
ram:00000b23    e1              ??          E1h                                     
                            ;************************************************************************************************
                            ;*                                           FUNCTION                                           *
                            ;************************************************************************************************
                            ;undefined FUN_00000b24()
                                                          ;XREF[29,0]:  00000b80,00000be8,00000d00,00000d8c
                                                          ;             00000dac,00000eb4,00000f38,00000fa4
                                                          ;             00001048,000010e0,00001110,00001140
                                                          ;             00001308,00001344,0000136c,00001388
                                                          ;             000013f8,0000141c,00001440,00001464
                                                          ;             00001488,000014a8,000014ec,0000150c
                                                          ;             00001544,0000157c,00001590,000015a4
                                                          ;             000015ec
ram:00000b24    002080e5        str         r2,[r0,#0x0]                            
ram:00000b28    1eff2fe1        bx          lr                                      
ram:00000b2c    f0              ??          F0h                                     
ram:00000b2d    20              ??          20h                                     
ram:00000b2e    c0              ??          C0h                                     
ram:00000b2f    e1              ??          E1h                                     
ram:00000b30    1e              ??          1Eh                                     
ram:00000b31    ff              ??          FFh                                     
ram:00000b32    2f              ??          2Fh    /                                
ram:00000b33    e1              ??          E1h                                     
                            ;************************************************************************************************
                            ;*                                           FUNCTION                                           *
                            ;************************************************************************************************
                            ;undefined FUN_00000b34()
                                                          ;XREF[2,0]:   00001310,000014cc
ram:00000b34    8010a0e1        mov         r1,r0, lsl #0x1                         
ram:00000b38    fa3fa0e3        mov         r3,#0x3e8                               
ram:00000b3c    910302e0        mul         r2,r1,r3                                
ram:00000b40    0010a0e3        mov         r1,#0x0                                 
ram:00000b44    000000ea        b           LAB_00000b4c                            
                            LAB_00000b48:                 ;XREF[1,0]:   00000b50
ram:00000b48    011081e2        add         r1,r1,#0x1                              
                            LAB_00000b4c:                 ;XREF[1,0]:   00000b44
ram:00000b4c    4b0f51e3        cmp         r1,#0x12c                               
ram:00000b50    fcffffba        blt         LAB_00000b48                            
ram:00000b54    0000a0e1        mov         r0,r0                                   
ram:00000b58    1eff2fe1        bx          lr                                      
                            ;************************************************************************************************
                            ;*                                           FUNCTION                                           *
                            ;************************************************************************************************
                            ;undefined FUN_00000b5c()
                                                          ;XREF[1,0]:   00000db0
ram:00000b5c    70402de9        stmdb       sp!,{r4 r5 r6 lr}                       
ram:00000b60    ff44e0e3        mvn         r4,#0xff000000                          
ram:00000b64    7c0b9fe5        ldr         r0,[DAT_000016e8]                       ;= 01C0100Ch
ram:00000b68    0010a0e3        mov         r1,#0x0                                 
ram:00000b6c    e0ffffeb        bl          FUN_00000af4                            ;undefined FUN_00000af4()
ram:00000b70    015080e3        orr         r5,r0,#0x1                              
ram:00000b74    0520a0e1        mov         r2,r5                                   
ram:00000b78    680b9fe5        ldr         r0,[DAT_000016e8]                       ;= 01C0100Ch
ram:00000b7c    0010a0e3        mov         r1,#0x0                                 
ram:00000b80    e7ffffeb        bl          FUN_00000b24                            ;undefined FUN_00000b24()
ram:00000b84    030000ea        b           LAB_00000b98                            
                            LAB_00000b88:                 ;XREF[1,0]:   00000bb8
ram:00000b88    000054e3        cmp         r4,#0x0                                 
ram:00000b8c    0100001a        bne         LAB_00000b98                            
ram:00000b90    0000a0e3        mov         r0,#0x0                                 
                            LAB_00000b94:                 ;XREF[1,0]:   00000bc0
ram:00000b94    7080bde8        ldmia       sp!,{r4 r5 r6 pc}                       
                            LAB_00000b98:                 ;XREF[2,0]:   00000b84,00000b8c
ram:00000b98    480b9fe5        ldr         r0,[DAT_000016e8]                       ;= 01C0100Ch
ram:00000b9c    0010a0e3        mov         r1,#0x0                                 
ram:00000ba0    d3ffffeb        bl          FUN_00000af4                            ;undefined FUN_00000af4()
ram:00000ba4    010000e2        and         r0,r0,#0x1                              
ram:00000ba8    000050e3        cmp         r0,#0x0                                 
ram:00000bac    0200000a        beq         LAB_00000bbc                            
ram:00000bb0    0400b0e1        movs        r0,r4                                   
ram:00000bb4    014044e2        sub         r4,r4,#0x1                              
ram:00000bb8    f2ffff1a        bne         LAB_00000b88                            
                            LAB_00000bbc:                 ;XREF[1,0]:   00000bac
ram:00000bbc    0100a0e3        mov         r0,#0x1                                 
ram:00000bc0    f3ffffea        b           LAB_00000b94                            
                            ;************************************************************************************************
                            ;*                                           FUNCTION                                           *
                            ;************************************************************************************************
                            ;undefined FUN_00000bc4()
                                                          ;XREF[3,0]:   00000fa8,0000104c,000010e4
ram:00000bc4    70402de9        stmdb       sp!,{r4 r5 r6 lr}                       
ram:00000bc8    ff44e0e3        mvn         r4,#0xff000000                          
ram:00000bcc    180b9fe5        ldr         r0,[DAT_000016ec]                       ;= 01C01024h
ram:00000bd0    0010a0e3        mov         r1,#0x0                                 
ram:00000bd4    c6ffffeb        bl          FUN_00000af4                            ;undefined FUN_00000af4()
ram:00000bd8    015080e3        orr         r5,r0,#0x1                              
ram:00000bdc    0520a0e1        mov         r2,r5                                   
ram:00000be0    040b9fe5        ldr         r0,[DAT_000016ec]                       ;= 01C01024h
ram:00000be4    0010a0e3        mov         r1,#0x0                                 
ram:00000be8    cdffffeb        bl          FUN_00000b24                            ;undefined FUN_00000b24()
ram:00000bec    030000ea        b           LAB_00000c00                            
                            LAB_00000bf0:                 ;XREF[1,0]:   00000c20
ram:00000bf0    000054e3        cmp         r4,#0x0                                 
ram:00000bf4    0100001a        bne         LAB_00000c00                            
ram:00000bf8    0000a0e3        mov         r0,#0x0                                 
                            LAB_00000bfc:                 ;XREF[1,0]:   00000c28
ram:00000bfc    7080bde8        ldmia       sp!,{r4 r5 r6 pc}                       
                            LAB_00000c00:                 ;XREF[2,0]:   00000bec,00000bf4
ram:00000c00    e40a9fe5        ldr         r0,[DAT_000016ec]                       ;= 01C01024h
ram:00000c04    0010a0e3        mov         r1,#0x0                                 
ram:00000c08    b9ffffeb        bl          FUN_00000af4                            ;undefined FUN_00000af4()
ram:00000c0c    010000e2        and         r0,r0,#0x1                              
ram:00000c10    000050e3        cmp         r0,#0x0                                 
ram:00000c14    0200000a        beq         LAB_00000c24                            
ram:00000c18    0400b0e1        movs        r0,r4                                   
ram:00000c1c    014044e2        sub         r4,r4,#0x1                              
ram:00000c20    f2ffff1a        bne         LAB_00000bf0                            
                            LAB_00000c24:                 ;XREF[1,0]:   00000c14
ram:00000c24    0100a0e3        mov         r0,#0x1                                 
ram:00000c28    f3ffffea        b           LAB_00000bfc                            
                            ;************************************************************************************************
                            ;*                                           FUNCTION                                           *
                            ;************************************************************************************************
                            ;undefined FUN_00000c2c()
                                                          ;XREF[2,0]:   000012c4,000015f4
ram:00000c2c    f0412de9        stmdb       sp!,{r4 r5 r6 r7 r8 lr}                 
ram:00000c30    0040a0e1        mov         r4,r0                                   
ram:00000c34    0050a0e3        mov         r5,#0x0                                 
ram:00000c38    0060a0e3        mov         r6,#0x0                                 
ram:00000c3c    0070a0e3        mov         r7,#0x0                                 
ram:00000c40    a80a9fe5        ldr         r0,[DAT_000016f0]                       ;= 01C01000h
ram:00000c44    0010a0e3        mov         r1,#0x0                                 
ram:00000c48    a9ffffeb        bl          FUN_00000af4                            ;undefined FUN_00000af4()
ram:00000c4c    0060a0e1        mov         r6,r0                                   
ram:00000c50    1e6e06e2        and         r6,r6,#0x1e0                            
ram:00000c54    a662a0e1        mov         r6,r6, lsr #0x5                         
ram:00000c58    0c0056e3        cmp         r6,#0xc                                 
ram:00000c5c    1100001a        bne         LAB_00000ca8                            
ram:00000c60    8c0a9fe5        ldr         r0,[DAT_000016f4]                       ;= 000F4240h
ram:00000c64    000054e1        cmp         r4,r0                                   
ram:00000c68    0a00003a        bcc         LAB_00000c98                            
ram:00000c6c    a40184e0        add         r0,r4,r4, lsr #0x3                      
ram:00000c70    240280e0        add         r0,r0,r4, lsr #0x4                      
ram:00000c74    a47280e0        add         r7,r0,r4, lsr #0x5                      
ram:00000c78    020000ea        b           LAB_00000c88                            
                            LAB_00000c7c:                 ;XREF[1,0]:   00000c90
ram:00000c7c    740a9fe5        ldr         r0,[DAT_000016f8]                       ;= 0002625Ah
ram:00000c80    007047e0        sub         r7,r7,r0                                
ram:00000c84    015085e2        add         r5,r5,#0x1                              
                            LAB_00000c88:                 ;XREF[1,0]:   00000c78
ram:00000c88    680a9fe5        ldr         r0,[DAT_000016f8]                       ;= 0002625Ah
ram:00000c8c    000057e1        cmp         r7,r0                                   
ram:00000c90    f9ffff2a        bcs         LAB_00000c7c                            
ram:00000c94    160000ea        b           LAB_00000cf4                            
                            LAB_00000c98:                 ;XREF[1,0]:   00000c68
ram:00000c98    5c0a9fe5        ldr         r0,[DAT_000016fc]                       ;= 000001F3h
ram:00000c9c    940000e0        mul         r0,r4,r0                                
ram:00000ca0    2053a0e1        mov         r5,r0, lsr #0x6                         
ram:00000ca4    120000ea        b           LAB_00000cf4                            
                            LAB_00000ca8:                 ;XREF[1,0]:   00000c5c
ram:00000ca8    0b0056e3        cmp         r6,#0xb                                 
ram:00000cac    1000001a        bne         LAB_00000cf4                            
ram:00000cb0    3c0a9fe5        ldr         r0,[DAT_000016f4]                       ;= 000F4240h
ram:00000cb4    000054e1        cmp         r4,r0                                   
ram:00000cb8    0a00003a        bcc         LAB_00000ce8                            
ram:00000cbc    a40184e0        add         r0,r4,r4, lsr #0x3                      
ram:00000cc0    240280e0        add         r0,r0,r4, lsr #0x4                      
ram:00000cc4    a47280e0        add         r7,r0,r4, lsr #0x5                      
ram:00000cc8    020000ea        b           LAB_00000cd8                            
                            LAB_00000ccc:                 ;XREF[1,0]:   00000ce0
ram:00000ccc    2c0a9fe5        ldr         r0,[DAT_00001700]                       ;= FFFECED3h
ram:00000cd0    007087e0        add         r7,r7,r0                                
ram:00000cd4    015085e2        add         r5,r5,#0x1                              
                            LAB_00000cd8:                 ;XREF[1,0]:   00000cc8
ram:00000cd8    240a9fe5        ldr         r0,[DAT_00001704]                       ;= 0001312Dh
ram:00000cdc    000057e1        cmp         r7,r0                                   
ram:00000ce0    f9ffff2a        bcs         LAB_00000ccc                            
ram:00000ce4    020000ea        b           LAB_00000cf4                            
                            LAB_00000ce8:                 ;XREF[1,0]:   00000cb8
ram:00000ce8    0c0a9fe5        ldr         r0,[DAT_000016fc]                       ;= 000001F3h
ram:00000cec    940000e0        mul         r0,r4,r0                                
ram:00000cf0    a052a0e1        mov         r5,r0, lsr #0x5                         
                            LAB_00000cf4:                 ;XREF[4,0]:   00000c94,00000ca4,00000cac,00000ce4
ram:00000cf4    0520a0e1        mov         r2,r5                                   
ram:00000cf8    080a9fe5        ldr         r0,[DAT_00001708]                       ;= 01C01010h
ram:00000cfc    0010a0e3        mov         r1,#0x0                                 
ram:00000d00    87ffffeb        bl          FUN_00000b24                            ;undefined FUN_00000b24()
ram:00000d04    f081bde8        ldmia       sp!,{r4 r5 r6 r7 r8 pc}                 
                            ;************************************************************************************************
                            ;*                                           FUNCTION                                           *
                            ;************************************************************************************************
                            ;undefined FUN_00000d08()
                                                          ;XREF[4,0]:   00001178,00001200,000012d4,000015ac
ram:00000d08    70402de9        stmdb       sp!,{r4 r5 r6 lr}                       
ram:00000d0c    0040a0e1        mov         r4,r0                                   
ram:00000d10    0050a0e3        mov         r5,#0x0                                 
ram:00000d14    140094e5        ldr         r0,[r4,#0x14]                           
ram:00000d18    020080e3        orr         r0,r0,#0x2                              
ram:00000d1c    281094e5        ldr         r1,[r4,#0x28]                           
ram:00000d20    2111a0e1        mov         r1,r1, lsr #0x2                         
ram:00000d24    810180e1        orr         r0,r0,r1, lsl #0x3                      
ram:00000d28    101094e5        ldr         r1,[r4,#0x10]                           
ram:00000d2c    a110a0e1        mov         r1,r1, lsr #0x1                         
ram:00000d30    010280e1        orr         r0,r0,r1, lsl #0x4                      
ram:00000d34    241094e5        ldr         r1,[r4,#0x24]                           
ram:00000d38    011041e2        sub         r1,r1,#0x1                              
ram:00000d3c    810280e1        orr         r0,r0,r1, lsl #0x5                      
ram:00000d40    201094e5        ldr         r1,[r4,#0x20]                           
ram:00000d44    011041e2        sub         r1,r1,#0x1                              
ram:00000d48    811480e1        orr         r1,r0,r1, lsl #0x9                      
ram:00000d4c    1800d4e5        ldrb        r0,[r4,#0x18]                           
ram:00000d50    000050e3        cmp         r0,#0x0                                 
ram:00000d54    0200000a        beq         LAB_00000d64                            
ram:00000d58    1c0094e5        ldr         r0,[r4,#0x1c]                           
ram:00000d5c    2002a0e1        mov         r0,r0, lsr #0x4                         
ram:00000d60    010000ea        b           LAB_00000d6c                            
                            LAB_00000d64:                 ;XREF[1,0]:   00000d54
ram:00000d64    1c0094e5        ldr         r0,[r4,#0x1c]                           
ram:00000d68    a002a0e1        mov         r0,r0, lsr #0x5                         
                            LAB_00000d6c:                 ;XREF[1,0]:   00000d60
ram:00000d6c    800681e1        orr         r0,r1,r0, lsl #0xd                      
ram:00000d70    0c1094e5        ldr         r1,[r4,#0xc]                            
ram:00000d74    810780e1        orr         r0,r0,r1, lsl #0xf                      
ram:00000d78    1810d4e5        ldrb        r1,[r4,#0x18]                           
ram:00000d7c    015880e1        orr         r5,r0,r1, lsl #0x10                     
ram:00000d80    0520a0e1        mov         r2,r5                                   
ram:00000d84    64099fe5        ldr         r0,[DAT_000016f0]                       ;= 01C01000h
ram:00000d88    0010a0e3        mov         r1,#0x0                                 
ram:00000d8c    64ffffeb        bl          FUN_00000b24                            ;undefined FUN_00000b24()
ram:00000d90    50099fe5        ldr         r0,[DAT_000016e8]                       ;= 01C0100Ch
ram:00000d94    0010a0e3        mov         r1,#0x0                                 
ram:00000d98    55ffffeb        bl          FUN_00000af4                            ;undefined FUN_00000af4()
ram:00000d9c    026780e3        orr         r6,r0,#0x80000                          
ram:00000da0    0620a0e1        mov         r2,r6                                   
ram:00000da4    3c099fe5        ldr         r0,[DAT_000016e8]                       ;= 01C0100Ch
ram:00000da8    0010a0e3        mov         r1,#0x0                                 
ram:00000dac    5cffffeb        bl          FUN_00000b24                            ;undefined FUN_00000b24()
ram:00000db0    69ffffeb        bl          FUN_00000b5c                            ;undefined FUN_00000b5c()
ram:00000db4    7080bde8        ldmia       sp!,{r4 r5 r6 pc}                       
                            ;************************************************************************************************
                            ;*                                           FUNCTION                                           *
                            ;************************************************************************************************
                            ;undefined FUN_00000db8()
                                                          ;XREF[1,0]:   00001094
ram:00000db8    f0472de9        stmdb       sp!,{r4 r5 r6 r7 r8 r9 r10 lr}          
ram:00000dbc    0050a0e1        mov         r5,r0                                   
ram:00000dc0    0070a0e3        mov         r7,#0x0                                 
ram:00000dc4    0080a0e3        mov         r8,#0x0                                 
ram:00000dc8    100055e3        cmp         r5,#0x10                                
ram:00000dcc    0100001a        bne         LAB_00000dd8                            
ram:00000dd0    0400a0e3        mov         r0,#0x4                                 
ram:00000dd4    000000ea        b           LAB_00000ddc                            
                            LAB_00000dd8:                 ;XREF[1,0]:   00000dcc
ram:00000dd8    0200a0e3        mov         r0,#0x2                                 
                            LAB_00000ddc:                 ;XREF[1,0]:   00000dd4
ram:00000ddc    0090a0e1        mov         r9,r0                                   
ram:00000de0    0040a0e3        mov         r4,#0x0                                 
ram:00000de4    250000ea        b           LAB_00000e80                            
                            LAB_00000de8:                 ;XREF[1,0]:   00000e84
ram:00000de8    000054e3        cmp         r4,#0x0                                 
ram:00000dec    0400001a        bne         LAB_00000e04                            
ram:00000df0    14099fe5        ldr         r0,[DAT_0000170c]                       ;= 01C01030h
ram:00000df4    0010a0e3        mov         r1,#0x0                                 
ram:00000df8    3dffffeb        bl          FUN_00000af4                            ;undefined FUN_00000af4()
ram:00000dfc    0080a0e1        mov         r8,r0                                   
ram:00000e00    130000ea        b           LAB_00000e54                            
                            LAB_00000e04:                 ;XREF[1,0]:   00000dec
ram:00000e04    010054e3        cmp         r4,#0x1                                 
ram:00000e08    0400001a        bne         LAB_00000e20                            
ram:00000e0c    fc089fe5        ldr         r0,[DAT_00001710]                       ;= 01C01034h
ram:00000e10    0010a0e3        mov         r1,#0x0                                 
ram:00000e14    36ffffeb        bl          FUN_00000af4                            ;undefined FUN_00000af4()
ram:00000e18    0080a0e1        mov         r8,r0                                   
ram:00000e1c    0c0000ea        b           LAB_00000e54                            
                            LAB_00000e20:                 ;XREF[1,0]:   00000e08
ram:00000e20    020054e3        cmp         r4,#0x2                                 
ram:00000e24    0400001a        bne         LAB_00000e3c                            
ram:00000e28    e4089fe5        ldr         r0,[DAT_00001714]                       ;= 01C01038h
ram:00000e2c    0010a0e3        mov         r1,#0x0                                 
ram:00000e30    2fffffeb        bl          FUN_00000af4                            ;undefined FUN_00000af4()
ram:00000e34    0080a0e1        mov         r8,r0                                   
ram:00000e38    050000ea        b           LAB_00000e54                            
                            LAB_00000e3c:                 ;XREF[1,0]:   00000e24
ram:00000e3c    030054e3        cmp         r4,#0x3                                 
ram:00000e40    0300001a        bne         LAB_00000e54                            
ram:00000e44    cc089fe5        ldr         r0,[DAT_00001718]                       ;= 01C0103Ch
ram:00000e48    0010a0e3        mov         r1,#0x0                                 
ram:00000e4c    28ffffeb        bl          FUN_00000af4                            ;undefined FUN_00000af4()
ram:00000e50    0080a0e1        mov         r8,r0                                   
                            LAB_00000e54:                 ;XREF[4,0]:   00000e00,00000e1c,00000e38,00000e40
ram:00000e54    0060a0e3        mov         r6,#0x0                                 
ram:00000e58    050000ea        b           LAB_00000e74                            
                            LAB_00000e5c:                 ;XREF[1,0]:   00000e78
ram:00000e5c    010008e2        and         r0,r8,#0x1                              
ram:00000e60    000050e3        cmp         r0,#0x0                                 
ram:00000e64    0000000a        beq         LAB_00000e6c                            
ram:00000e68    017087e2        add         r7,r7,#0x1                              
                            LAB_00000e6c:                 ;XREF[1,0]:   00000e64
ram:00000e6c    a880a0e1        mov         r8,r8, lsr #0x1                         
ram:00000e70    016086e2        add         r6,r6,#0x1                              
                            LAB_00000e74:                 ;XREF[1,0]:   00000e58
ram:00000e74    200056e3        cmp         r6,#0x20                                
ram:00000e78    f7ffff3a        bcc         LAB_00000e5c                            
ram:00000e7c    014084e2        add         r4,r4,#0x1                              
                            LAB_00000e80:                 ;XREF[1,0]:   00000de4
ram:00000e80    090054e1        cmp         r4,r9                                   
ram:00000e84    d7ffff3a        bcc         LAB_00000de8                            
ram:00000e88    0700a0e1        mov         r0,r7                                   
ram:00000e8c    f087bde8        ldmia       sp!,{r4 r5 r6 r7 r8 r9 r10 pc}          
                            ;************************************************************************************************
                            ;*                                           FUNCTION                                           *
                            ;************************************************************************************************
                            ;undefined FUN_00000e90()
                                                          ;XREF[1,0]:   00000f3c
ram:00000e90    10402de9        stmdb       sp!,{r4 lr}                             
ram:00000e94    0040a0e3        mov         r4,#0x0                                 
ram:00000e98    0000a0e1        mov         r0,r0                                   
ram:00000e9c    060000ea        b           LAB_00000ebc                            
                            LAB_00000ea0:                 ;XREF[1,0]:   00000ec0
ram:00000ea0    0401a0e1        mov         r0,r4, lsl #0x2                         
ram:00000ea4    023180e2        add         r3,r0,#0x80000000                       
ram:00000ea8    0420a0e1        mov         r2,r4                                   
ram:00000eac    0300a0e1        mov         r0,r3                                   
ram:00000eb0    0010a0e3        mov         r1,#0x0                                 
ram:00000eb4    1affffeb        bl          FUN_00000b24                            ;undefined FUN_00000b24()
ram:00000eb8    014084e2        add         r4,r4,#0x1                              
                            LAB_00000ebc:                 ;XREF[1,0]:   00000e9c
ram:00000ebc    200054e3        cmp         r4,#0x20                                
ram:00000ec0    f6ffff3a        bcc         LAB_00000ea0                            
ram:00000ec4    0040a0e3        mov         r4,#0x0                                 
ram:00000ec8    090000ea        b           LAB_00000ef4                            
                            LAB_00000ecc:                 ;XREF[1,0]:   00000ef8
ram:00000ecc    0401a0e1        mov         r0,r4, lsl #0x2                         
ram:00000ed0    022180e2        add         r2,r0,#0x80000000                       
ram:00000ed4    0200a0e1        mov         r0,r2                                   
ram:00000ed8    0010a0e3        mov         r1,#0x0                                 
ram:00000edc    04ffffeb        bl          FUN_00000af4                            ;undefined FUN_00000af4()
ram:00000ee0    040050e1        cmp         r0,r4                                   
ram:00000ee4    0100000a        beq         LAB_00000ef0                            
ram:00000ee8    0000a0e3        mov         r0,#0x0                                 
                            LAB_00000eec:                 ;XREF[1,0]:   00000f00
ram:00000eec    1080bde8        ldmia       sp!,{r4 pc}                             
                            LAB_00000ef0:                 ;XREF[1,0]:   00000ee4
ram:00000ef0    014084e2        add         r4,r4,#0x1                              
                            LAB_00000ef4:                 ;XREF[1,0]:   00000ec8
ram:00000ef4    200054e3        cmp         r4,#0x20                                
ram:00000ef8    f3ffff3a        bcc         LAB_00000ecc                            
ram:00000efc    0100a0e3        mov         r0,#0x1                                 
ram:00000f00    f9ffffea        b           LAB_00000eec                            
                            ;************************************************************************************************
                            ;*                                           FUNCTION                                           *
                            ;************************************************************************************************
                            ;undefined FUN_00000f04()
                                                          ;XREF[1,0]:   00001114
ram:00000f04    70402de9        stmdb       sp!,{r4 r5 r6 lr}                       
ram:00000f08    0050a0e3        mov         r5,#0x0                                 
ram:00000f0c    0040a0e3        mov         r4,#0x0                                 
ram:00000f10    0000a0e1        mov         r0,r0                                   
ram:00000f14    0f0000ea        b           LAB_00000f58                            
                            LAB_00000f18:                 ;XREF[1,0]:   00000f5c
ram:00000f18    c8079fe5        ldr         r0,[DAT_000016e8]                       ;= 01C0100Ch
ram:00000f1c    0010a0e3        mov         r1,#0x0                                 
ram:00000f20    f3feffeb        bl          FUN_00000af4                            ;undefined FUN_00000af4()
ram:00000f24    070dc0e3        bic         r0,r0,#0x1c0                            
ram:00000f28    046380e1        orr         r6,r0,r4, lsl #0x6                      
ram:00000f2c    0620a0e1        mov         r2,r6                                   
ram:00000f30    b0079fe5        ldr         r0,[DAT_000016e8]                       ;= 01C0100Ch
ram:00000f34    0010a0e3        mov         r1,#0x0                                 
ram:00000f38    f9feffeb        bl          FUN_00000b24                            ;undefined FUN_00000b24()
ram:00000f3c    d3ffffeb        bl          FUN_00000e90                            ;undefined FUN_00000e90()
ram:00000f40    000050e3        cmp         r0,#0x0                                 
ram:00000f44    0200000a        beq         LAB_00000f54                            
ram:00000f48    0450a0e1        mov         r5,r4                                   
ram:00000f4c    0500a0e1        mov         r0,r5                                   
                            LAB_00000f50:                 ;XREF[1,0]:   00000f64
ram:00000f50    7080bde8        ldmia       sp!,{r4 r5 r6 pc}                       
                            LAB_00000f54:                 ;XREF[1,0]:   00000f44
ram:00000f54    014084e2        add         r4,r4,#0x1                              
                            LAB_00000f58:                 ;XREF[1,0]:   00000f14
ram:00000f58    080054e3        cmp         r4,#0x8                                 
ram:00000f5c    edffff3a        bcc         LAB_00000f18                            
ram:00000f60    0500a0e1        mov         r0,r5                                   
ram:00000f64    f9ffffea        b           LAB_00000f50                            
                            ;************************************************************************************************
                            ;*                                           FUNCTION                                           *
                            ;************************************************************************************************
                            ;undefined FUN_00000f68()
                                                          ;XREF[1,0]:   000015b4
ram:00000f68    f0412de9        stmdb       sp!,{r4 r5 r6 r7 r8 lr}                 
ram:00000f6c    0040a0e1        mov         r4,r0                                   
ram:00000f70    0050a0e3        mov         r5,#0x0                                 
ram:00000f74    0070a0e3        mov         r7,#0x0                                 
ram:00000f78    0060a0e3        mov         r6,#0x0                                 
ram:00000f7c    120000ea        b           LAB_00000fcc                            
                            LAB_00000f80:                 ;XREF[1,0]:   00000fd0
ram:00000f80    60079fe5        ldr         r0,[DAT_000016e8]                       ;= 01C0100Ch
ram:00000f84    0010a0e3        mov         r1,#0x0                                 
ram:00000f88    d9feffeb        bl          FUN_00000af4                            ;undefined FUN_00000af4()
ram:00000f8c    0050a0e1        mov         r5,r0                                   
ram:00000f90    075dc5e3        bic         r5,r5,#0x1c0                            
ram:00000f94    065385e1        orr         r5,r5,r6, lsl #0x6                      
ram:00000f98    0520a0e1        mov         r2,r5                                   
ram:00000f9c    44079fe5        ldr         r0,[DAT_000016e8]                       ;= 01C0100Ch
ram:00000fa0    0010a0e3        mov         r1,#0x0                                 
ram:00000fa4    defeffeb        bl          FUN_00000b24                            ;undefined FUN_00000b24()
ram:00000fa8    05ffffeb        bl          FUN_00000bc4                            ;undefined FUN_00000bc4()
ram:00000fac    38079fe5        ldr         r0,[DAT_000016ec]                       ;= 01C01024h
ram:00000fb0    0010a0e3        mov         r1,#0x0                                 
ram:00000fb4    cefeffeb        bl          FUN_00000af4                            ;undefined FUN_00000af4()
ram:00000fb8    300000e2        and         r0,r0,#0x30                             
ram:00000fbc    000050e3        cmp         r0,#0x0                                 
ram:00000fc0    0000000a        beq         LAB_00000fc8                            
ram:00000fc4    017087e2        add         r7,r7,#0x1                              
                            LAB_00000fc8:                 ;XREF[1,0]:   00000fc0
ram:00000fc8    016086e2        add         r6,r6,#0x1                              
                            LAB_00000fcc:                 ;XREF[1,0]:   00000f7c
ram:00000fcc    080056e3        cmp         r6,#0x8                                 
ram:00000fd0    eaffff3a        bcc         LAB_00000f80                            
ram:00000fd4    080057e3        cmp         r7,#0x8                                 
ram:00000fd8    0200001a        bne         LAB_00000fe8                            
ram:00000fdc    0000a0e3        mov         r0,#0x0                                 
ram:00000fe0    1800c4e5        strb        r0,[r4,#0x18]                           
                            LAB_00000fe4:                 ;XREF[1,0]:   00000ff4
ram:00000fe4    f081bde8        ldmia       sp!,{r4 r5 r6 r7 r8 pc}                 
                            LAB_00000fe8:                 ;XREF[1,0]:   00000fd8
ram:00000fe8    0100a0e3        mov         r0,#0x1                                 
ram:00000fec    1800c4e5        strb        r0,[r4,#0x18]                           
ram:00000ff0    0000a0e1        mov         r0,r0                                   
ram:00000ff4    faffffea        b           LAB_00000fe4                            
                            ;************************************************************************************************
                            ;*                                           FUNCTION                                           *
                            ;************************************************************************************************
                            ;undefined FUN_00000ff8()
          ;local_38      undefined4         -38                      ;XREF[4,0]:   00001054,00001098,0000109c,000010a8
                                                          ;XREF[2,0]:   00001180,000015fc
ram:00000ff8    f0412de9        stmdb       sp!,{r4 r5 r6 r7 r8 lr}                 
ram:00000ffc    20d04de2        sub         sp,sp,#0x20                             
ram:00001000    0060a0e1        mov         r6,r0                                   
ram:00001004    0070a0e3        mov         r7,#0x0                                 
ram:00001008    0080a0e3        mov         r8,#0x0                                 
ram:0000100c    0050a0e3        mov         r5,#0x0                                 
ram:00001010    1800d6e5        ldrb        r0,[r6,#0x18]                           
ram:00001014    010050e3        cmp         r0,#0x1                                 
ram:00001018    3300001a        bne         LAB_000010ec                            
ram:0000101c    0040a0e3        mov         r4,#0x0                                 
ram:00001020    230000ea        b           LAB_000010b4                            
                            LAB_00001024:                 ;XREF[1,0]:   000010b8
ram:00001024    bc069fe5        ldr         r0,[DAT_000016e8]                       ;= 01C0100Ch
ram:00001028    0010a0e3        mov         r1,#0x0                                 
ram:0000102c    b0feffeb        bl          FUN_00000af4                            ;undefined FUN_00000af4()
ram:00001030    0050a0e1        mov         r5,r0                                   
ram:00001034    075dc5e3        bic         r5,r5,#0x1c0                            
ram:00001038    045385e1        orr         r5,r5,r4, lsl #0x6                      
ram:0000103c    0520a0e1        mov         r2,r5                                   
ram:00001040    a0069fe5        ldr         r0,[DAT_000016e8]                       ;= 01C0100Ch
ram:00001044    0010a0e3        mov         r1,#0x0                                 
ram:00001048    b5feffeb        bl          FUN_00000b24                            ;undefined FUN_00000b24()
ram:0000104c    dcfeffeb        bl          FUN_00000bc4                            ;undefined FUN_00000bc4()
ram:00001050    0000a0e3        mov         r0,#0x0                                 
ram:00001054    04018de7        str         r0,[sp,r4,lsl #0x2]=>local_38           
ram:00001058    8c069fe5        ldr         r0,[DAT_000016ec]                       ;= 01C01024h
ram:0000105c    0010a0e3        mov         r1,#0x0                                 
ram:00001060    a3feffeb        bl          FUN_00000af4                            ;undefined FUN_00000af4()
ram:00001064    0310a0e3        mov         r1,#0x3                                 
ram:00001068    200201e0        and         r0,r1,r0, lsr #0x4                      
ram:0000106c    000050e3        cmp         r0,#0x0                                 
ram:00001070    0900001a        bne         LAB_0000109c                            
ram:00001074    70069fe5        ldr         r0,[DAT_000016ec]                       ;= 01C01024h
ram:00001078    0010a0e3        mov         r1,#0x0                                 
ram:0000107c    9cfeffeb        bl          FUN_00000af4                            ;undefined FUN_00000af4()
ram:00001080    0110a0e3        mov         r1,#0x1                                 
ram:00001084    200201e0        and         r0,r1,r0, lsr #0x4                      
ram:00001088    000050e3        cmp         r0,#0x0                                 
ram:0000108c    0200001a        bne         LAB_0000109c                            
ram:00001090    1c0096e5        ldr         r0,[r6,#0x1c]                           
ram:00001094    47ffffeb        bl          FUN_00000db8                            ;undefined FUN_00000db8()
ram:00001098    04018de7        str         r0,[sp,r4,lsl #0x2]=>local_38           
                            LAB_0000109c:                 ;XREF[2,0]:   00001070,0000108c
ram:0000109c    04019de7        ldr         r0,[sp,r4,lsl #0x2]=>local_38           
ram:000010a0    080050e1        cmp         r0,r8                                   
ram:000010a4    0100009a        bls         LAB_000010b0                            
ram:000010a8    04819de7        ldr         r8,[sp,r4,lsl #0x2]=>local_38           
ram:000010ac    0470a0e1        mov         r7,r4                                   
                            LAB_000010b0:                 ;XREF[1,0]:   000010a4
ram:000010b0    014084e2        add         r4,r4,#0x1                              
                            LAB_000010b4:                 ;XREF[1,0]:   00001020
ram:000010b4    080054e3        cmp         r4,#0x8                                 
ram:000010b8    d9ffff3a        bcc         LAB_00001024                            
ram:000010bc    24069fe5        ldr         r0,[DAT_000016e8]                       ;= 01C0100Ch
ram:000010c0    0010a0e3        mov         r1,#0x0                                 
ram:000010c4    8afeffeb        bl          FUN_00000af4                            ;undefined FUN_00000af4()
ram:000010c8    0050a0e1        mov         r5,r0                                   
ram:000010cc    075dc5e3        bic         r5,r5,#0x1c0                            
ram:000010d0    075385e1        orr         r5,r5,r7, lsl #0x6                      
ram:000010d4    0520a0e1        mov         r2,r5                                   
ram:000010d8    08069fe5        ldr         r0,[DAT_000016e8]                       ;= 01C0100Ch
ram:000010dc    0010a0e3        mov         r1,#0x0                                 
ram:000010e0    8ffeffeb        bl          FUN_00000b24                            ;undefined FUN_00000b24()
ram:000010e4    b6feffeb        bl          FUN_00000bc4                            ;undefined FUN_00000bc4()
ram:000010e8    150000ea        b           LAB_00001144                            
                            LAB_000010ec:                 ;XREF[1,0]:   00001018
ram:000010ec    fc059fe5        ldr         r0,[DAT_000016f0]                       ;= 01C01000h
ram:000010f0    0010a0e3        mov         r1,#0x0                                 
ram:000010f4    7efeffeb        bl          FUN_00000af4                            ;undefined FUN_00000af4()
ram:000010f8    0050a0e1        mov         r5,r0                                   
ram:000010fc    0158c5e3        bic         r5,r5,#0x10000                          
ram:00001100    065ac5e3        bic         r5,r5,#0x6000                           
ram:00001104    0520a0e1        mov         r2,r5                                   
ram:00001108    e0059fe5        ldr         r0,[DAT_000016f0]                       ;= 01C01000h
ram:0000110c    0010a0e3        mov         r1,#0x0                                 
ram:00001110    83feffeb        bl          FUN_00000b24                            ;undefined FUN_00000b24()
ram:00001114    7affffeb        bl          FUN_00000f04                            ;undefined FUN_00000f04()
ram:00001118    0070a0e1        mov         r7,r0                                   
ram:0000111c    c4059fe5        ldr         r0,[DAT_000016e8]                       ;= 01C0100Ch
ram:00001120    0010a0e3        mov         r1,#0x0                                 
ram:00001124    72feffeb        bl          FUN_00000af4                            ;undefined FUN_00000af4()
ram:00001128    0050a0e1        mov         r5,r0                                   
ram:0000112c    075dc5e3        bic         r5,r5,#0x1c0                            
ram:00001130    075385e1        orr         r5,r5,r7, lsl #0x6                      
ram:00001134    0520a0e1        mov         r2,r5                                   
ram:00001138    a8059fe5        ldr         r0,[DAT_000016e8]                       ;= 01C0100Ch
ram:0000113c    0010a0e3        mov         r1,#0x0                                 
ram:00001140    77feffeb        bl          FUN_00000b24                            ;undefined FUN_00000b24()
                            LAB_00001144:                 ;XREF[1,0]:   000010e8
ram:00001144    0000a0e3        mov         r0,#0x0                                 
ram:00001148    20d08de2        add         sp,sp,#0x20                             
ram:0000114c    f081bde8        ldmia       sp!,{r4 r5 r6 r7 r8 pc}                 
                            ;************************************************************************************************
                            ;*                                           FUNCTION                                           *
                            ;************************************************************************************************
                            ;undefined FUN_00001150()
                                                          ;XREF[1,0]:   00001604
ram:00001150    f05f2de9        stmdb       sp!,{r4 r5 r6 r7 r8 r9 r10 r11 r12 lr}  
ram:00001154    0040a0e1        mov         r4,r0                                   
ram:00001158    0a60a0e3        mov         r6,#0xa                                 
ram:0000115c    0d90a0e3        mov         r9,#0xd                                 
ram:00001160    0050a0e3        mov         r5,#0x0                                 
ram:00001164    00b0a0e3        mov         r11,#0x0                                
ram:00001168    0070a0e3        mov         r7,#0x0                                 
ram:0000116c    206084e5        str         r6,[r4,#0x20]                           
ram:00001170    249084e5        str         r9,[r4,#0x24]                           
ram:00001174    0400a0e1        mov         r0,r4                                   
ram:00001178    e2feffeb        bl          FUN_00000d08                            ;undefined FUN_00000d08()
ram:0000117c    0400a0e1        mov         r0,r4                                   
ram:00001180    9cffffeb        bl          FUN_00000ff8                            ;undefined FUN_00000ff8()
ram:00001184    0000a0e1        mov         r0,r0                                   
ram:00001188    060000ea        b           LAB_000011a8                            
                            LAB_0000118c:                 ;XREF[1,0]:   000011ac
ram:0000118c    88059fe5        ldr         r0,[DAT_0000171c]                       ;= 11111111h
ram:00001190    021185e2        add         r1,r5,#0x80000000                       
ram:00001194    000281e5        str         r0,[r1,#offset DAT_80000200 &0xffff]    
ram:00001198    8000a0e1        mov         r0,r0, lsl #0x1                         
ram:0000119c    021185e2        add         r1,r5,#0x80000000                       
ram:000011a0    000681e5        str         r0,[r1,#offset DAT_80000600 &0xffff]    
ram:000011a4    015085e2        add         r5,r5,#0x1                              
                            LAB_000011a8:                 ;XREF[1,0]:   00001188
ram:000011a8    200055e3        cmp         r5,#0x20                                
ram:000011ac    f6ffff3a        bcc         LAB_0000118c                            
ram:000011b0    0050a0e3        mov         r5,#0x0                                 
ram:000011b4    060000ea        b           LAB_000011d4                            
                            LAB_000011b8:                 ;XREF[1,0]:   000011d8
ram:000011b8    020185e2        add         r0,r5,#0x80000000                       
ram:000011bc    00b290e5        ldr         r11,[r0,#offset DAT_80000200 &0xffff]   
ram:000011c0    58059fe5        ldr         r0,[DAT_00001720]                       ;= 22222222h
ram:000011c4    00005be1        cmp         r11,r0                                  
ram:000011c8    0000001a        bne         LAB_000011d0                            
ram:000011cc    017087e2        add         r7,r7,#0x1                              
                            LAB_000011d0:                 ;XREF[1,0]:   000011c8
ram:000011d0    015085e2        add         r5,r5,#0x1                              
                            LAB_000011d4:                 ;XREF[1,0]:   000011b4
ram:000011d4    200055e3        cmp         r5,#0x20                                
ram:000011d8    f6ffff3a        bcc         LAB_000011b8                            
ram:000011dc    200057e3        cmp         r7,#0x20                                
ram:000011e0    0100001a        bne         LAB_000011ec                            
ram:000011e4    0960a0e3        mov         r6,#0x9                                 
ram:000011e8    000000ea        b           LAB_000011f0                            
                            LAB_000011ec:                 ;XREF[1,0]:   000011e0
ram:000011ec    0a60a0e3        mov         r6,#0xa                                 
                            LAB_000011f0:                 ;XREF[1,0]:   000011e8
ram:000011f0    0070a0e3        mov         r7,#0x0                                 
ram:000011f4    206084e5        str         r6,[r4,#0x20]                           
ram:000011f8    249084e5        str         r9,[r4,#0x24]                           
ram:000011fc    0400a0e1        mov         r0,r4                                   
ram:00001200    c0feffeb        bl          FUN_00000d08                            ;undefined FUN_00000d08()
ram:00001204    0a0056e3        cmp         r6,#0xa                                 
ram:00001208    0200001a        bne         LAB_00001218                            
ram:0000120c    10859fe5        ldr         r8,[DAT_00001724]                       ;= 80400000h
ram:00001210    88a088e1        orr         r10,r8,r8, lsl #0x1                     
ram:00001214    010000ea        b           LAB_00001220                            
                            LAB_00001218:                 ;XREF[1,0]:   00001208
ram:00001218    08859fe5        ldr         r8,[DAT_00001728]                       ;= 80200000h
ram:0000121c    88a088e1        orr         r10,r8,r8, lsl #0x1                     
                            LAB_00001220:                 ;XREF[1,0]:   00001214
ram:00001220    0050a0e3        mov         r5,#0x0                                 
ram:00001224    040000ea        b           LAB_0000123c                            
                            LAB_00001228:                 ;XREF[1,0]:   00001240
ram:00001228    fc049fe5        ldr         r0,[DAT_0000172c]                       ;= 33333333h
ram:0000122c    050088e7        str         r0,[r8,r5]=>DAT_80400000                
ram:00001230    f8049fe5        ldr         r0,[DAT_00001730]                       ;= 44444444h
ram:00001234    05008ae7        str         r0,[r10,r5]=>DAT_80c00000               
ram:00001238    015085e2        add         r5,r5,#0x1                              
                            LAB_0000123c:                 ;XREF[1,0]:   00001224
ram:0000123c    200055e3        cmp         r5,#0x20                                
ram:00001240    f8ffff3a        bcc         LAB_00001228                            
ram:00001244    0050a0e3        mov         r5,#0x0                                 
ram:00001248    050000ea        b           LAB_00001264                            
                            LAB_0000124c:                 ;XREF[1,0]:   00001268
ram:0000124c    05b098e7        ldr         r11,[r8,r5]=>DAT_80400000               
ram:00001250    d8049fe5        ldr         r0,[DAT_00001730]                       ;= 44444444h
ram:00001254    00005be1        cmp         r11,r0                                  
ram:00001258    0000001a        bne         LAB_00001260                            
ram:0000125c    017087e2        add         r7,r7,#0x1                              
                            LAB_00001260:                 ;XREF[1,0]:   00001258
ram:00001260    015085e2        add         r5,r5,#0x1                              
                            LAB_00001264:                 ;XREF[1,0]:   00001248
ram:00001264    200055e3        cmp         r5,#0x20                                
ram:00001268    f7ffff3a        bcc         LAB_0000124c                            
ram:0000126c    200057e3        cmp         r7,#0x20                                
ram:00001270    0100001a        bne         LAB_0000127c                            
ram:00001274    0c90a0e3        mov         r9,#0xc                                 
ram:00001278    000000ea        b           LAB_00001280                            
                            LAB_0000127c:                 ;XREF[1,0]:   00001270
ram:0000127c    0d90a0e3        mov         r9,#0xd                                 
                            LAB_00001280:                 ;XREF[1,0]:   00001278
ram:00001280    206084e5        str         r6,[r4,#0x20]                           
ram:00001284    249084e5        str         r9,[r4,#0x24]                           
ram:00001288    240094e5        ldr         r0,[r4,#0x24]                           
ram:0000128c    0d0050e3        cmp         r0,#0xd                                 
ram:00001290    0200000a        beq         LAB_000012a0                            
ram:00001294    1000a0e3        mov         r0,#0x10                                
ram:00001298    040084e5        str         r0,[r4,#0x4]                            
ram:0000129c    070000ea        b           LAB_000012c0                            
                            LAB_000012a0:                 ;XREF[1,0]:   00001290
ram:000012a0    200094e5        ldr         r0,[r4,#0x20]                           
ram:000012a4    0a0050e3        cmp         r0,#0xa                                 
ram:000012a8    0200001a        bne         LAB_000012b8                            
ram:000012ac    4000a0e3        mov         r0,#0x40                                
ram:000012b0    040084e5        str         r0,[r4,#0x4]                            
ram:000012b4    010000ea        b           LAB_000012c0                            
                            LAB_000012b8:                 ;XREF[1,0]:   000012a8
ram:000012b8    2000a0e3        mov         r0,#0x20                                
ram:000012bc    040084e5        str         r0,[r4,#0x4]                            
                            LAB_000012c0:                 ;XREF[2,0]:   0000129c,000012b4
ram:000012c0    080094e5        ldr         r0,[r4,#0x8]                            
ram:000012c4    58feffeb        bl          FUN_00000c2c                            ;undefined FUN_00000c2c()
ram:000012c8    0000a0e3        mov         r0,#0x0                                 
ram:000012cc    0c0084e5        str         r0,[r4,#0xc]                            
ram:000012d0    0400a0e1        mov         r0,r4                                   
ram:000012d4    8bfeffeb        bl          FUN_00000d08                            ;undefined FUN_00000d08()
ram:000012d8    0000a0e3        mov         r0,#0x0                                 
ram:000012dc    f09fbde8        ldmia       sp!,{r4 r5 r6 r7 r8 r9 r10 r11 r12 pc}  
                            ;************************************************************************************************
                            ;*                                           FUNCTION                                           *
                            ;************************************************************************************************
                            ;undefined FUN_000012e0()
                                                          ;XREF[1,0]:   000016dc
ram:000012e0    f0412de9        stmdb       sp!,{r4 r5 r6 r7 r8 lr}                 
ram:000012e4    0040a0e1        mov         r4,r0                                   
ram:000012e8    0060a0e3        mov         r6,#0x0                                 
ram:000012ec    40049fe5        ldr         r0,[DAT_00001734]                       ;= 01C20824h
ram:000012f0    0010a0e3        mov         r1,#0x0                                 
ram:000012f4    fefdffeb        bl          FUN_00000af4                            ;undefined FUN_00000af4()
ram:000012f8    077a80e3        orr         r7,r0,#0x7000                           
ram:000012fc    0720a0e1        mov         r2,r7                                   
ram:00001300    2c049fe5        ldr         r0,[DAT_00001734]                       ;= 01C20824h
ram:00001304    0010a0e3        mov         r1,#0x0                                 
ram:00001308    05feffeb        bl          FUN_00000b24                            ;undefined FUN_00000b24()
ram:0000130c    0500a0e3        mov         r0,#0x5                                 
ram:00001310    07feffeb        bl          FUN_00000b34                            ;undefined FUN_00000b34()
ram:00001314    0110a0e3        mov         r1,#0x1                                 
ram:00001318    2c0094e5        ldr         r0,[r4,#0x2c]                           
ram:0000131c    a00101e0        and         r0,r1,r0, lsr #0x3                      
ram:00001320    000050e3        cmp         r0,#0x0                                 
ram:00001324    0700000a        beq         LAB_00001348                            
ram:00001328    08049fe5        ldr         r0,[DAT_00001738]                       ;= 01C20AC4h
ram:0000132c    0010a0e3        mov         r1,#0x0                                 
ram:00001330    effdffeb        bl          FUN_00000af4                            ;undefined FUN_00000af4()
ram:00001334    037580e3        orr         r7,r0,#0xc00000                         
ram:00001338    0720a0e1        mov         r2,r7                                   
ram:0000133c    f4039fe5        ldr         r0,[DAT_00001738]                       ;= 01C20AC4h
ram:00001340    0010a0e3        mov         r1,#0x0                                 
ram:00001344    f6fdffeb        bl          FUN_00000b24                            ;undefined FUN_00000b24()
                            LAB_00001348:                 ;XREF[1,0]:   00001324
ram:00001348    080094e5        ldr         r0,[r4,#0x8]                            
ram:0000134c    900050e3        cmp         r0,#0x90                                
ram:00001350    0600003a        bcc         LAB_00001370                            
ram:00001354    080094e5        ldr         r0,[r4,#0x8]                            
ram:00001358    b40050e3        cmp         r0,#0xb4                                
ram:0000135c    0300008a        bhi         LAB_00001370                            
ram:00001360    d4239fe5        ldr         r2=>DAT_00000aa8+2,[DAT_0000173c]       ;= null
                                                                                    ;= 00000AAAh
ram:00001364    d4039fe5        ldr         r0,[DAT_00001740]                       ;= 01C20AC0h
ram:00001368    0010a0e3        mov         r1,#0x0                                 
ram:0000136c    ecfdffeb        bl          FUN_00000b24                            ;undefined FUN_00000b24()
                            LAB_00001370:                 ;XREF[2,0]:   00001350,0000135c
ram:00001370    080094e5        ldr         r0,[r4,#0x8]                            
ram:00001374    b40050e3        cmp         r0,#0xb4                                
ram:00001378    0300003a        bcc         LAB_0000138c                            
ram:0000137c    c0239fe5        ldr         r2,[DAT_00001744]                       ;= 00000FFFh
ram:00001380    b8039fe5        ldr         r0,[DAT_00001740]                       ;= 01C20AC0h
ram:00001384    0010a0e3        mov         r1,#0x0                                 
ram:00001388    e5fdffeb        bl          FUN_00000b24                            ;undefined FUN_00000b24()
                            LAB_0000138c:                 ;XREF[1,0]:   00001378
ram:0000138c    080094e5        ldr         r0,[r4,#0x8]                            
ram:00001390    600050e3        cmp         r0,#0x60                                
ram:00001394    0800008a        bhi         LAB_000013bc                            
ram:00001398    081094e5        ldr         r1,[r4,#0x8]                            
ram:0000139c    8100a0e1        mov         r0,r1, lsl #0x1                         
ram:000013a0    0c10a0e3        mov         r1,#0xc                                 
ram:000013a4    e60600eb        bl          FUN_00002f44                            ;undefined FUN_00002f44()
ram:000013a8    010040e2        sub         r0,r0,#0x1                              
ram:000013ac    0110a0e3        mov         r1,#0x1                                 
ram:000013b0    000481e1        orr         r0,r1,r0, lsl #0x8                      
ram:000013b4    026180e3        orr         r6,r0,#0x80000000                       
ram:000013b8    070000ea        b           LAB_000013dc                            
                            LAB_000013bc:                 ;XREF[1,0]:   00001394
ram:000013bc    081094e5        ldr         r1,[r4,#0x8]                            
ram:000013c0    8100a0e1        mov         r0,r1, lsl #0x1                         
ram:000013c4    1810a0e3        mov         r1,#0x18                                
ram:000013c8    dd0600eb        bl          FUN_00002f44                            ;undefined FUN_00002f44()
ram:000013cc    010040e2        sub         r0,r0,#0x1                              
ram:000013d0    0010a0e3        mov         r1,#0x0                                 
ram:000013d4    000481e1        orr         r0,r1,r0, lsl #0x8                      
ram:000013d8    026180e3        orr         r6,r0,#0x80000000                       
                            LAB_000013dc:                 ;XREF[1,0]:   000013b8
ram:000013dc    2c00d4e5        ldrb        r0,[r4,#0x2c]                           
ram:000013e0    100000e2        and         r0,r0,#0x10                             
ram:000013e4    000050e3        cmp         r0,#0x0                                 
ram:000013e8    0400000a        beq         LAB_00001400                            
ram:000013ec    54239fe5        ldr         r2,[DAT_00001748]                       ;= D1303333h
ram:000013f0    54039fe5        ldr         r0,[DAT_0000174c]                       ;= 01C20290h
ram:000013f4    0010a0e3        mov         r1,#0x0                                 
ram:000013f8    c9fdffeb        bl          FUN_00000b24                            ;undefined FUN_00000b24()
ram:000013fc    190000ea        b           LAB_00001468                            
                            LAB_00001400:                 ;XREF[1,0]:   000013e8
ram:00001400    2c00d4e5        ldrb        r0,[r4,#0x2c]                           
ram:00001404    200000e2        and         r0,r0,#0x20                             
ram:00001408    000050e3        cmp         r0,#0x0                                 
ram:0000140c    0400000a        beq         LAB_00001424                            
ram:00001410    38239fe5        ldr         r2,[DAT_00001750]                       ;= CCE06666h
ram:00001414    30039fe5        ldr         r0,[DAT_0000174c]                       ;= 01C20290h
ram:00001418    0010a0e3        mov         r1,#0x0                                 
ram:0000141c    c0fdffeb        bl          FUN_00000b24                            ;undefined FUN_00000b24()
ram:00001420    100000ea        b           LAB_00001468                            
                            LAB_00001424:                 ;XREF[1,0]:   0000140c
ram:00001424    2c00d4e5        ldrb        r0,[r4,#0x2c]                           
ram:00001428    400000e2        and         r0,r0,#0x40                             
ram:0000142c    000050e3        cmp         r0,#0x0                                 
ram:00001430    0400000a        beq         LAB_00001448                            
ram:00001434    18239fe5        ldr         r2,[DAT_00001754]                       ;= C8909999h
ram:00001438    0c039fe5        ldr         r0,[DAT_0000174c]                       ;= 01C20290h
ram:0000143c    0010a0e3        mov         r1,#0x0                                 
ram:00001440    b7fdffeb        bl          FUN_00000b24                            ;undefined FUN_00000b24()
ram:00001444    070000ea        b           LAB_00001468                            
                            LAB_00001448:                 ;XREF[1,0]:   00001430
ram:00001448    2c00d4e5        ldrb        r0,[r4,#0x2c]                           
ram:0000144c    800000e2        and         r0,r0,#0x80                             
ram:00001450    000050e3        cmp         r0,#0x0                                 
ram:00001454    0300000a        beq         LAB_00001468                            
ram:00001458    f8229fe5        ldr         r2,[DAT_00001758]                       ;= C440CCCCh
ram:0000145c    e8029fe5        ldr         r0,[DAT_0000174c]                       ;= 01C20290h
ram:00001460    0010a0e3        mov         r1,#0x0                                 
ram:00001464    aefdffeb        bl          FUN_00000b24                            ;undefined FUN_00000b24()
                            LAB_00001468:                 ;XREF[4,0]:   000013fc,00001420,00001444,00001454
ram:00001468    2c00d4e5        ldrb        r0,[r4,#0x2c]                           
ram:0000146c    f00000e2        and         r0,r0,#0xf0                             
ram:00001470    000050e3        cmp         r0,#0x0                                 
ram:00001474    0000000a        beq         LAB_0000147c                            
ram:00001478    016486e3        orr         r6,r6,#0x1000000                        
                            LAB_0000147c:                 ;XREF[1,0]:   00001474
ram:0000147c    0620a0e1        mov         r2,r6                                   
ram:00001480    d4029fe5        ldr         r0,[DAT_0000175c]                       ;= 01C20020h
ram:00001484    0010a0e3        mov         r1,#0x0                                 
ram:00001488    a5fdffeb        bl          FUN_00000b24                            ;undefined FUN_00000b24()
ram:0000148c    c8029fe5        ldr         r0,[DAT_0000175c]                       ;= 01C20020h
ram:00001490    0010a0e3        mov         r1,#0x0                                 
ram:00001494    96fdffeb        bl          FUN_00000af4                            ;undefined FUN_00000af4()
ram:00001498    017680e3        orr         r7,r0,#0x100000                         
ram:0000149c    0720a0e1        mov         r2,r7                                   
ram:000014a0    b4029fe5        ldr         r0,[DAT_0000175c]                       ;= 01C20020h
ram:000014a4    0010a0e3        mov         r1,#0x0                                 
ram:000014a8    9dfdffeb        bl          FUN_00000b24                            ;undefined FUN_00000b24()
ram:000014ac    0000a0e1        mov         r0,r0                                   
                            LAB_000014b0:                 ;XREF[1,0]:   000014c4
ram:000014b0    a4029fe5        ldr         r0,[DAT_0000175c]                       ;= 01C20020h
ram:000014b4    0010a0e3        mov         r1,#0x0                                 
ram:000014b8    8dfdffeb        bl          FUN_00000af4                            ;undefined FUN_00000af4()
ram:000014bc    010200e2        and         r0,r0,#0x10000000                       
ram:000014c0    000050e3        cmp         r0,#0x0                                 
ram:000014c4    f9ffff0a        beq         LAB_000014b0                            
ram:000014c8    0500a0e3        mov         r0,#0x5                                 
ram:000014cc    98fdffeb        bl          FUN_00000b34                            ;undefined FUN_00000b34()
ram:000014d0    88029fe5        ldr         r0,[DAT_00001760]                       ;= 01C20060h
ram:000014d4    0010a0e3        mov         r1,#0x0                                 
ram:000014d8    85fdffeb        bl          FUN_00000af4                            ;undefined FUN_00000af4()
ram:000014dc    017980e3        orr         r7,r0,#0x4000                           
ram:000014e0    0720a0e1        mov         r2,r7                                   
ram:000014e4    74029fe5        ldr         r0,[DAT_00001760]                       ;= 01C20060h
ram:000014e8    0010a0e3        mov         r1,#0x0                                 
ram:000014ec    8cfdffeb        bl          FUN_00000b24                            ;undefined FUN_00000b24()
ram:000014f0    6c029fe5        ldr         r0,[DAT_00001764]                       ;= 01C202C0h
ram:000014f4    0010a0e3        mov         r1,#0x0                                 
ram:000014f8    7dfdffeb        bl          FUN_00000af4                            ;undefined FUN_00000af4()
ram:000014fc    0179c0e3        bic         r7,r0,#0x4000                           
ram:00001500    0720a0e1        mov         r2,r7                                   
ram:00001504    58029fe5        ldr         r0,[DAT_00001764]                       ;= 01C202C0h
ram:00001508    0010a0e3        mov         r1,#0x0                                 
ram:0000150c    84fdffeb        bl          FUN_00000b24                            ;undefined FUN_00000b24()
ram:00001510    0050a0e3        mov         r5,#0x0                                 
ram:00001514    010000ea        b           LAB_00001520                            
                            LAB_00001518:                 ;XREF[1,0]:   00001524
ram:00001518    0000a0e1        mov         r0,r0                                   
ram:0000151c    015085e2        add         r5,r5,#0x1                              
                            LAB_00001520:                 ;XREF[1,0]:   00001514
ram:00001520    0a0055e3        cmp         r5,#0xa                                 
ram:00001524    fbffff3a        bcc         LAB_00001518                            
ram:00001528    34029fe5        ldr         r0,[DAT_00001764]                       ;= 01C202C0h
ram:0000152c    0010a0e3        mov         r1,#0x0                                 
ram:00001530    6ffdffeb        bl          FUN_00000af4                            ;undefined FUN_00000af4()
ram:00001534    017980e3        orr         r7,r0,#0x4000                           
ram:00001538    0720a0e1        mov         r2,r7                                   
ram:0000153c    20029fe5        ldr         r0,[DAT_00001764]                       ;= 01C202C0h
ram:00001540    0010a0e3        mov         r1,#0x0                                 
ram:00001544    76fdffeb        bl          FUN_00000b24                            ;undefined FUN_00000b24()
ram:00001548    e8019fe5        ldr         r0,[DAT_00001738]                       ;= 01C20AC4h
ram:0000154c    0010a0e3        mov         r1,#0x0                                 
ram:00001550    67fdffeb        bl          FUN_00000af4                            ;undefined FUN_00000af4()
ram:00001554    0060a0e1        mov         r6,r0                                   
ram:00001558    1800d4e5        ldrb        r0,[r4,#0x18]                           
ram:0000155c    010050e3        cmp         r0,#0x1                                 
ram:00001560    0100001a        bne         LAB_0000156c                            
ram:00001564    016886e3        orr         r6,r6,#0x10000                          
ram:00001568    000000ea        b           LAB_00001570                            
                            LAB_0000156c:                 ;XREF[1,0]:   00001560
ram:0000156c    0168c6e3        bic         r6,r6,#0x10000                          
                            LAB_00001570:                 ;XREF[1,0]:   00001568
ram:00001570    0620a0e1        mov         r2,r6                                   
ram:00001574    bc019fe5        ldr         r0,[DAT_00001738]                       ;= 01C20AC4h
ram:00001578    0010a0e3        mov         r1,#0x0                                 
ram:0000157c    68fdffeb        bl          FUN_00000b24                            ;undefined FUN_00000b24()
ram:00001580    e0619fe5        ldr         r6,[DAT_00001768]                       ;= B7CEEDC2h
ram:00001584    0620a0e1        mov         r2,r6                                   
ram:00001588    dc019fe5        ldr         r0,[DAT_0000176c]                       ;= 01C01004h
ram:0000158c    0010a0e3        mov         r1,#0x0                                 
ram:00001590    63fdffeb        bl          FUN_00000b24                            ;undefined FUN_00000b24()
ram:00001594    d4619fe5        ldr         r6,[DAT_00001770]                       ;= 00A70008h
ram:00001598    0620a0e1        mov         r2,r6                                   
ram:0000159c    d0019fe5        ldr         r0,[DAT_00001774]                       ;= 01C01008h
ram:000015a0    0010a0e3        mov         r1,#0x0                                 
ram:000015a4    5efdffeb        bl          FUN_00000b24                            ;undefined FUN_00000b24()
ram:000015a8    0400a0e1        mov         r0,r4                                   
ram:000015ac    d5fdffeb        bl          FUN_00000d08                            ;undefined FUN_00000d08()
ram:000015b0    0400a0e1        mov         r0,r4                                   
ram:000015b4    6bfeffeb        bl          FUN_00000f68                            ;undefined FUN_00000f68()
ram:000015b8    78019fe5        ldr         r0,[DAT_00001738]                       ;= 01C20AC4h
ram:000015bc    0010a0e3        mov         r1,#0x0                                 
ram:000015c0    4bfdffeb        bl          FUN_00000af4                            ;undefined FUN_00000af4()
ram:000015c4    0060a0e1        mov         r6,r0                                   
ram:000015c8    1800d4e5        ldrb        r0,[r4,#0x18]                           
ram:000015cc    010050e3        cmp         r0,#0x1                                 
ram:000015d0    0100001a        bne         LAB_000015dc                            
ram:000015d4    016886e3        orr         r6,r6,#0x10000                          
ram:000015d8    000000ea        b           LAB_000015e0                            
                            LAB_000015dc:                 ;XREF[1,0]:   000015d0
ram:000015dc    0168c6e3        bic         r6,r6,#0x10000                          
                            LAB_000015e0:                 ;XREF[1,0]:   000015d8
ram:000015e0    0620a0e1        mov         r2,r6                                   
ram:000015e4    4c019fe5        ldr         r0,[DAT_00001738]                       ;= 01C20AC4h
ram:000015e8    0010a0e3        mov         r1,#0x0                                 
ram:000015ec    4cfdffeb        bl          FUN_00000b24                            ;undefined FUN_00000b24()
ram:000015f0    080094e5        ldr         r0,[r4,#0x8]                            
ram:000015f4    8cfdffeb        bl          FUN_00000c2c                            ;undefined FUN_00000c2c()
ram:000015f8    0400a0e1        mov         r0,r4                                   
ram:000015fc    7dfeffeb        bl          FUN_00000ff8                            ;undefined FUN_00000ff8()
ram:00001600    0400a0e1        mov         r0,r4                                   
ram:00001604    d1feffeb        bl          FUN_00001150                            ;undefined FUN_00001150()
ram:00001608    0050a0e3        mov         r5,#0x0                                 
ram:0000160c    050000ea        b           LAB_00001628                            
                            LAB_00001610:                 ;XREF[1,0]:   0000162c
ram:00001610    0410a0e3        mov         r1,#0x4                                 
ram:00001614    000094e5        ldr         r0,[r4,#0x0]                            
ram:00001618    910520e0        mla         r0,r1,r5,r0                             
ram:0000161c    001094e5        ldr         r1,[r4,#0x0]                            
ram:00001620    050181e7        str         r0,[r1,r5,lsl #0x2]                     
ram:00001624    015085e2        add         r5,r5,#0x1                              
                            LAB_00001628:                 ;XREF[1,0]:   0000160c
ram:00001628    800055e3        cmp         r5,#0x80                                
ram:0000162c    f7ffff3a        bcc         LAB_00001610                            
ram:00001630    0050a0e3        mov         r5,#0x0                                 
ram:00001634    090000ea        b           LAB_00001660                            
                            LAB_00001638:                 ;XREF[1,0]:   00001664
ram:00001638    000094e5        ldr         r0,[r4,#0x0]                            
ram:0000163c    050190e7        ldr         r0,[r0,r5,lsl #0x2]                     
ram:00001640    0420a0e3        mov         r2,#0x4                                 
ram:00001644    001094e5        ldr         r1,[r4,#0x0]                            
ram:00001648    921521e0        mla         r1,r2,r5,r1                             
ram:0000164c    010050e1        cmp         r0,r1                                   
ram:00001650    0100000a        beq         LAB_0000165c                            
ram:00001654    0000a0e3        mov         r0,#0x0                                 
                            LAB_00001658:                 ;XREF[1,0]:   0000166c
ram:00001658    f081bde8        ldmia       sp!,{r4 r5 r6 r7 r8 pc}                 
                            LAB_0000165c:                 ;XREF[1,0]:   00001650
ram:0000165c    015085e2        add         r5,r5,#0x1                              
                            LAB_00001660:                 ;XREF[1,0]:   00001634
ram:00001660    800055e3        cmp         r5,#0x80                                
ram:00001664    f3ffff3a        bcc         LAB_00001638                            
ram:00001668    0100a0e3        mov         r0,#0x1                                 
ram:0000166c    f9ffffea        b           LAB_00001658                            
                            ;************************************************************************************************
                            ;*                                           FUNCTION                                           *
                            ;************************************************************************************************
                            ;undefined FUN_00001670()
          ;local_c       undefined4          -c                      ;XREF[1,0]:   000016d4
          ;local_10      undefined4         -10                      ;XREF[1,0]:   000016cc
          ;local_14      undefined4         -14                      ;XREF[1,0]:   000016c4
          ;local_18      undefined4         -18                      ;XREF[1,0]:   000016bc
          ;local_1c      undefined4         -1c                      ;XREF[1,0]:   000016b4
          ;local_20      undefined1         -20                      ;XREF[1,0]:   000016ac
          ;local_24      undefined4         -24                      ;XREF[1,0]:   000016a4
          ;local_28      undefined4         -28                      ;XREF[1,0]:   0000169c
          ;local_2c      undefined4         -2c                      ;XREF[1,0]:   00001698
          ;local_30      undefined4         -30                      ;XREF[1,0]:   00001690
          ;local_34      undefined4         -34                      ;XREF[1,0]:   00001688
          ;local_38      undefined4         -38                      ;XREF[1,0]:   00001680
                                                          ;XREF[1,0]:   00000514
ram:00001670    10402de9        stmdb       sp!,{r4 lr}                             
ram:00001674    30d04de2        sub         sp,sp,#0x30                             
ram:00001678    5c40a0e3        mov         r4,#0x5c                                
ram:0000167c    0201a0e3        mov         r0,#0x80000000                          
ram:00001680    00008de5        str         r0,[sp,#0x0]=>local_38                  
ram:00001684    2000a0e3        mov         r0,#0x20                                
ram:00001688    04008de5        str         r0,[sp,#local_34+0x38]                  
ram:0000168c    9c00a0e3        mov         r0,#0x9c                                
ram:00001690    08008de5        str         r0,[sp,#local_30+0x38]                  
ram:00001694    0100a0e3        mov         r0,#0x1                                 
ram:00001698    0c008de5        str         r0,[sp,#local_2c+0x38]                  
ram:0000169c    10008de5        str         r0,[sp,#local_28+0x38]                  
ram:000016a0    0000a0e3        mov         r0,#0x0                                 
ram:000016a4    14008de5        str         r0,[sp,#local_24+0x38]                  
ram:000016a8    0100a0e3        mov         r0,#0x1                                 
ram:000016ac    1800cde5        strb        r0,[sp,#local_20+0x38]                  
ram:000016b0    1000a0e3        mov         r0,#0x10                                
ram:000016b4    1c008de5        str         r0,[sp,#local_1c+0x38]                  
ram:000016b8    0a00a0e3        mov         r0,#0xa                                 
ram:000016bc    20008de5        str         r0,[sp,#local_18+0x38]                  
ram:000016c0    0d00a0e3        mov         r0,#0xd                                 
ram:000016c4    24008de5        str         r0,[sp,#local_14+0x38]                  
ram:000016c8    0400a0e3        mov         r0,#0x4                                 
ram:000016cc    28008de5        str         r0,[sp,#local_10+0x38]                  
ram:000016d0    0300a0e3        mov         r0,#0x3                                 
ram:000016d4    2c008de5        str         r0,[sp,#local_c+0x38]                   
ram:000016d8    0d00a0e1        mov         r0,sp                                   
ram:000016dc    fffeffeb        bl          FUN_000012e0                            ;undefined FUN_000012e0()
ram:000016e0    30d08de2        add         sp,sp,#0x30                             
ram:000016e4    1080bde8        ldmia       sp!,{r4 pc}                             
                            DAT_000016e8:                 ;XREF[15,0]:  00000b64,00000b78,00000b98,00000d90
                                                          ;             00000da4,00000f18,00000f30,00000f80
                                                          ;             00000f9c,00001024,00001040,000010bc
                                                          ;             000010d8,0000111c,00001138
ram:000016e8    0c10c001        undefined4  01C0100Ch                               
                            DAT_000016ec:                 ;XREF[6,0]:   00000bcc,00000be0,00000c00,00000fac
                                                          ;             00001058,00001074
ram:000016ec    2410c001        undefined4  01C01024h                               
                            DAT_000016f0:                 ;XREF[4,0]:   00000c40,00000d84,000010ec,00001108
ram:000016f0    0010c001        undefined4  01C01000h                               
                            DAT_000016f4:                 ;XREF[2,0]:   00000c60,00000cb0
ram:000016f4    40420f00        undefined4  000F4240h                               
                            DAT_000016f8:                 ;XREF[2,0]:   00000c7c,00000c88
ram:000016f8    5a620200        undefined4  0002625Ah                               
                            DAT_000016fc:                 ;XREF[2,0]:   00000c98,00000ce8
ram:000016fc    f3010000        undefined4  000001F3h                               ;?  ->  000001f3
                            DAT_00001700:                 ;XREF[1,0]:   00000ccc
ram:00001700    d3cefeff        undefined4  FFFECED3h                               
                            DAT_00001704:                 ;XREF[1,0]:   00000cd8
ram:00001704    2d310100        undefined4  0001312Dh                               
                            DAT_00001708:                 ;XREF[1,0]:   00000cf8
ram:00001708    1010c001        undefined4  01C01010h                               
                            DAT_0000170c:                 ;XREF[1,0]:   00000df0
ram:0000170c    3010c001        undefined4  01C01030h                               
                            DAT_00001710:                 ;XREF[1,0]:   00000e0c
ram:00001710    3410c001        undefined4  01C01034h                               
                            DAT_00001714:                 ;XREF[1,0]:   00000e28
ram:00001714    3810c001        undefined4  01C01038h                               
                            DAT_00001718:                 ;XREF[1,0]:   00000e44
ram:00001718    3c10c001        undefined4  01C0103Ch                               
                            DAT_0000171c:                 ;XREF[1,0]:   0000118c
ram:0000171c    11111111        undefined4  11111111h                               
                            DAT_00001720:                 ;XREF[1,0]:   000011c0
ram:00001720    22222222        undefined4  22222222h                               
                            DAT_00001724:                 ;XREF[1,0]:   0000120c
ram:00001724    00004080        undefined4  80400000h                               
                            DAT_00001728:                 ;XREF[1,0]:   00001218
ram:00001728    00002080        undefined4  80200000h                               
                            DAT_0000172c:                 ;XREF[1,0]:   00001228
ram:0000172c    33333333        undefined4  33333333h                               
                            DAT_00001730:                 ;XREF[2,0]:   00001230,00001250
ram:00001730    44444444        undefined4  44444444h                               
                            DAT_00001734:                 ;XREF[2,0]:   000012ec,00001300
ram:00001734    2408c201        undefined4  01C20824h                               
                            DAT_00001738:                 ;XREF[6,0]:   00001328,0000133c,00001548,00001574
                                                          ;             000015b8,000015e4
ram:00001738    c40ac201        undefined4  01C20AC4h                               
                            DAT_0000173c:                 ;XREF[1,0]:   00001360
ram:0000173c    aa0a0000        undefined4  00000AAAh                               ;?  ->  00000aaa
                            DAT_00001740:                 ;XREF[2,0]:   00001364,00001380
ram:00001740    c00ac201        undefined4  01C20AC0h                               
                            DAT_00001744:                 ;XREF[1,0]:   0000137c
ram:00001744    ff0f0000        undefined4  00000FFFh                               ;?  ->  00000fff
                            DAT_00001748:                 ;XREF[1,0]:   000013ec
ram:00001748    333330d1        undefined4  D1303333h                               
                            DAT_0000174c:                 ;XREF[4,0]:   000013f0,00001414,00001438,0000145c
ram:0000174c    9002c201        undefined4  01C20290h                               
                            DAT_00001750:                 ;XREF[1,0]:   00001410
ram:00001750    6666e0cc        undefined4  CCE06666h                               
                            DAT_00001754:                 ;XREF[1,0]:   00001434
ram:00001754    999990c8        undefined4  C8909999h                               
                            DAT_00001758:                 ;XREF[1,0]:   00001458
ram:00001758    cccc40c4        undefined4  C440CCCCh                               
                            DAT_0000175c:                 ;XREF[4,0]:   00001480,0000148c,000014a0,000014b0
ram:0000175c    2000c201        undefined4  01C20020h                               
                            DAT_00001760:                 ;XREF[2,0]:   000014d0,000014e4
ram:00001760    6000c201        undefined4  01C20060h                               
                            DAT_00001764:                 ;XREF[4,0]:   000014f0,00001504,00001528,0000153c
ram:00001764    c002c201        undefined4  01C202C0h                               
                            DAT_00001768:                 ;XREF[1,0]:   00001580
ram:00001768    c2edceb7        undefined4  B7CEEDC2h                               
                            DAT_0000176c:                 ;XREF[1,0]:   00001588
ram:0000176c    0410c001        undefined4  01C01004h                               
                            DAT_00001770:                 ;XREF[1,0]:   00001594
ram:00001770    0800a700        undefined4  00A70008h                               
                            DAT_00001774:                 ;XREF[1,0]:   0000159c
ram:00001774    0810c001        undefined4  01C01008h                               
ram:00001778    00              ??          00h                                     
ram:00001779    20              ??          20h                                     
ram:0000177a    a0              ??          A0h                                     
ram:0000177b    e1              ??          E1h                                     
ram:0000177c    01              ??          01h                                     
ram:0000177d    30              ??          30h    0                                
ram:0000177e    a0              ??          A0h                                     
ram:0000177f    e1              ??          E1h                                     
ram:00001780    00              ??          00h                                     
ram:00001781    00              ??          00h                                     
ram:00001782    d2              ??          D2h                                     
ram:00001783    e5              ??          E5h                                     
ram:00001784    1e              ??          1Eh                                     
ram:00001785    ff              ??          FFh                                     
ram:00001786    2f              ??          2Fh    /                                
ram:00001787    e1              ??          E1h                                     
ram:00001788    00              ??          00h                                     
ram:00001789    20              ??          20h                                     
ram:0000178a    a0              ??          A0h                                     
ram:0000178b    e1              ??          E1h                                     
ram:0000178c    01              ??          01h                                     
ram:0000178d    30              ??          30h    0                                
ram:0000178e    a0              ??          A0h                                     
ram:0000178f    e1              ??          E1h                                     
ram:00001790    b0              ??          B0h                                     
ram:00001791    00              ??          00h                                     
ram:00001792    d2              ??          D2h                                     
ram:00001793    e1              ??          E1h                                     
ram:00001794    1e              ??          1Eh                                     
ram:00001795    ff              ??          FFh                                     
ram:00001796    2f              ??          2Fh    /                                
ram:00001797    e1              ??          E1h                                     
ram:00001798    00              ??          00h                                     
ram:00001799    20              ??          20h                                     
ram:0000179a    a0              ??          A0h                                     
ram:0000179b    e1              ??          E1h                                     
ram:0000179c    01              ??          01h                                     
ram:0000179d    30              ??          30h    0                                
ram:0000179e    a0              ??          A0h                                     
ram:0000179f    e1              ??          E1h                                     
ram:000017a0    00              ??          00h                                     
ram:000017a1    00              ??          00h                                     
ram:000017a2    92              ??          92h                                     
ram:000017a3    e5              ??          E5h                                     
ram:000017a4    1e              ??          1Eh                                     
ram:000017a5    ff              ??          FFh                                     
ram:000017a6    2f              ??          2Fh    /                                
ram:000017a7    e1              ??          E1h                                     
ram:000017a8    00              ??          00h                                     
ram:000017a9    20              ??          20h                                     
ram:000017aa    a0              ??          A0h                                     
ram:000017ab    e1              ??          E1h                                     
ram:000017ac    01              ??          01h                                     
ram:000017ad    30              ??          30h    0                                
ram:000017ae    a0              ??          A0h                                     
ram:000017af    e1              ??          E1h                                     
ram:000017b0    d0              ??          D0h                                     
ram:000017b1    00              ??          00h                                     
ram:000017b2    c2              ??          C2h                                     
ram:000017b3    e1              ??          E1h                                     
ram:000017b4    1e              ??          1Eh                                     
ram:000017b5    ff              ??          FFh                                     
ram:000017b6    2f              ??          2Fh    /                                
ram:000017b7    e1              ??          E1h                                     
ram:000017b8    00              ??          00h                                     
ram:000017b9    20              ??          20h                                     
ram:000017ba    c0              ??          C0h                                     
ram:000017bb    e5              ??          E5h                                     
ram:000017bc    1e              ??          1Eh                                     
ram:000017bd    ff              ??          FFh                                     
ram:000017be    2f              ??          2Fh    /                                
ram:000017bf    e1              ??          E1h                                     
ram:000017c0    b0              ??          B0h                                     
ram:000017c1    20              ??          20h                                     
ram:000017c2    c0              ??          C0h                                     
ram:000017c3    e1              ??          E1h                                     
ram:000017c4    1e              ??          1Eh                                     
ram:000017c5    ff              ??          FFh                                     
ram:000017c6    2f              ??          2Fh    /                                
ram:000017c7    e1              ??          E1h                                     
ram:000017c8    00              ??          00h                                     
ram:000017c9    20              ??          20h                                     
ram:000017ca    80              ??          80h                                     
ram:000017cb    e5              ??          E5h                                     
ram:000017cc    1e              ??          1Eh                                     
ram:000017cd    ff              ??          FFh                                     
ram:000017ce    2f              ??          2Fh    /                                
ram:000017cf    e1              ??          E1h                                     
ram:000017d0    f0              ??          F0h                                     
ram:000017d1    20              ??          20h                                     
ram:000017d2    c0              ??          C0h                                     
ram:000017d3    e1              ??          E1h                                     
ram:000017d4    1e              ??          1Eh                                     
ram:000017d5    ff              ??          FFh                                     
ram:000017d6    2f              ??          2Fh    /                                
ram:000017d7    e1              ??          E1h                                     
                            ;************************************************************************************************
                            ;*                                           FUNCTION                                           *
                            ;************************************************************************************************
                            ;undefined FUN_000017d8()
                                                          ;XREF[22,0]:  00000164,00000178,0000018c,000001a0
                                                          ;             000001b4,000001c8,000001dc,000001f0
                                                          ;             0000020c,00000220,00000234,00000248
                                                          ;             0000025c,00000270,00000284,00000298
                                                          ;             000002b4,000002c8,000002dc,0000199c
                                                          ;             000019b0,00002d10
ram:000017d8    30402de9        stmdb       sp!,{r4 r5 lr}                          
ram:000017dc    a1c1a0e1        mov         r12,r1, lsr #0x3                        
ram:000017e0    0cc190e7        ldr         r12,[r0,r12,lsl #0x2]                   
ram:000017e4    814ea0e1        mov         r4,r1, lsl #0x1d                        
ram:000017e8    a44da0e1        mov         r4,r4, lsr #0x1b                        
ram:000017ec    0f50a0e3        mov         r5,#0xf                                 
ram:000017f0    15c4cce1        bic         r12,r12,r5, lsl r4                      
ram:000017f4    a141a0e1        mov         r4,r1, lsr #0x3                         
ram:000017f8    04c180e7        str         r12,[r0,r4,lsl #0x2]                    
ram:000017fc    000052e3        cmp         r2,#0x0                                 
ram:00001800    0800001a        bne         LAB_00001828                            
ram:00001804    a1c1a0e1        mov         r12,r1, lsr #0x3                        
ram:00001808    0cc190e7        ldr         r12,[r0,r12,lsl #0x2]                   
ram:0000180c    814ea0e1        mov         r4,r1, lsl #0x1d                        
ram:00001810    a44da0e1        mov         r4,r4, lsr #0x1b                        
ram:00001814    0150a0e3        mov         r5,#0x1                                 
ram:00001818    15c4cce1        bic         r12,r12,r5, lsl r4                      
ram:0000181c    a141a0e1        mov         r4,r1, lsr #0x3                         
ram:00001820    04c180e7        str         r12,[r0,r4,lsl #0x2]                    
ram:00001824    110000ea        b           LAB_00001870                            
                            LAB_00001828:                 ;XREF[1,0]:   00001800
ram:00001828    010052e3        cmp         r2,#0x1                                 
ram:0000182c    0800001a        bne         LAB_00001854                            
ram:00001830    a1c1a0e1        mov         r12,r1, lsr #0x3                        
ram:00001834    0cc190e7        ldr         r12,[r0,r12,lsl #0x2]                   
ram:00001838    814ea0e1        mov         r4,r1, lsl #0x1d                        
ram:0000183c    a44da0e1        mov         r4,r4, lsr #0x1b                        
ram:00001840    0150a0e3        mov         r5,#0x1                                 
ram:00001844    15c48ce1        orr         r12,r12,r5, lsl r4                      
ram:00001848    a141a0e1        mov         r4,r1, lsr #0x3                         
ram:0000184c    04c180e7        str         r12,[r0,r4,lsl #0x2]                    
ram:00001850    060000ea        b           LAB_00001870                            
                            LAB_00001854:                 ;XREF[1,0]:   0000182c
ram:00001854    a1c1a0e1        mov         r12,r1, lsr #0x3                        
ram:00001858    0cc190e7        ldr         r12,[r0,r12,lsl #0x2]                   
ram:0000185c    814ea0e1        mov         r4,r1, lsl #0x1d                        
ram:00001860    a44da0e1        mov         r4,r4, lsr #0x1b                        
ram:00001864    12c48ce1        orr         r12,r12,r2, lsl r4                      
ram:00001868    a141a0e1        mov         r4,r1, lsr #0x3                         
ram:0000186c    04c180e7        str         r12,[r0,r4,lsl #0x2]                    
                            LAB_00001870:                 ;XREF[2,0]:   00001824,00001850
ram:00001870    21c2a0e1        mov         r12,r1, lsr #0x4                        
ram:00001874    1c4080e2        add         r4,r0,#0x1c                             
ram:00001878    0cc194e7        ldr         r12,[r4,r12,lsl #0x2]                   
ram:0000187c    014ea0e1        mov         r4,r1, lsl #0x1c                        
ram:00001880    a44da0e1        mov         r4,r4, lsr #0x1b                        
ram:00001884    0350a0e3        mov         r5,#0x3                                 
ram:00001888    15c4cce1        bic         r12,r12,r5, lsl r4                      
ram:0000188c    2142a0e1        mov         r4,r1, lsr #0x4                         
ram:00001890    1c5080e2        add         r5,r0,#0x1c                             
ram:00001894    04c185e7        str         r12,[r5,r4,lsl #0x2]                    
ram:00001898    21c2a0e1        mov         r12,r1, lsr #0x4                        
ram:0000189c    1c4080e2        add         r4,r0,#0x1c                             
ram:000018a0    0cc194e7        ldr         r12,[r4,r12,lsl #0x2]                   
ram:000018a4    014ea0e1        mov         r4,r1, lsl #0x1c                        
ram:000018a8    a44da0e1        mov         r4,r4, lsr #0x1b                        
ram:000018ac    13c48ce1        orr         r12,r12,r3, lsl r4                      
ram:000018b0    2142a0e1        mov         r4,r1, lsr #0x4                         
ram:000018b4    1c5080e2        add         r5,r0,#0x1c                             
ram:000018b8    04c185e7        str         r12,[r5,r4,lsl #0x2]                    
ram:000018bc    3080bde8        ldmia       sp!,{r4 r5 pc}                          
                            ;************************************************************************************************
                            ;*                                           FUNCTION                                           *
                            ;************************************************************************************************
                            ;undefined FUN_000018c0()
                                                          ;XREF[9,0]:   000002e8,00000328,00000358,00000370
                                                          ;             00000394,000003d8,000003f0,000003fc
                                                          ;             00000434
ram:000018c0    102090e5        ldr         r2,[r0,#0x10]                           
ram:000018c4    0130a0e3        mov         r3,#0x1                                 
ram:000018c8    132182e1        orr         r2,r2,r3, lsl r1                        
ram:000018cc    102080e5        str         r2,[r0,#0x10]                           
ram:000018d0    1eff2fe1        bx          lr                                      
                            ;************************************************************************************************
                            ;*                                           FUNCTION                                           *
                            ;************************************************************************************************
                            ;undefined FUN_000018d4()
                                                          ;XREF[8,0]:   00000304,00000310,0000031c,0000034c
                                                          ;             00000364,000003a0,000003cc,00000428
ram:000018d4    102090e5        ldr         r2,[r0,#0x10]                           
ram:000018d8    0130a0e3        mov         r3,#0x1                                 
ram:000018dc    1321c2e1        bic         r2,r2,r3, lsl r1                        
ram:000018e0    102080e5        str         r2,[r0,#0x10]                           
ram:000018e4    1eff2fe1        bx          lr                                      
ram:000018e8    00              ??          00h                                     
ram:000018e9    20              ??          20h                                     
ram:000018ea    a0              ??          A0h                                     
ram:000018eb    e1              ??          E1h                                     
ram:000018ec    10              ??          10h                                     
ram:000018ed    00              ??          00h                                     
ram:000018ee    92              ??          92h                                     
ram:000018ef    e5              ??          E5h                                     
ram:000018f0    01              ??          01h                                     
ram:000018f1    30              ??          30h    0                                
ram:000018f2    a0              ??          A0h                                     
ram:000018f3    e3              ??          E3h                                     
ram:000018f4    13              ??          13h                                     
ram:000018f5    01              ??          01h                                     
ram:000018f6    00              ??          00h                                     
ram:000018f7    e0              ??          E0h                                     
ram:000018f8    00              ??          00h                                     
ram:000018f9    00              ??          00h                                     
ram:000018fa    50              ??          50h    P                                
ram:000018fb    e3              ??          E3h                                     
ram:000018fc    01              ??          01h                                     
ram:000018fd    00              ??          00h                                     
ram:000018fe    00              ??          00h                                     
ram:000018ff    0a              ??          0Ah                                     
ram:00001900    01              ??          01h                                     
ram:00001901    00              ??          00h                                     
ram:00001902    a0              ??          A0h                                     
ram:00001903    e3              ??          E3h                                     
ram:00001904    1e              ??          1Eh                                     
ram:00001905    ff              ??          FFh                                     
ram:00001906    2f              ??          2Fh    /                                
ram:00001907    e1              ??          E1h                                     
ram:00001908    00              ??          00h                                     
ram:00001909    00              ??          00h                                     
ram:0000190a    a0              ??          A0h                                     
ram:0000190b    e3              ??          E3h                                     
ram:0000190c    fc              ??          FCh                                     
ram:0000190d    ff              ??          FFh                                     
ram:0000190e    ff              ??          FFh                                     
ram:0000190f    ea              ??          EAh                                     
ram:00001910    00              ??          00h                                     
ram:00001911    20              ??          20h                                     
ram:00001912    a0              ??          A0h                                     
ram:00001913    e1              ??          E1h                                     
ram:00001914    01              ??          01h                                     
ram:00001915    30              ??          30h    0                                
ram:00001916    a0              ??          A0h                                     
ram:00001917    e1              ??          E1h                                     
ram:00001918    00              ??          00h                                     
ram:00001919    00              ??          00h                                     
ram:0000191a    d2              ??          D2h                                     
ram:0000191b    e5              ??          E5h                                     
ram:0000191c    1e              ??          1Eh                                     
ram:0000191d    ff              ??          FFh                                     
ram:0000191e    2f              ??          2Fh    /                                
ram:0000191f    e1              ??          E1h                                     
ram:00001920    00              ??          00h                                     
ram:00001921    20              ??          20h                                     
ram:00001922    a0              ??          A0h                                     
ram:00001923    e1              ??          E1h                                     
ram:00001924    01              ??          01h                                     
ram:00001925    30              ??          30h    0                                
ram:00001926    a0              ??          A0h                                     
ram:00001927    e1              ??          E1h                                     
ram:00001928    b0              ??          B0h                                     
ram:00001929    00              ??          00h                                     
ram:0000192a    d2              ??          D2h                                     
ram:0000192b    e1              ??          E1h                                     
ram:0000192c    1e              ??          1Eh                                     
ram:0000192d    ff              ??          FFh                                     
ram:0000192e    2f              ??          2Fh    /                                
ram:0000192f    e1              ??          E1h                                     
                            ;************************************************************************************************
                            ;*                                           FUNCTION                                           *
                            ;************************************************************************************************
                            ;undefined FUN_00001930()
                                                          ;XREF[6,0]:   000019c0,000019e8,00001a40,00001a88
                                                          ;             00001aac,00001ae8
ram:00001930    0020a0e1        mov         r2,r0                                   
ram:00001934    0130a0e1        mov         r3,r1                                   
ram:00001938    000092e5        ldr         r0,[r2,#0x0]                            
ram:0000193c    1eff2fe1        bx          lr                                      
ram:00001940    00              ??          00h                                     
ram:00001941    20              ??          20h                                     
ram:00001942    a0              ??          A0h                                     
ram:00001943    e1              ??          E1h                                     
ram:00001944    01              ??          01h                                     
ram:00001945    30              ??          30h    0                                
ram:00001946    a0              ??          A0h                                     
ram:00001947    e1              ??          E1h                                     
ram:00001948    d0              ??          D0h                                     
ram:00001949    00              ??          00h                                     
ram:0000194a    c2              ??          C2h                                     
ram:0000194b    e1              ??          E1h                                     
ram:0000194c    1e              ??          1Eh                                     
ram:0000194d    ff              ??          FFh                                     
ram:0000194e    2f              ??          2Fh    /                                
ram:0000194f    e1              ??          E1h                                     
ram:00001950    00              ??          00h                                     
ram:00001951    20              ??          20h                                     
ram:00001952    c0              ??          C0h                                     
ram:00001953    e5              ??          E5h                                     
ram:00001954    1e              ??          1Eh                                     
ram:00001955    ff              ??          FFh                                     
ram:00001956    2f              ??          2Fh    /                                
ram:00001957    e1              ??          E1h                                     
ram:00001958    b0              ??          B0h                                     
ram:00001959    20              ??          20h                                     
ram:0000195a    c0              ??          C0h                                     
ram:0000195b    e1              ??          E1h                                     
ram:0000195c    1e              ??          1Eh                                     
ram:0000195d    ff              ??          FFh                                     
ram:0000195e    2f              ??          2Fh    /                                
ram:0000195f    e1              ??          E1h                                     
                            ;************************************************************************************************
                            ;*                                           FUNCTION                                           *
                            ;************************************************************************************************
                            ;undefined FUN_00001960()
                                                          ;XREF[11,0]:  000019d8,00001a00,00001a14,00001a24
                                                          ;             00001a34,00001a58,00001a68,00001a7c
                                                          ;             00001aa0,00001ac8,00001b04
ram:00001960    002080e5        str         r2,[r0,#0x0]                            
ram:00001964    1eff2fe1        bx          lr                                      
ram:00001968    f0              ??          F0h                                     
ram:00001969    20              ??          20h                                     
ram:0000196a    c0              ??          C0h                                     
ram:0000196b    e1              ??          E1h                                     
ram:0000196c    1e              ??          1Eh                                     
ram:0000196d    ff              ??          FFh                                     
ram:0000196e    2f              ??          2Fh    /                                
ram:0000196f    e1              ??          E1h                                     
                            ;************************************************************************************************
                            ;*                                           FUNCTION                                           *
                            ;************************************************************************************************
                            ;undefined FUN_00001970()
                                                          ;XREF[1,0]:   00000524
ram:00001970    f0412de9        stmdb       sp!,{r4 r5 r6 r7 r8 lr}                 
ram:00001974    0060a0e1        mov         r6,r0                                   
ram:00001978    50869fe5        ldr         r8,[DAT_00001fd0]                       ;= 06146580h
ram:0000197c    0610a0e1        mov         r1,r6                                   
ram:00001980    0800a0e1        mov         r0,r8                                   
ram:00001984    6e0500eb        bl          FUN_00002f44                            ;undefined FUN_00002f44()
ram:00001988    2072a0e1        mov         r7,r0, lsr #0x4                         
ram:0000198c    0030a0e3        mov         r3,#0x0                                 
ram:00001990    0520a0e3        mov         r2,#0x5                                 
ram:00001994    0310a0e1        mov         r1,r3                                   
ram:00001998    34069fe5        ldr         r0,[DAT_00001fd4]                       ;= 01C20890h
ram:0000199c    8dffffeb        bl          FUN_000017d8                            ;undefined FUN_000017d8()
ram:000019a0    0030a0e3        mov         r3,#0x0                                 
ram:000019a4    0520a0e3        mov         r2,#0x5                                 
ram:000019a8    0110a0e3        mov         r1,#0x1                                 
ram:000019ac    20069fe5        ldr         r0,[DAT_00001fd4]                       ;= 01C20890h
ram:000019b0    88ffffeb        bl          FUN_000017d8                            ;undefined FUN_000017d8()
ram:000019b4    1c469fe5        ldr         r4,[DAT_00001fd8]                       ;= 01C20068h
ram:000019b8    0400a0e1        mov         r0,r4                                   
ram:000019bc    0010a0e3        mov         r1,#0x0                                 
ram:000019c0    daffffeb        bl          FUN_00001930                            ;undefined FUN_00001930()
ram:000019c4    0050a0e1        mov         r5,r0                                   
ram:000019c8    015685e3        orr         r5,r5,#0x100000                         
ram:000019cc    0520a0e1        mov         r2,r5                                   
ram:000019d0    0400a0e1        mov         r0,r4                                   
ram:000019d4    0010a0e3        mov         r1,#0x0                                 
ram:000019d8    e0ffffeb        bl          FUN_00001960                            ;undefined FUN_00001960()
ram:000019dc    9a4f84e2        add         r4,r4,#0x268                            
ram:000019e0    0400a0e1        mov         r0,r4                                   
ram:000019e4    0010a0e3        mov         r1,#0x0                                 
ram:000019e8    d0ffffeb        bl          FUN_00001930                            ;undefined FUN_00001930()
ram:000019ec    0050a0e1        mov         r5,r0                                   
ram:000019f0    015685e3        orr         r5,r5,#0x100000                         
ram:000019f4    0520a0e1        mov         r2,r5                                   
ram:000019f8    0400a0e1        mov         r0,r4                                   
ram:000019fc    0010a0e3        mov         r1,#0x0                                 
ram:00001a00    d6ffffeb        bl          FUN_00001960                            ;undefined FUN_00001960()
ram:00001a04    d0459fe5        ldr         r4,[DAT_00001fdc]                       ;= 01C25000h
ram:00001a08    0020a0e3        mov         r2,#0x0                                 
ram:00001a0c    040084e2        add         r0,r4,#0x4                              
ram:00001a10    0210a0e1        mov         r1,r2                                   
ram:00001a14    d1ffffeb        bl          FUN_00001960                            ;undefined FUN_00001960()
ram:00001a18    f720a0e3        mov         r2,#0xf7                                
ram:00001a1c    080084e2        add         r0,r4,#0x8                              
ram:00001a20    0010a0e3        mov         r1,#0x0                                 
ram:00001a24    cdffffeb        bl          FUN_00001960                            ;undefined FUN_00001960()
ram:00001a28    0020a0e3        mov         r2,#0x0                                 
ram:00001a2c    100084e2        add         r0,r4,#0x10                             
ram:00001a30    0210a0e1        mov         r1,r2                                   
ram:00001a34    c9ffffeb        bl          FUN_00001960                            ;undefined FUN_00001960()
ram:00001a38    0c0084e2        add         r0,r4,#0xc                              
ram:00001a3c    0010a0e3        mov         r1,#0x0                                 
ram:00001a40    baffffeb        bl          FUN_00001930                            ;undefined FUN_00001930()
ram:00001a44    0050a0e1        mov         r5,r0                                   
ram:00001a48    805085e3        orr         r5,r5,#0x80                             
ram:00001a4c    0520a0e1        mov         r2,r5                                   
ram:00001a50    0c0084e2        add         r0,r4,#0xc                              
ram:00001a54    0010a0e3        mov         r1,#0x0                                 
ram:00001a58    c0ffffeb        bl          FUN_00001960                            ;undefined FUN_00001960()
ram:00001a5c    ff2007e2        and         r2,r7,#0xff                             
ram:00001a60    0400a0e1        mov         r0,r4                                   
ram:00001a64    0010a0e3        mov         r1,#0x0                                 
ram:00001a68    bcffffeb        bl          FUN_00001960                            ;undefined FUN_00001960()
ram:00001a6c    0708a0e1        mov         r0,r7, lsl #0x10                        
ram:00001a70    202ca0e1        mov         r2,r0, lsr #0x18                        
ram:00001a74    040084e2        add         r0,r4,#0x4                              
ram:00001a78    0010a0e3        mov         r1,#0x0                                 
ram:00001a7c    b7ffffeb        bl          FUN_00001960                            ;undefined FUN_00001960()
ram:00001a80    0c0084e2        add         r0,r4,#0xc                              
ram:00001a84    0010a0e3        mov         r1,#0x0                                 
ram:00001a88    a8ffffeb        bl          FUN_00001930                            ;undefined FUN_00001930()
ram:00001a8c    0050a0e1        mov         r5,r0                                   
ram:00001a90    8050c5e3        bic         r5,r5,#0x80                             
ram:00001a94    0520a0e1        mov         r2,r5                                   
ram:00001a98    0c0084e2        add         r0,r4,#0xc                              
ram:00001a9c    0010a0e3        mov         r1,#0x0                                 
ram:00001aa0    aeffffeb        bl          FUN_00001960                            ;undefined FUN_00001960()
ram:00001aa4    0c0084e2        add         r0,r4,#0xc                              
ram:00001aa8    0010a0e3        mov         r1,#0x0                                 
ram:00001aac    9fffffeb        bl          FUN_00001930                            ;undefined FUN_00001930()
ram:00001ab0    0050a0e1        mov         r5,r0                                   
ram:00001ab4    1f50c5e3        bic         r5,r5,#0x1f                             
ram:00001ab8    035085e3        orr         r5,r5,#0x3                              
ram:00001abc    0520a0e1        mov         r2,r5                                   
ram:00001ac0    0c0084e2        add         r0,r4,#0xc                              
ram:00001ac4    0010a0e3        mov         r1,#0x0                                 
ram:00001ac8    a4ffffeb        bl          FUN_00001960                            ;undefined FUN_00001960()
ram:00001acc    f081bde8        ldmia       sp!,{r4 r5 r6 r7 r8 pc}                 
                            ;************************************************************************************************
                            ;*                                           FUNCTION                                           *
                            ;************************************************************************************************
                            ;undefined FUN_00001ad0()
                                                          ;XREF[6,0]:   00001b1c,00001b48,00001b70,00001e20
                                                          ;             00001e48,00001e6c
ram:00001ad0    70402de9        stmdb       sp!,{r4 r5 r6 lr}                       
ram:00001ad4    0050a0e1        mov         r5,r0                                   
ram:00001ad8    fc449fe5        ldr         r4,[DAT_00001fdc]                       ;= 01C25000h
ram:00001adc    0000a0e1        mov         r0,r0                                   
                            LAB_00001ae0:                 ;XREF[1,0]:   00001af4
ram:00001ae0    7c0084e2        add         r0,r4,#0x7c                             
ram:00001ae4    0010a0e3        mov         r1,#0x0                                 
ram:00001ae8    90ffffeb        bl          FUN_00001930                            ;undefined FUN_00001930()
ram:00001aec    020000e2        and         r0,r0,#0x2                              
ram:00001af0    000050e3        cmp         r0,#0x0                                 
ram:00001af4    f9ffff0a        beq         LAB_00001ae0                            
ram:00001af8    0520a0e1        mov         r2,r5                                   
ram:00001afc    0400a0e1        mov         r0,r4                                   
ram:00001b00    0010a0e3        mov         r1,#0x0                                 
ram:00001b04    95ffffeb        bl          FUN_00001960                            ;undefined FUN_00001960()
ram:00001b08    7080bde8        ldmia       sp!,{r4 r5 r6 pc}                       
                            ;************************************************************************************************
                            ;*                                           FUNCTION                                           *
                            ;************************************************************************************************
                            ;undefined FUN_00001b0c()
                                                          ;XREF[2,0]:   00001e88,00001ec0
ram:00001b0c    10402de9        stmdb       sp!,{r4 lr}                             
ram:00001b10    0040a0e1        mov         r4,r0                                   
ram:00001b14    020000ea        b           LAB_00001b24                            
                            LAB_00001b18:                 ;XREF[1,0]:   00001b2c
ram:00001b18    0000d4e5        ldrb        r0,[r4,#0x0]                            
ram:00001b1c    ebffffeb        bl          FUN_00001ad0                            ;undefined FUN_00001ad0()
ram:00001b20    014084e2        add         r4,r4,#0x1                              
                            LAB_00001b24:                 ;XREF[1,0]:   00001b14
ram:00001b24    0000d4e5        ldrb        r0,[r4,#0x0]                            
ram:00001b28    000050e3        cmp         r0,#0x0                                 
ram:00001b2c    f9ffff1a        bne         LAB_00001b18                            
ram:00001b30    1080bde8        ldmia       sp!,{r4 pc}                             
                            ;************************************************************************************************
                            ;*                                           FUNCTION                                           *
                            ;************************************************************************************************
                            ;undefined FUN_00001b34()
                                                          ;XREF[4,0]:   00001d18,00001d38,00001e5c,00001eb0
ram:00001b34    70402de9        stmdb       sp!,{r4 r5 r6 lr}                       
ram:00001b38    0050a0e1        mov         r5,r0                                   
ram:00001b3c    0140a0e1        mov         r4,r1                                   
ram:00001b40    010000ea        b           LAB_00001b4c                            
                            LAB_00001b44:                 ;XREF[1,0]:   00001b54
ram:00001b44    0500a0e1        mov         r0,r5                                   
ram:00001b48    e0ffffeb        bl          FUN_00001ad0                            ;undefined FUN_00001ad0()
                            LAB_00001b4c:                 ;XREF[1,0]:   00001b40
ram:00001b4c    0400b0e1        movs        r0,r4                                   
ram:00001b50    014044e2        sub         r4,r4,#0x1                              
ram:00001b54    faffff1a        bne         LAB_00001b44                            
ram:00001b58    7080bde8        ldmia       sp!,{r4 r5 r6 pc}                       
                            ;************************************************************************************************
                            ;*                                           FUNCTION                                           *
                            ;************************************************************************************************
                            ;undefined FUN_00001b5c()
                                                          ;XREF[2,0]:   00001cfc,00001d24
ram:00001b5c    70402de9        stmdb       sp!,{r4 r5 r6 lr}                       
ram:00001b60    0050a0e1        mov         r5,r0                                   
ram:00001b64    0140a0e1        mov         r4,r1                                   
ram:00001b68    010000ea        b           LAB_00001b74                            
                            LAB_00001b6c:                 ;XREF[1,0]:   00001b7c
ram:00001b6c    0400d5e7        ldrb        r0,[r5,r4]                              
ram:00001b70    d6ffffeb        bl          FUN_00001ad0                            ;undefined FUN_00001ad0()
                            LAB_00001b74:                 ;XREF[1,0]:   00001b68
ram:00001b74    000054e2        subs        r0,r4,#0x0                              
ram:00001b78    014044e2        sub         r4,r4,#0x1                              
ram:00001b7c    faffffca        bgt         LAB_00001b6c                            
ram:00001b80    7080bde8        ldmia       sp!,{r4 r5 r6 pc}                       
                            ;************************************************************************************************
                            ;*                                           FUNCTION                                           *
                            ;************************************************************************************************
                            ;undefined FUN_00001b84()
          ;local_4c      undefined1         -4c                      ;XREF[1,0]:   00001c58
          ;local_50      undefined4         -50                      ;XREF[3,0]:   00001ba8,00001bf4,00001cd0
                                                          ;XREF[1,0]:   00001f54
ram:00001b84    f04f2de9        stmdb       sp!,{r4 r5 r6 r7 r8 r9 r10 r11 lr}      
ram:00001b88    2cd04de2        sub         sp,sp,#0x2c                             
ram:00001b8c    0080a0e1        mov         r8,r0                                   
ram:00001b90    0170a0e1        mov         r7,r1                                   
ram:00001b94    0250a0e1        mov         r5,r2                                   
ram:00001b98    0390a0e1        mov         r9,r3                                   
ram:00001b9c    0040a0e3        mov         r4,#0x0                                 
ram:00001ba0    00b0a0e3        mov         r11,#0x0                                
ram:00001ba4    0000a0e3        mov         r0,#0x0                                 
ram:00001ba8    00008de5        str         r0,[sp,#0x0]=>local_50                  
ram:00001bac    000059e3        cmp         r9,#0x0                                 
ram:00001bb0    0000001a        bne         LAB_00001bb8                            
ram:00001bb4    2090a0e3        mov         r9,#0x20                                
                            LAB_00001bb8:                 ;XREF[1,0]:   00001bb0
ram:00001bb8    000055e3        cmp         r5,#0x0                                 
ram:00001bbc    010000aa        bge         LAB_00001bc8                            
ram:00001bc0    005065e2        rsb         r5,r5,#0x0                              
ram:00001bc4    01b0a0e3        mov         r11,#0x1                                
                            LAB_00001bc8:                 ;XREF[1,0]:   00001bbc
ram:00001bc8    000055e3        cmp         r5,#0x0                                 
ram:00001bcc    010000ba        blt         LAB_00001bd8                            
ram:00001bd0    500055e3        cmp         r5,#0x50                                
ram:00001bd4    000000da        ble         LAB_00001bdc                            
                            LAB_00001bd8:                 ;XREF[1,0]:   00001bcc
ram:00001bd8    0050a0e3        mov         r5,#0x0                                 
                            LAB_00001bdc:                 ;XREF[1,0]:   00001bd4
ram:00001bdc    000057e3        cmp         r7,#0x0                                 
ram:00001be0    050000aa        bge         LAB_00001bfc                            
ram:00001be4    007067e2        rsb         r7,r7,#0x0                              
ram:00001be8    000058e3        cmp         r8,#0x0                                 
ram:00001bec    020000aa        bge         LAB_00001bfc                            
ram:00001bf0    0100a0e3        mov         r0,#0x1                                 
ram:00001bf4    00008de5        str         r0,[sp,#0x0]=>local_50                  
ram:00001bf8    008068e2        rsb         r8,r8,#0x0                              
                            LAB_00001bfc:                 ;XREF[2,0]:   00001be0,00001bec
ram:00001bfc    0860a0e1        mov         r6,r8                                   
ram:00001c00    0000a0e1        mov         r0,r0                                   
                            LAB_00001c04:                 ;XREF[1,0]:   00001ccc
ram:00001c04    100057e3        cmp         r7,#0x10                                
ram:00001c08    0900000a        beq         LAB_00001c34                            
ram:00001c0c    0710a0e1        mov         r1,r7                                   
ram:00001c10    0600a0e1        mov         r0,r6                                   
ram:00001c14    ca0400eb        bl          FUN_00002f44                            ;undefined FUN_00002f44()
ram:00001c18    01a8a0e1        mov         r10,r1, lsl #0x10                       
ram:00001c1c    2aa8a0e1        mov         r10,r10, lsr #0x10                      
ram:00001c20    0710a0e1        mov         r1,r7                                   
ram:00001c24    0600a0e1        mov         r0,r6                                   
ram:00001c28    c50400eb        bl          FUN_00002f44                            ;undefined FUN_00002f44()
ram:00001c2c    0060a0e1        mov         r6,r0                                   
ram:00001c30    010000ea        b           LAB_00001c3c                            
                            LAB_00001c34:                 ;XREF[1,0]:   00001c08
ram:00001c34    0fa006e2        and         r10,r6,#0xf                             
ram:00001c38    2662a0e1        mov         r6,r6, lsr #0x4                         
                            LAB_00001c3c:                 ;XREF[1,0]:   00001c30
ram:00001c3c    09005ae3        cmp         r10,#0x9                                
ram:00001c40    010000ca        bgt         LAB_00001c4c                            
ram:00001c44    3000a0e3        mov         r0,#0x30                                
ram:00001c48    000000ea        b           LAB_00001c50                            
                            LAB_00001c4c:                 ;XREF[1,0]:   00001c40
ram:00001c4c    3700a0e3        mov         r0,#0x37                                
                            LAB_00001c50:                 ;XREF[1,0]:   00001c48
ram:00001c50    0a0080e0        add         r0,r0,r10                               
ram:00001c54    04108de2        add         r1,sp,#0x4                              
ram:00001c58    0400c1e7        strb        r0,[r1,r4]=>local_4c                    
ram:00001c5c    014084e2        add         r4,r4,#0x1                              
ram:00001c60    000056e3        cmp         r6,#0x0                                 
ram:00001c64    1700000a        beq         LAB_00001cc8                            
ram:00001c68    0a0057e3        cmp         r7,#0xa                                 
ram:00001c6c    1500001a        bne         LAB_00001cc8                            
ram:00001c70    030054e3        cmp         r4,#0x3                                 
ram:00001c74    0e00000a        beq         LAB_00001cb4                            
ram:00001c78    070054e3        cmp         r4,#0x7                                 
ram:00001c7c    0c00000a        beq         LAB_00001cb4                            
ram:00001c80    0b0054e3        cmp         r4,#0xb                                 
ram:00001c84    0100001a        bne         LAB_00001c90                            
ram:00001c88    0100a0e3        mov         r0,#0x1                                 
ram:00001c8c    000000ea        b           LAB_00001c94                            
                            LAB_00001c90:                 ;XREF[1,0]:   00001c84
ram:00001c90    0000a0e3        mov         r0,#0x0                                 
                            LAB_00001c94:                 ;XREF[1,0]:   00001c8c
ram:00001c94    0f0054e3        cmp         r4,#0xf                                 
ram:00001c98    0100001a        bne         LAB_00001ca4                            
ram:00001c9c    0110a0e3        mov         r1,#0x1                                 
ram:00001ca0    000000ea        b           LAB_00001ca8                            
                            LAB_00001ca4:                 ;XREF[1,0]:   00001c98
ram:00001ca4    0010a0e3        mov         r1,#0x0                                 
                            LAB_00001ca8:                 ;XREF[1,0]:   00001ca0
ram:00001ca8    010080e1        orr         r0,r0,r1                                
ram:00001cac    000050e3        cmp         r0,#0x0                                 
ram:00001cb0    0400000a        beq         LAB_00001cc8                            
                            LAB_00001cb4:                 ;XREF[2,0]:   00001c74,00001c7c
ram:00001cb4    2c10a0e3        mov         r1,#0x2c                                
ram:00001cb8    0400a0e1        mov         r0,r4                                   
ram:00001cbc    014084e2        add         r4,r4,#0x1                              
ram:00001cc0    04208de2        add         r2,sp,#0x4                              
ram:00001cc4    0010c2e7        strb        r1,[r2,r0]                              
                            LAB_00001cc8:                 ;XREF[3,0]:   00001c64,00001c6c,00001cb0
ram:00001cc8    000056e3        cmp         r6,#0x0                                 
ram:00001ccc    ccffff1a        bne         LAB_00001c04                            
ram:00001cd0    00009de5        ldr         r0,[sp,#0x0]=>local_50                  
ram:00001cd4    000050e3        cmp         r0,#0x0                                 
ram:00001cd8    0300000a        beq         LAB_00001cec                            
ram:00001cdc    2d00a0e3        mov         r0,#0x2d                                
ram:00001ce0    04108de2        add         r1,sp,#0x4                              
ram:00001ce4    0400c1e7        strb        r0,[r1,r4]                              
ram:00001ce8    014084e2        add         r4,r4,#0x1                              
                            LAB_00001cec:                 ;XREF[1,0]:   00001cd8
ram:00001cec    040055e1        cmp         r5,r4                                   
ram:00001cf0    030000ca        bgt         LAB_00001d04                            
ram:00001cf4    0410a0e1        mov         r1,r4                                   
ram:00001cf8    04008de2        add         r0,sp,#0x4                              
ram:00001cfc    96ffffeb        bl          FUN_00001b5c                            ;undefined FUN_00001b5c()
ram:00001d00    0d0000ea        b           LAB_00001d3c                            
                            LAB_00001d04:                 ;XREF[1,0]:   00001cf0
ram:00001d04    045045e0        sub         r5,r5,r4                                
ram:00001d08    00005be3        cmp         r11,#0x0                                
ram:00001d0c    0200001a        bne         LAB_00001d1c                            
ram:00001d10    0510a0e1        mov         r1,r5                                   
ram:00001d14    0900a0e1        mov         r0,r9                                   
ram:00001d18    85ffffeb        bl          FUN_00001b34                            ;undefined FUN_00001b34()
                            LAB_00001d1c:                 ;XREF[1,0]:   00001d0c
ram:00001d1c    0410a0e1        mov         r1,r4                                   
ram:00001d20    04008de2        add         r0,sp,#0x4                              
ram:00001d24    8cffffeb        bl          FUN_00001b5c                            ;undefined FUN_00001b5c()
ram:00001d28    00005be3        cmp         r11,#0x0                                
ram:00001d2c    0200000a        beq         LAB_00001d3c                            
ram:00001d30    0510a0e1        mov         r1,r5                                   
ram:00001d34    0900a0e1        mov         r0,r9                                   
ram:00001d38    7dffffeb        bl          FUN_00001b34                            ;undefined FUN_00001b34()
                            LAB_00001d3c:                 ;XREF[2,0]:   00001d00,00001d2c
ram:00001d3c    2cd08de2        add         sp,sp,#0x2c                             
ram:00001d40    f08fbde8        ldmia       sp!,{r4 r5 r6 r7 r8 r9 r10 r11 pc}      
                            ;************************************************************************************************
                            ;*                                           FUNCTION                                           *
                            ;************************************************************************************************
                            ;undefined FUN_00001d44()
ram:00001d44    f05f2de9        stmdb       sp!,{r4 r5 r6 r7 r8 r9 r10 r11 r12 lr}  
ram:00001d48    0050a0e1        mov         r5,r0                                   
ram:00001d4c    0180a0e1        mov         r8,r1                                   
ram:00001d50    0040a0e3        mov         r4,#0x0                                 
ram:00001d54    0070a0e3        mov         r7,#0x0                                 
ram:00001d58    0090a0e3        mov         r9,#0x0                                 
ram:00001d5c    20a0a0e3        mov         r10,#0x20                               
ram:00001d60    0000d5e5        ldrb        r0,[r5,#0x0]                            
ram:00001d64    300050e3        cmp         r0,#0x30                                
ram:00001d68    0000001a        bne         LAB_00001d70                            
ram:00001d6c    30a0a0e3        mov         r10,#0x30                               
                            LAB_00001d70:                 ;XREF[1,0]:   00001d68
ram:00001d70    6c0000ea        b           LAB_00001f28                            
                            LAB_00001d74:                 ;XREF[1,0]:   00001f30
ram:00001d74    300056e3        cmp         r6,#0x30                                
ram:00001d78    050000ba        blt         LAB_00001d94                            
ram:00001d7c    390056e3        cmp         r6,#0x39                                
ram:00001d80    030000ca        bgt         LAB_00001d94                            
ram:00001d84    300046e2        sub         r0,r6,#0x30                             
ram:00001d88    041184e0        add         r1,r4,r4, lsl #0x2                      
ram:00001d8c    814080e0        add         r4,r0,r1, lsl #0x1                      
ram:00001d90    610000ea        b           LAB_00001f1c                            
                            LAB_00001d94:                 ;XREF[2,0]:   00001d78,00001d80
ram:00001d94    640056e3        cmp         r6,#0x64                                
ram:00001d98    4b00000a        beq         LAB_00001ecc                            
ram:00001d9c    0c0000ca        bgt         LAB_00001dd4                            
ram:00001da0    2d0056e3        cmp         r6,#0x2d                                
ram:00001da4    2000000a        beq         LAB_00001e2c                            
ram:00001da8    040000ca        bgt         LAB_00001dc0                            
ram:00001dac    000056e3        cmp         r6,#0x0                                 
ram:00001db0    1400000a        beq         LAB_00001e08                            
ram:00001db4    250056e3        cmp         r6,#0x25                                
ram:00001db8    5300001a        bne         LAB_00001f0c                            
ram:00001dbc    150000ea        b           LAB_00001e18                            
                            LAB_00001dc0:                 ;XREF[1,0]:   00001da8
ram:00001dc0    580056e3        cmp         r6,#0x58                                
ram:00001dc4    4a00000a        beq         LAB_00001ef4                            
ram:00001dc8    630056e3        cmp         r6,#0x63                                
ram:00001dcc    4e00001a        bne         LAB_00001f0c                            
ram:00001dd0    180000ea        b           LAB_00001e38                            
                            LAB_00001dd4:                 ;XREF[1,0]:   00001d9c
ram:00001dd4    730056e3        cmp         r6,#0x73                                
ram:00001dd8    2600000a        beq         LAB_00001e78                            
ram:00001ddc    040000ca        bgt         LAB_00001df4                            
ram:00001de0    690056e3        cmp         r6,#0x69                                
ram:00001de4    3a00000a        beq         LAB_00001ed4                            
ram:00001de8    6f0056e3        cmp         r6,#0x6f                                
ram:00001dec    4600001a        bne         LAB_00001f0c                            
ram:00001df0    420000ea        b           LAB_00001f00                            
                            LAB_00001df4:                 ;XREF[1,0]:   00001ddc
ram:00001df4    750056e3        cmp         r6,#0x75                                
ram:00001df8    3700000a        beq         LAB_00001edc                            
ram:00001dfc    780056e3        cmp         r6,#0x78                                
ram:00001e00    4100001a        bne         LAB_00001f0c                            
ram:00001e04    370000ea        b           LAB_00001ee8                            
                            LAB_00001e08:                 ;XREF[1,0]:   00001db0
ram:00001e08    0000a0e1        mov         r0,r0                                   
ram:00001e0c    010045e2        sub         r0,r5,#0x1                              
ram:00001e10    0050a0e1        mov         r5,r0                                   
                            LAB_00001e14:                 ;XREF[4,0]:   00001e28,00001e74,00001ec8,00001f5c
ram:00001e14    f09fbde8        ldmia       sp!,{r4 r5 r6 r7 r8 r9 r10 r11 r12 pc}  
                            LAB_00001e18:                 ;XREF[1,0]:   00001dbc
ram:00001e18    0000a0e1        mov         r0,r0                                   
ram:00001e1c    2500a0e3        mov         r0,#0x25                                
ram:00001e20    2affffeb        bl          FUN_00001ad0                            ;undefined FUN_00001ad0()
ram:00001e24    0500a0e1        mov         r0,r5                                   
ram:00001e28    f9ffffea        b           LAB_00001e14                            
                            LAB_00001e2c:                 ;XREF[1,0]:   00001da4
ram:00001e2c    0000a0e1        mov         r0,r0                                   
ram:00001e30    0170a0e3        mov         r7,#0x1                                 
ram:00001e34    370000ea        b           LAB_00001f18                            
                            LAB_00001e38:                 ;XREF[1,0]:   00001dd0
ram:00001e38    0000a0e1        mov         r0,r0                                   
ram:00001e3c    000057e3        cmp         r7,#0x0                                 
ram:00001e40    0100000a        beq         LAB_00001e4c                            
ram:00001e44    7f0008e2        and         r0,r8,#0x7f                             
ram:00001e48    20ffffeb        bl          FUN_00001ad0                            ;undefined FUN_00001ad0()
                            LAB_00001e4c:                 ;XREF[1,0]:   00001e40
ram:00001e4c    000054e3        cmp         r4,#0x0                                 
ram:00001e50    020000da        ble         LAB_00001e60                            
ram:00001e54    011044e2        sub         r1,r4,#0x1                              
ram:00001e58    0a00a0e1        mov         r0,r10                                  
ram:00001e5c    34ffffeb        bl          FUN_00001b34                            ;undefined FUN_00001b34()
                            LAB_00001e60:                 ;XREF[1,0]:   00001e50
ram:00001e60    000057e3        cmp         r7,#0x0                                 
ram:00001e64    0100001a        bne         LAB_00001e70                            
ram:00001e68    7f0008e2        and         r0,r8,#0x7f                             
ram:00001e6c    17ffffeb        bl          FUN_00001ad0                            ;undefined FUN_00001ad0()
                            LAB_00001e70:                 ;XREF[1,0]:   00001e64
ram:00001e70    0500a0e1        mov         r0,r5                                   
ram:00001e74    e6ffffea        b           LAB_00001e14                            
                            LAB_00001e78:                 ;XREF[1,0]:   00001dd8
ram:00001e78    0000a0e1        mov         r0,r0                                   
ram:00001e7c    000057e3        cmp         r7,#0x0                                 
ram:00001e80    0100000a        beq         LAB_00001e8c                            
ram:00001e84    0800a0e1        mov         r0,r8                                   
ram:00001e88    1fffffeb        bl          FUN_00001b0c                            ;undefined FUN_00001b0c()
                            LAB_00001e8c:                 ;XREF[1,0]:   00001e80
ram:00001e8c    0800a0e1        mov         r0,r8                                   
ram:00001e90    b80300fa        blx         FUN_00002d78                            ;undefined FUN_00002d78()
ram:00001e94    040050e1        cmp         r0,r4                                   
ram:00001e98    0500002a        bcs         LAB_00001eb4                            
ram:00001e9c    0800a0e1        mov         r0,r8                                   
ram:00001ea0    b40300fa        blx         FUN_00002d78                            ;undefined FUN_00002d78()
ram:00001ea4    00b044e0        sub         r11,r4,r0                               
ram:00001ea8    0b10a0e1        mov         r1,r11                                  
ram:00001eac    0a00a0e1        mov         r0,r10                                  
ram:00001eb0    1fffffeb        bl          FUN_00001b34                            ;undefined FUN_00001b34()
                            LAB_00001eb4:                 ;XREF[1,0]:   00001e98
ram:00001eb4    000057e3        cmp         r7,#0x0                                 
ram:00001eb8    0100001a        bne         LAB_00001ec4                            
ram:00001ebc    0800a0e1        mov         r0,r8                                   
ram:00001ec0    11ffffeb        bl          FUN_00001b0c                            ;undefined FUN_00001b0c()
                            LAB_00001ec4:                 ;XREF[1,0]:   00001eb8
ram:00001ec4    0500a0e1        mov         r0,r5                                   
ram:00001ec8    d1ffffea        b           LAB_00001e14                            
                            LAB_00001ecc:                 ;XREF[1,0]:   00001d98
ram:00001ecc    0000a0e1        mov         r0,r0                                   
ram:00001ed0    0000a0e1        mov         r0,r0                                   
                            LAB_00001ed4:                 ;XREF[1,0]:   00001de4
ram:00001ed4    0990e0e3        mvn         r9,#0x9                                 
ram:00001ed8    0e0000ea        b           LAB_00001f18                            
                            LAB_00001edc:                 ;XREF[1,0]:   00001df8
ram:00001edc    0000a0e1        mov         r0,r0                                   
ram:00001ee0    0a90a0e3        mov         r9,#0xa                                 
ram:00001ee4    0b0000ea        b           LAB_00001f18                            
                            LAB_00001ee8:                 ;XREF[1,0]:   00001e04
ram:00001ee8    0000a0e1        mov         r0,r0                                   
ram:00001eec    1090a0e3        mov         r9,#0x10                                
ram:00001ef0    080000ea        b           LAB_00001f18                            
                            LAB_00001ef4:                 ;XREF[1,0]:   00001dc4
ram:00001ef4    0000a0e1        mov         r0,r0                                   
ram:00001ef8    1090a0e3        mov         r9,#0x10                                
ram:00001efc    050000ea        b           LAB_00001f18                            
                            LAB_00001f00:                 ;XREF[1,0]:   00001df0
ram:00001f00    0000a0e1        mov         r0,r0                                   
ram:00001f04    0890a0e3        mov         r9,#0x8                                 
ram:00001f08    020000ea        b           LAB_00001f18                            
                            LAB_00001f0c:                 ;XREF[4,0]:   00001db8,00001dcc,00001dec,00001e00
ram:00001f0c    0000a0e1        mov         r0,r0                                   
ram:00001f10    0390a0e3        mov         r9,#0x3                                 
ram:00001f14    0000a0e1        mov         r0,r0                                   
                            LAB_00001f18:                 ;XREF[6,0]:   00001e34,00001ed8,00001ee4,00001ef0
                                                          ;             00001efc,00001f08
ram:00001f18    0000a0e1        mov         r0,r0                                   
                            LAB_00001f1c:                 ;XREF[1,0]:   00001d90
ram:00001f1c    000059e3        cmp         r9,#0x0                                 
ram:00001f20    0000000a        beq         LAB_00001f28                            
ram:00001f24    020000ea        b           LAB_00001f34                            
                            LAB_00001f28:                 ;XREF[2,0]:   00001d70,00001f20
ram:00001f28    0160d5e4        ldrb        r6,[r5],#0x1                            
ram:00001f2c    000056e3        cmp         r6,#0x0                                 
ram:00001f30    8fffff1a        bne         LAB_00001d74                            
                            LAB_00001f34:                 ;XREF[1,0]:   00001f24
ram:00001f34    0000a0e1        mov         r0,r0                                   
ram:00001f38    000057e3        cmp         r7,#0x0                                 
ram:00001f3c    0000000a        beq         LAB_00001f44                            
ram:00001f40    004064e2        rsb         r4,r4,#0x0                              
                            LAB_00001f44:                 ;XREF[1,0]:   00001f3c
ram:00001f44    0a30a0e1        mov         r3,r10                                  
ram:00001f48    0420a0e1        mov         r2,r4                                   
ram:00001f4c    0910a0e1        mov         r1,r9                                   
ram:00001f50    0800a0e1        mov         r0,r8                                   
ram:00001f54    0affffeb        bl          FUN_00001b84                            ;undefined FUN_00001b84()
ram:00001f58    0500a0e1        mov         r0,r5                                   
ram:00001f5c    acffffea        b           LAB_00001e14                            
ram:00001f60    0f              ??          0Fh                                     
ram:00001f61    00              ??          00h                                     
ram:00001f62    2d              ??          2Dh    -                                
ram:00001f63    e9              ??          E9h                                     
ram:00001f64    10              ??          10h                                     
ram:00001f65    40              ??          40h    @                                
ram:00001f66    2d              ??          2Dh    -                                
ram:00001f67    e9              ??          E9h                                     
ram:00001f68    0c              ??          0Ch                                     
ram:00001f69    40              ??          40h    @                                
ram:00001f6a    8d              ??          8Dh                                     
ram:00001f6b    e2              ??          E2h                                     
ram:00001f6c    11              ??          11h                                     
ram:00001f6d    00              ??          00h                                     
ram:00001f6e    00              ??          00h                                     
ram:00001f6f    ea              ??          EAh                                     
ram:00001f70    08              ??          08h                                     
ram:00001f71    00              ??          00h                                     
ram:00001f72    9d              ??          9Dh                                     
ram:00001f73    e5              ??          E5h                                     
ram:00001f74    00              ??          00h                                     
ram:00001f75    00              ??          00h                                     
ram:00001f76    d0              ??          D0h                                     
ram:00001f77    e5              ??          E5h                                     
ram:00001f78    25              ??          25h    %                                
ram:00001f79    00              ??          00h                                     
ram:00001f7a    50              ??          50h    P                                
ram:00001f7b    e3              ??          E3h                                     
ram:00001f7c    07              ??          07h                                     
ram:00001f7d    00              ??          00h                                     
ram:00001f7e    00              ??          00h                                     
ram:00001f7f    1a              ??          1Ah                                     
ram:00001f80    04              ??          04h                                     
ram:00001f81    00              ??          00h                                     
ram:00001f82    84              ??          84h                                     
ram:00001f83    e2              ??          E2h                                     
ram:00001f84    00              ??          00h                                     
ram:00001f85    40              ??          40h    @                                
ram:00001f86    a0              ??          A0h                                     
ram:00001f87    e1              ??          E1h                                     
ram:00001f88    04              ??          04h                                     
ram:00001f89    10              ??          10h                                     
ram:00001f8a    10              ??          10h                                     
ram:00001f8b    e5              ??          E5h                                     
ram:00001f8c    08              ??          08h                                     
ram:00001f8d    00              ??          00h                                     
ram:00001f8e    9d              ??          9Dh                                     
ram:00001f8f    e5              ??          E5h                                     
ram:00001f90    01              ??          01h                                     
ram:00001f91    00              ??          00h                                     
ram:00001f92    80              ??          80h                                     
ram:00001f93    e2              ??          E2h                                     
ram:00001f94    6a              ??          6Ah    j                                
ram:00001f95    ff              ??          FFh                                     
ram:00001f96    ff              ??          FFh                                     
ram:00001f97    eb              ??          EBh                                     
ram:00001f98    08              ??          08h                                     
ram:00001f99    00              ??          00h                                     
ram:00001f9a    8d              ??          8Dh                                     
ram:00001f9b    e5              ??          E5h                                     
ram:00001f9c    05              ??          05h                                     
ram:00001f9d    00              ??          00h                                     
ram:00001f9e    00              ??          00h                                     
ram:00001f9f    ea              ??          EAh                                     
ram:00001fa0    08              ??          08h                                     
ram:00001fa1    10              ??          10h                                     
ram:00001fa2    9d              ??          9Dh                                     
ram:00001fa3    e5              ??          E5h                                     
ram:00001fa4    00              ??          00h                                     
ram:00001fa5    00              ??          00h                                     
ram:00001fa6    d1              ??          D1h                                     
ram:00001fa7    e5              ??          E5h                                     
ram:00001fa8    08              ??          08h                                     
ram:00001fa9    20              ??          20h                                     
ram:00001faa    9d              ??          9Dh                                     
ram:00001fab    e5              ??          E5h                                     
ram:00001fac    01              ??          01h                                     
ram:00001fad    20              ??          20h                                     
ram:00001fae    82              ??          82h                                     
ram:00001faf    e2              ??          E2h                                     
ram:00001fb0    08              ??          08h                                     
ram:00001fb1    20              ??          20h                                     
ram:00001fb2    8d              ??          8Dh                                     
ram:00001fb3    e5              ??          E5h                                     
ram:00001fb4    c5              ??          C5h                                     
ram:00001fb5    fe              ??          FEh                                     
ram:00001fb6    ff              ??          FFh                                     
ram:00001fb7    eb              ??          EBh                                     
ram:00001fb8    08              ??          08h                                     
ram:00001fb9    00              ??          00h                                     
ram:00001fba    9d              ??          9Dh                                     
ram:00001fbb    e5              ??          E5h                                     
ram:00001fbc    00              ??          00h                                     
ram:00001fbd    00              ??          00h                                     
ram:00001fbe    d0              ??          D0h                                     
ram:00001fbf    e5              ??          E5h                                     
ram:00001fc0    00              ??          00h                                     
ram:00001fc1    00              ??          00h                                     
ram:00001fc2    50              ??          50h    P                                
ram:00001fc3    e3              ??          E3h                                     
ram:00001fc4    e9              ??          E9h                                     
ram:00001fc5    ff              ??          FFh                                     
ram:00001fc6    ff              ??          FFh                                     
ram:00001fc7    1a              ??          1Ah                                     
ram:00001fc8    04              ??          04h                                     
ram:00001fc9    40              ??          40h    @                                
ram:00001fca    9d              ??          9Dh                                     
ram:00001fcb    e4              ??          E4h                                     
ram:00001fcc    14              ??          14h                                     
ram:00001fcd    f0              ??          F0h                                     
ram:00001fce    9d              ??          9Dh                                     
ram:00001fcf    e4              ??          E4h                                     
                            DAT_00001fd0:                 ;XREF[1,0]:   00001978
ram:00001fd0    80651406        undefined4  06146580h                               
                            DAT_00001fd4:                 ;XREF[2,0]:   00001998,000019ac
ram:00001fd4    9008c201        undefined4  01C20890h                               
                            DAT_00001fd8:                 ;XREF[1,0]:   000019b4
ram:00001fd8    6800c201        undefined4  01C20068h                               
                            DAT_00001fdc:                 ;XREF[2,0]:   00001a04,00001ad8
ram:00001fdc    0050c201        undefined4  01C25000h                               
                            ;************************************************************************************************
                            ;*                                           FUNCTION                                           *
                            ;************************************************************************************************
                            ;undefined FUN_00001fe0()
          ;local_8       undefined4          -8                      ;XREF[4,0]:   00001ff4,00002020,00002028,0000202c
          ;local_c       undefined4          -c                      ;XREF[4,0]:   00002000,00002008,00002010,00002014
          ;local_10      undefined4         -10                      ;XREF[2,0]:   00001fec,00002030
                                                          ;XREF[6,0]:   0000058c,00000678,00000710,0000271c
                                                          ;             00002784,00002934
ram:00001fe0    0e402de9        stmdb       sp!,{r1 r2 r3 lr}                       
ram:00001fe4    801280e0        add         r1,r0,r0, lsl #0x5                      
ram:00001fe8    8110a0e1        mov         r1,r1, lsl #0x1                         
ram:00001fec    00108de5        str         r1,[sp,#0x0]=>local_10                  
ram:00001ff0    0010a0e3        mov         r1,#0x0                                 
ram:00001ff4    08108de5        str         r1,[sp,#local_8+0x10]                   
ram:00001ff8    0b0000ea        b           LAB_0000202c                            
                            LAB_00001ffc:                 ;XREF[1,0]:   00002038
ram:00001ffc    0010a0e3        mov         r1,#0x0                                 
ram:00002000    04108de5        str         r1,[sp,#local_c+0x10]                   
ram:00002004    020000ea        b           LAB_00002014                            
                            LAB_00002008:                 ;XREF[1,0]:   0000201c
ram:00002008    04109de5        ldr         r1,[sp,#local_c+0x10]                   
ram:0000200c    011081e2        add         r1,r1,#0x1                              
ram:00002010    04108de5        str         r1,[sp,#local_c+0x10]                   
                            LAB_00002014:                 ;XREF[1,0]:   00002004
ram:00002014    04109de5        ldr         r1,[sp,#local_c+0x10]                   
ram:00002018    140051e3        cmp         r1,#0x14                                
ram:0000201c    f9ffff3a        bcc         LAB_00002008                            
ram:00002020    08109de5        ldr         r1,[sp,#local_8+0x10]                   
ram:00002024    011081e2        add         r1,r1,#0x1                              
ram:00002028    08108de5        str         r1,[sp,#local_8+0x10]                   
                            LAB_0000202c:                 ;XREF[1,0]:   00001ff8
ram:0000202c    08109de5        ldr         r1,[sp,#local_8+0x10]                   
ram:00002030    00209de5        ldr         r2,[sp,#0x0]=>local_10                  
ram:00002034    020051e1        cmp         r1,r2                                   
ram:00002038    efffff3a        bcc         LAB_00001ffc                            
ram:0000203c    0e80bde8        ldmia       sp!,{r1 r2 r3 pc}                       
                            ;************************************************************************************************
                            ;*                                           FUNCTION                                           *
                            ;************************************************************************************************
                            ;undefined FUN_00002040()
          ;local_20      undefined4         -20                      ;XREF[4,0]:   00002078,000020a4,000020ac,000020b0
          ;local_24      undefined4         -24                      ;XREF[4,0]:   00002084,0000208c,00002094,00002098
          ;local_28      undefined4         -28                      ;XREF[2,0]:   00002070,000020b4
ram:00002040    fe432de9        stmdb       sp!,{r1 r2 r3 r4 r5 r6 r7 r8 r9 lr}     
ram:00002044    0040a0e1        mov         r4,r0                                   
ram:00002048    0400a0e1        mov         r0,r4                                   
ram:0000204c    a10400eb        bl          FUN_000032d8                            ;undefined FUN_000032d8()
ram:00002050    0090a0e1        mov         r9,r0                                   
ram:00002054    860400eb        bl          FUN_00003274                            ;undefined FUN_00003274()
ram:00002058    0070a0e1        mov         r7,r0                                   
ram:0000205c    60209fe5        ldr         r2,[DAT_000020c4]                       ;= D3C36113h
ram:00002060    60309fe5        ldr         r3,[DAT_000020c8]                       ;= 402B452Bh
ram:00002064    f20300eb        bl          FUN_00003034                            ;undefined FUN_00003034()
ram:00002068    0050a0e1        mov         r5,r0                                   
ram:0000206c    d40300eb        bl          FUN_00002fc4                            ;undefined FUN_00002fc4()
ram:00002070    00008de5        str         r0,[sp,#0x0]=>local_28                  
ram:00002074    0000a0e3        mov         r0,#0x0                                 
ram:00002078    08008de5        str         r0,[sp,#local_20+0x28]                  
ram:0000207c    0b0000ea        b           LAB_000020b0                            
                            LAB_00002080:                 ;XREF[1,0]:   000020bc
ram:00002080    0000a0e3        mov         r0,#0x0                                 
ram:00002084    04008de5        str         r0,[sp,#local_24+0x28]                  
ram:00002088    020000ea        b           LAB_00002098                            
                            LAB_0000208c:                 ;XREF[1,0]:   000020a0
ram:0000208c    04009de5        ldr         r0,[sp,#local_24+0x28]                  
ram:00002090    010080e2        add         r0,r0,#0x1                              
ram:00002094    04008de5        str         r0,[sp,#local_24+0x28]                  
                            LAB_00002098:                 ;XREF[1,0]:   00002088
ram:00002098    04009de5        ldr         r0,[sp,#local_24+0x28]                  
ram:0000209c    000050e3        cmp         r0,#0x0                                 
ram:000020a0    f9ffff0a        beq         LAB_0000208c                            
ram:000020a4    08009de5        ldr         r0,[sp,#local_20+0x28]                  
ram:000020a8    010080e2        add         r0,r0,#0x1                              
ram:000020ac    08008de5        str         r0,[sp,#local_20+0x28]                  
                            LAB_000020b0:                 ;XREF[1,0]:   0000207c
ram:000020b0    08009de5        ldr         r0,[sp,#local_20+0x28]                  
ram:000020b4    00109de5        ldr         r1,[sp,#0x0]=>local_28                  
ram:000020b8    010050e1        cmp         r0,r1                                   
ram:000020bc    efffff3a        bcc         LAB_00002080                            
ram:000020c0    fe83bde8        ldmia       sp!,{r1 r2 r3 r4 r5 r6 r7 r8 r9 pc}     
                            DAT_000020c4:                 ;XREF[1,0]:   0000205c
ram:000020c4    1361c3d3        undefined4  D3C36113h                               
                            DAT_000020c8:                 ;XREF[1,0]:   00002060
ram:000020c8    2b452b40        undefined4  402B452Bh                               
                            ;************************************************************************************************
                            ;*                                           FUNCTION                                           *
                            ;************************************************************************************************
                            ;undefined FUN_000020cc()
                                                          ;XREF[1,0]:   000024fc
ram:000020cc    0020a0e1        mov         r2,r0                                   
ram:000020d0    0130a0e1        mov         r3,r1                                   
ram:000020d4    0000d2e5        ldrb        r0,[r2,#0x0]                            
ram:000020d8    1eff2fe1        bx          lr                                      
ram:000020dc    00              ??          00h                                     
ram:000020dd    20              ??          20h                                     
ram:000020de    a0              ??          A0h                                     
ram:000020df    e1              ??          E1h                                     
ram:000020e0    01              ??          01h                                     
ram:000020e1    30              ??          30h    0                                
ram:000020e2    a0              ??          A0h                                     
ram:000020e3    e1              ??          E1h                                     
ram:000020e4    b0              ??          B0h                                     
ram:000020e5    00              ??          00h                                     
ram:000020e6    d2              ??          D2h                                     
ram:000020e7    e1              ??          E1h                                     
ram:000020e8    1e              ??          1Eh                                     
ram:000020e9    ff              ??          FFh                                     
ram:000020ea    2f              ??          2Fh    /                                
ram:000020eb    e1              ??          E1h                                     
                            ;************************************************************************************************
                            ;*                                           FUNCTION                                           *
                            ;************************************************************************************************
                            ;undefined FUN_000020ec()
                                                          ;XREF[15,0]:  00002140,00002168,00002190,000021b8
                                                          ;             000021e4,0000220c,00002250,00002284
                                                          ;             000022a0,000022d0,00002310,0000234c
                                                          ;             0000238c,0000249c,000024d4
ram:000020ec    0020a0e1        mov         r2,r0                                   
ram:000020f0    0130a0e1        mov         r3,r1                                   
ram:000020f4    000092e5        ldr         r0,[r2,#0x0]                            
ram:000020f8    1eff2fe1        bx          lr                                      
ram:000020fc    00              ??          00h                                     
ram:000020fd    20              ??          20h                                     
ram:000020fe    a0              ??          A0h                                     
ram:000020ff    e1              ??          E1h                                     
ram:00002100    01              ??          01h                                     
ram:00002101    30              ??          30h    0                                
ram:00002102    a0              ??          A0h                                     
ram:00002103    e1              ??          E1h                                     
ram:00002104    d0              ??          D0h                                     
ram:00002105    00              ??          00h                                     
ram:00002106    c2              ??          C2h                                     
ram:00002107    e1              ??          E1h                                     
ram:00002108    1e              ??          1Eh                                     
ram:00002109    ff              ??          FFh                                     
ram:0000210a    2f              ??          2Fh    /                                
ram:0000210b    e1              ??          E1h                                     
                            ;************************************************************************************************
                            ;*                                           FUNCTION                                           *
                            ;************************************************************************************************
                            ;undefined FUN_0000210c()
                                                          ;XREF[1,0]:   00002414
ram:0000210c    0020c0e5        strb        r2,[r0,#0x0]                            
ram:00002110    1eff2fe1        bx          lr                                      
ram:00002114    b0              ??          B0h                                     
ram:00002115    20              ??          20h                                     
ram:00002116    c0              ??          C0h                                     
ram:00002117    e1              ??          E1h                                     
ram:00002118    1e              ??          1Eh                                     
ram:00002119    ff              ??          FFh                                     
ram:0000211a    2f              ??          2Fh    /                                
ram:0000211b    e1              ??          E1h                                     
                            ;************************************************************************************************
                            ;*                                           FUNCTION                                           *
                            ;************************************************************************************************
                            ;undefined FUN_0000211c()
                                                          ;XREF[17,0]:  0000215c,00002184,000021ac,000021d4
                                                          ;             000021fc,00002224,0000223c,00002270
                                                          ;             000022c0,000022f0,0000232c,0000236c
                                                          ;             000023ac,000023e4,000023f8,00002480
                                                          ;             000024c0
ram:0000211c    002080e5        str         r2,[r0,#0x0]                            
ram:00002120    1eff2fe1        bx          lr                                      
ram:00002124    f0              ??          F0h                                     
ram:00002125    20              ??          20h                                     
ram:00002126    c0              ??          C0h                                     
ram:00002127    e1              ??          E1h                                     
ram:00002128    1e              ??          1Eh                                     
ram:00002129    ff              ??          FFh                                     
ram:0000212a    2f              ??          2Fh    /                                
ram:0000212b    e1              ??          E1h                                     
                            ;************************************************************************************************
                            ;*                                           FUNCTION                                           *
                            ;************************************************************************************************
                            ;undefined FUN_0000212c()
                                                          ;XREF[1,0]:   0000051c
ram:0000212c    f0412de9        stmdb       sp!,{r4 r5 r6 r7 r8 lr}                 
ram:00002130    c4449fe5        ldr         r4,[DAT_000025fc]                       ;= 01C20848h
ram:00002134    0050a0e3        mov         r5,#0x0                                 
ram:00002138    0400a0e1        mov         r0,r4                                   
ram:0000213c    0510a0e1        mov         r1,r5                                   
ram:00002140    e9ffffeb        bl          FUN_000020ec                            ;undefined FUN_000020ec()
ram:00002144    0060a0e1        mov         r6,r0                                   
ram:00002148    0f60c6e3        bic         r6,r6,#0xf                              
ram:0000214c    026086e3        orr         r6,r6,#0x2                              
ram:00002150    0620a0e1        mov         r2,r6                                   
ram:00002154    0400a0e1        mov         r0,r4                                   
ram:00002158    0510a0e1        mov         r1,r5                                   
ram:0000215c    eeffffeb        bl          FUN_0000211c                            ;undefined FUN_0000211c()
ram:00002160    0400a0e1        mov         r0,r4                                   
ram:00002164    0510a0e1        mov         r1,r5                                   
ram:00002168    dfffffeb        bl          FUN_000020ec                            ;undefined FUN_000020ec()
ram:0000216c    0060a0e1        mov         r6,r0                                   
ram:00002170    f060c6e3        bic         r6,r6,#0xf0                             
ram:00002174    206086e3        orr         r6,r6,#0x20                             
ram:00002178    0620a0e1        mov         r2,r6                                   
ram:0000217c    0400a0e1        mov         r0,r4                                   
ram:00002180    0510a0e1        mov         r1,r5                                   
ram:00002184    e4ffffeb        bl          FUN_0000211c                            ;undefined FUN_0000211c()
ram:00002188    0400a0e1        mov         r0,r4                                   
ram:0000218c    0510a0e1        mov         r1,r5                                   
ram:00002190    d5ffffeb        bl          FUN_000020ec                            ;undefined FUN_000020ec()
ram:00002194    0060a0e1        mov         r6,r0                                   
ram:00002198    0f6cc6e3        bic         r6,r6,#0xf00                            
ram:0000219c    026c86e3        orr         r6,r6,#0x200                            
ram:000021a0    0620a0e1        mov         r2,r6                                   
ram:000021a4    0400a0e1        mov         r0,r4                                   
ram:000021a8    0510a0e1        mov         r1,r5                                   
ram:000021ac    daffffeb        bl          FUN_0000211c                            ;undefined FUN_0000211c()
ram:000021b0    0400a0e1        mov         r0,r4                                   
ram:000021b4    0510a0e1        mov         r1,r5                                   
ram:000021b8    cbffffeb        bl          FUN_000020ec                            ;undefined FUN_000020ec()
ram:000021bc    0060a0e1        mov         r6,r0                                   
ram:000021c0    0f6ac6e3        bic         r6,r6,#0xf000                           
ram:000021c4    026a86e3        orr         r6,r6,#0x2000                           
ram:000021c8    0620a0e1        mov         r2,r6                                   
ram:000021cc    0400a0e1        mov         r0,r4                                   
ram:000021d0    0510a0e1        mov         r1,r5                                   
ram:000021d4    d0ffffeb        bl          FUN_0000211c                            ;undefined FUN_0000211c()
ram:000021d8    20449fe5        ldr         r4,[DAT_00002600]                       ;= 01C202C0h
ram:000021dc    0400a0e1        mov         r0,r4                                   
ram:000021e0    0510a0e1        mov         r1,r5                                   
ram:000021e4    c0ffffeb        bl          FUN_000020ec                            ;undefined FUN_000020ec()
ram:000021e8    0060a0e1        mov         r6,r0                                   
ram:000021ec    016686e3        orr         r6,r6,#0x100000                         
ram:000021f0    0620a0e1        mov         r2,r6                                   
ram:000021f4    0400a0e1        mov         r0,r4                                   
ram:000021f8    0510a0e1        mov         r1,r5                                   
ram:000021fc    c6ffffeb        bl          FUN_0000211c                            ;undefined FUN_0000211c()
ram:00002200    264e44e2        sub         r4,r4,#0x260                            
ram:00002204    0400a0e1        mov         r0,r4                                   
ram:00002208    0510a0e1        mov         r1,r5                                   
ram:0000220c    b6ffffeb        bl          FUN_000020ec                            ;undefined FUN_000020ec()
ram:00002210    0060a0e1        mov         r6,r0                                   
ram:00002214    016686e3        orr         r6,r6,#0x100000                         
ram:00002218    0620a0e1        mov         r2,r6                                   
ram:0000221c    0400a0e1        mov         r0,r4                                   
ram:00002220    0510a0e1        mov         r1,r5                                   
ram:00002224    bcffffeb        bl          FUN_0000211c                            ;undefined FUN_0000211c()
ram:00002228    d4439fe5        ldr         r4,[DAT_00002604]                       ;= 01C05000h
ram:0000222c    247094e2        adds        r7,r4,#0x24                             
ram:00002230    0010a5e2        adc         r1,r5,#0x0                              
ram:00002234    cc239fe5        ldr         r2,[DAT_00002608]                       ;= 00001001h
ram:00002238    0700a0e1        mov         r0,r7                                   
ram:0000223c    b6ffffeb        bl          FUN_0000211c                            ;undefined FUN_0000211c()
ram:00002240    0000a0e1        mov         r0,r0                                   
ram:00002244    042094e2        adds        r2,r4,#0x4                              
ram:00002248    0010a5e2        adc         r1,r5,#0x0                              
ram:0000224c    0200a0e1        mov         r0,r2                                   
ram:00002250    a5ffffeb        bl          FUN_000020ec                            ;undefined FUN_000020ec()
ram:00002254    0060a0e1        mov         r6,r0                                   
ram:00002258    026186e3        orr         r6,r6,#0x80000000                       
ram:0000225c    836086e3        orr         r6,r6,#0x83                             
ram:00002260    047094e2        adds        r7,r4,#0x4                              
ram:00002264    0010a5e2        adc         r1,r5,#0x0                              
ram:00002268    0620a0e1        mov         r2,r6                                   
ram:0000226c    0700a0e1        mov         r0,r7                                   
ram:00002270    a9ffffeb        bl          FUN_0000211c                            ;undefined FUN_0000211c()
ram:00002274    0000a0e1        mov         r0,r0                                   
                            LAB_00002278:                 ;XREF[1,0]:   00002290
ram:00002278    042094e2        adds        r2,r4,#0x4                              
ram:0000227c    0010a5e2        adc         r1,r5,#0x0                              
ram:00002280    0200a0e1        mov         r0,r2                                   
ram:00002284    98ffffeb        bl          FUN_000020ec                            ;undefined FUN_000020ec()
ram:00002288    020100e2        and         r0,r0,#0x80000000                       
ram:0000228c    000050e3        cmp         r0,#0x0                                 
ram:00002290    f8ffff1a        bne         LAB_00002278                            
ram:00002294    082094e2        adds        r2,r4,#0x8                              
ram:00002298    0010a5e2        adc         r1,r5,#0x0                              
ram:0000229c    0200a0e1        mov         r0,r2                                   
ram:000022a0    91ffffeb        bl          FUN_000020ec                            ;undefined FUN_000020ec()
ram:000022a4    0060a0e1        mov         r6,r0                                   
ram:000022a8    0360c6e3        bic         r6,r6,#0x3                              
ram:000022ac    446086e3        orr         r6,r6,#0x44                             
ram:000022b0    087094e2        adds        r7,r4,#0x8                              
ram:000022b4    0010a5e2        adc         r1,r5,#0x0                              
ram:000022b8    0620a0e1        mov         r2,r6                                   
ram:000022bc    0700a0e1        mov         r0,r7                                   
ram:000022c0    95ffffeb        bl          FUN_0000211c                            ;undefined FUN_0000211c()
ram:000022c4    182094e2        adds        r2,r4,#0x18                             
ram:000022c8    0010a5e2        adc         r1,r5,#0x0                              
ram:000022cc    0200a0e1        mov         r0,r2                                   
ram:000022d0    85ffffeb        bl          FUN_000020ec                            ;undefined FUN_000020ec()
ram:000022d4    0060a0e1        mov         r6,r0                                   
ram:000022d8    026186e3        orr         r6,r6,#0x80000000                       
ram:000022dc    026986e3        orr         r6,r6,#0x8000                           
ram:000022e0    187094e2        adds        r7,r4,#0x18                             
ram:000022e4    0010a5e2        adc         r1,r5,#0x0                              
ram:000022e8    0620a0e1        mov         r2,r6                                   
ram:000022ec    0700a0e1        mov         r0,r7                                   
ram:000022f0    89ffffeb        bl          FUN_0000211c                            ;undefined FUN_0000211c()
ram:000022f4    f081bde8        ldmia       sp!,{r4 r5 r6 r7 r8 pc}                 
                            ;************************************************************************************************
                            ;*                                           FUNCTION                                           *
                            ;************************************************************************************************
                            ;undefined FUN_000022f8()
ram:000022f8    f0412de9        stmdb       sp!,{r4 r5 r6 r7 r8 lr}                 
ram:000022fc    00439fe5        ldr         r4,[DAT_00002604]                       ;= 01C05000h
ram:00002300    0050a0e3        mov         r5,#0x0                                 
ram:00002304    042094e2        adds        r2,r4,#0x4                              
ram:00002308    0010a5e2        adc         r1,r5,#0x0                              
ram:0000230c    0200a0e1        mov         r0,r2                                   
ram:00002310    75ffffeb        bl          FUN_000020ec                            ;undefined FUN_000020ec()
ram:00002314    0060a0e1        mov         r6,r0                                   
ram:00002318    0360c6e3        bic         r6,r6,#0x3                              
ram:0000231c    047094e2        adds        r7,r4,#0x4                              
ram:00002320    0010a5e2        adc         r1,r5,#0x0                              
ram:00002324    0620a0e1        mov         r2,r6                                   
ram:00002328    0700a0e1        mov         r0,r7                                   
ram:0000232c    7affffeb        bl          FUN_0000211c                            ;undefined FUN_0000211c()
ram:00002330    f081bde8        ldmia       sp!,{r4 r5 r6 r7 r8 pc}                 
                            ;************************************************************************************************
                            ;*                                           FUNCTION                                           *
                            ;************************************************************************************************
                            ;undefined FUN_00002334()
                                                          ;XREF[1,0]:   000025dc
ram:00002334    f0412de9        stmdb       sp!,{r4 r5 r6 r7 r8 lr}                 
ram:00002338    c4529fe5        ldr         r5,[DAT_00002604]                       ;= 01C05000h
ram:0000233c    0060a0e3        mov         r6,#0x0                                 
ram:00002340    082095e2        adds        r2,r5,#0x8                              
ram:00002344    0010a6e2        adc         r1,r6,#0x0                              
ram:00002348    0200a0e1        mov         r0,r2                                   
ram:0000234c    66ffffeb        bl          FUN_000020ec                            ;undefined FUN_000020ec()
ram:00002350    0040a0e1        mov         r4,r0                                   
ram:00002354    b040c4e3        bic         r4,r4,#0xb0                             
ram:00002358    0000a0e1        mov         r0,r0                                   
ram:0000235c    087095e2        adds        r7,r5,#0x8                              
ram:00002360    0010a6e2        adc         r1,r6,#0x0                              
ram:00002364    0420a0e1        mov         r2,r4                                   
ram:00002368    0700a0e1        mov         r0,r7                                   
ram:0000236c    6affffeb        bl          FUN_0000211c                            ;undefined FUN_0000211c()
ram:00002370    f081bde8        ldmia       sp!,{r4 r5 r6 r7 r8 pc}                 
                            ;************************************************************************************************
                            ;*                                           FUNCTION                                           *
                            ;************************************************************************************************
                            ;undefined FUN_00002374()
                                                          ;XREF[1,0]:   000025f4
ram:00002374    f0412de9        stmdb       sp!,{r4 r5 r6 r7 r8 lr}                 
ram:00002378    84529fe5        ldr         r5,[DAT_00002604]                       ;= 01C05000h
ram:0000237c    0060a0e3        mov         r6,#0x0                                 
ram:00002380    082095e2        adds        r2,r5,#0x8                              
ram:00002384    0010a6e2        adc         r1,r6,#0x0                              
ram:00002388    0200a0e1        mov         r0,r2                                   
ram:0000238c    56ffffeb        bl          FUN_000020ec                            ;undefined FUN_000020ec()
ram:00002390    0040a0e1        mov         r4,r0                                   
ram:00002394    b040c4e3        bic         r4,r4,#0xb0                             
ram:00002398    804084e3        orr         r4,r4,#0x80                             
ram:0000239c    087095e2        adds        r7,r5,#0x8                              
ram:000023a0    0010a6e2        adc         r1,r6,#0x0                              
ram:000023a4    0420a0e1        mov         r2,r4                                   
ram:000023a8    0700a0e1        mov         r0,r7                                   
ram:000023ac    5affffeb        bl          FUN_0000211c                            ;undefined FUN_0000211c()
ram:000023b0    f081bde8        ldmia       sp!,{r4 r5 r6 r7 r8 pc}                 
                            ;************************************************************************************************
                            ;*                                           FUNCTION                                           *
                            ;************************************************************************************************
                            ;undefined FUN_000023b4()
                                                          ;XREF[1,0]:   0000248c
ram:000023b4    f0472de9        stmdb       sp!,{r4 r5 r6 r7 r8 r9 r10 lr}          
ram:000023b8    0060a0e1        mov         r6,r0                                   
ram:000023bc    0170a0e1        mov         r7,r1                                   
ram:000023c0    3c429fe5        ldr         r4,[DAT_00002604]                       ;= 01C05000h
ram:000023c4    0050a0e3        mov         r5,#0x0                                 
ram:000023c8    000056e3        cmp         r6,#0x0                                 
ram:000023cc    0000001a        bne         LAB_000023d4                            
ram:000023d0    0070a0e3        mov         r7,#0x0                                 
                            LAB_000023d4:                 ;XREF[1,0]:   000023cc
ram:000023d4    ff24c7e3        bic         r2,r7,#0xff000000                       
ram:000023d8    348094e2        adds        r8,r4,#0x34                             
ram:000023dc    0010a5e2        adc         r1,r5,#0x0                              
ram:000023e0    0800a0e1        mov         r0,r8                                   
ram:000023e4    4cffffeb        bl          FUN_0000211c                            ;undefined FUN_0000211c()
ram:000023e8    ff24c7e3        bic         r2,r7,#0xff000000                       
ram:000023ec    388094e2        adds        r8,r4,#0x38                             
ram:000023f0    0010a5e2        adc         r1,r5,#0x0                              
ram:000023f4    0800a0e1        mov         r0,r8                                   
ram:000023f8    47ffffeb        bl          FUN_0000211c                            ;undefined FUN_0000211c()
ram:000023fc    00a0a0e3        mov         r10,#0x0                                
ram:00002400    050000ea        b           LAB_0000241c                            
                            LAB_00002404:                 ;XREF[1,0]:   00002420
ram:00002404    0120d6e4        ldrb        r2,[r6],#0x1                            
ram:00002408    028c94e2        adds        r8,r4,#0x200                            
ram:0000240c    0010a5e2        adc         r1,r5,#0x0                              
ram:00002410    0800a0e1        mov         r0,r8                                   
ram:00002414    3cffffeb        bl          FUN_0000210c                            ;undefined FUN_0000210c()
ram:00002418    01a08ae2        add         r10,r10,#0x1                            
                            LAB_0000241c:                 ;XREF[1,0]:   00002400
ram:0000241c    07005ae1        cmp         r10,r7                                  
ram:00002420    f7ffffba        blt         LAB_00002404                            
ram:00002424    f087bde8        ldmia       sp!,{r4 r5 r6 r7 r8 r9 r10 pc}          
                            ;************************************************************************************************
                            ;*                                           FUNCTION                                           *
                            ;************************************************************************************************
                            ;undefined FUN_00002428()
          ;local_2c      undefined4         -2c                      ;XREF[1,0]:   00002444
          ;local_30      undefined4         -30                      ;XREF[1,0]:   00002440
          ;local_34      undefined4         -34                      ;XREF[4,0]:   000024e8,00002510,00002518,0000251c
          ;local_38      undefined4         -38                      ;XREF[1,0]:   000024a8
          ;local_3c      undefined4         -3c                      ;XREF[3,0]:   00002470,0000247c,000024b0
          ;local_40      undefined4         -40                      ;XREF[2,0]:   00002474,000024b4
                                                          ;XREF[2,0]:   0000256c,0000258c
ram:00002428    f74f2de9        stmdb       sp!,{r0 r1 r2 r4 r5 r6 r7 r8 r9 r10 r...
ram:0000242c    10d04de2        sub         sp,sp,#0x10                             
ram:00002430    0270a0e1        mov         r7,r2                                   
ram:00002434    c8419fe5        ldr         r4,[DAT_00002604]                       ;= 01C05000h
ram:00002438    0050a0e3        mov         r5,#0x0                                 
ram:0000243c    0780a0e1        mov         r8,r7                                   
ram:00002440    10909de5        ldr         r9,[sp,#local_30+0x40]                  
ram:00002444    14a09de5        ldr         r10,[sp,#local_2c+0x40]                 
ram:00002448    3a0000ea        b           LAB_00002538                            
                            LAB_0000244c:                 ;XREF[1,0]:   0000253c
ram:0000244c    400058e3        cmp         r8,#0x40                                
ram:00002450    010000ca        bgt         LAB_0000245c                            
ram:00002454    0800a0e1        mov         r0,r8                                   
ram:00002458    000000ea        b           LAB_00002460                            
                            LAB_0000245c:                 ;XREF[1,0]:   00002450
ram:0000245c    4000a0e3        mov         r0,#0x40                                
                            LAB_00002460:                 ;XREF[1,0]:   00002458
ram:00002460    0060a0e1        mov         r6,r0                                   
ram:00002464    301094e2        adds        r1,r4,#0x30                             
ram:00002468    0000a5e2        adc         r0,r5,#0x0                              
ram:0000246c    0620a0e1        mov         r2,r6                                   
ram:00002470    04008de5        str         r0,[sp,#local_3c+0x40]                  
ram:00002474    00108de5        str         r1,[sp,#0x0]=>local_40                  
ram:00002478    0100a0e1        mov         r0,r1                                   
ram:0000247c    04109de5        ldr         r1,[sp,#local_3c+0x40]                  
ram:00002480    25ffffeb        bl          FUN_0000211c                            ;undefined FUN_0000211c()
ram:00002484    0610a0e1        mov         r1,r6                                   
ram:00002488    0900a0e1        mov         r0,r9                                   
ram:0000248c    c8ffffeb        bl          FUN_000023b4                            ;undefined FUN_000023b4()
ram:00002490    082094e2        adds        r2,r4,#0x8                              
ram:00002494    0010a5e2        adc         r1,r5,#0x0                              
ram:00002498    0200a0e1        mov         r0,r2                                   
ram:0000249c    12ffffeb        bl          FUN_000020ec                            ;undefined FUN_000020ec()
ram:000024a0    020180e3        orr         r0,r0,#0x80000000                       
ram:000024a4    081094e2        adds        r1,r4,#0x8                              
ram:000024a8    08008de5        str         r0,[sp,#local_38+0x40]                  
ram:000024ac    0000a5e2        adc         r0,r5,#0x0                              
ram:000024b0    04008de5        str         r0,[sp,#local_3c+0x40]                  
ram:000024b4    00108de5        str         r1,[sp,#0x0]=>local_40                  
ram:000024b8    0100a0e1        mov         r0,r1                                   
ram:000024bc    06009de9        ldmib       sp,{r1 r2}                              
ram:000024c0    15ffffeb        bl          FUN_0000211c                            ;undefined FUN_0000211c()
ram:000024c4    0000a0e1        mov         r0,r0                                   
                            LAB_000024c8:                 ;XREF[1,0]:   000024e0
ram:000024c8    1c2094e2        adds        r2,r4,#0x1c                             
ram:000024cc    0010a5e2        adc         r1,r5,#0x0                              
ram:000024d0    0200a0e1        mov         r0,r2                                   
ram:000024d4    04ffffeb        bl          FUN_000020ec                            ;undefined FUN_000020ec()
ram:000024d8    ff0000e2        and         r0,r0,#0xff                             
ram:000024dc    060050e1        cmp         r0,r6                                   
ram:000024e0    f8ffff3a        bcc         LAB_000024c8                            
ram:000024e4    0000a0e3        mov         r0,#0x0                                 
ram:000024e8    0c008de5        str         r0,[sp,#local_34+0x40]                  
ram:000024ec    0a0000ea        b           LAB_0000251c                            
                            LAB_000024f0:                 ;XREF[1,0]:   00002524
ram:000024f0    032c94e2        adds        r2,r4,#0x300                            
ram:000024f4    0010a5e2        adc         r1,r5,#0x0                              
ram:000024f8    0200a0e1        mov         r0,r2                                   
ram:000024fc    f2feffeb        bl          FUN_000020cc                            ;undefined FUN_000020cc()
ram:00002500    00b0a0e1        mov         r11,r0                                  
ram:00002504    00005ae3        cmp         r10,#0x0                                
ram:00002508    0000000a        beq         LAB_00002510                            
ram:0000250c    01b0cae4        strb        r11,[r10],#0x1                          
                            LAB_00002510:                 ;XREF[1,0]:   00002508
ram:00002510    0c009de5        ldr         r0,[sp,#local_34+0x40]                  
ram:00002514    010080e2        add         r0,r0,#0x1                              
ram:00002518    0c008de5        str         r0,[sp,#local_34+0x40]                  
                            LAB_0000251c:                 ;XREF[1,0]:   000024ec
ram:0000251c    0c009de5        ldr         r0,[sp,#local_34+0x40]                  
ram:00002520    060050e1        cmp         r0,r6                                   
ram:00002524    f1ffffba        blt         LAB_000024f0                            
ram:00002528    000059e3        cmp         r9,#0x0                                 
ram:0000252c    0000000a        beq         LAB_00002534                            
ram:00002530    069089e0        add         r9,r9,r6                                
                            LAB_00002534:                 ;XREF[1,0]:   0000252c
ram:00002534    068048e0        sub         r8,r8,r6                                
                            LAB_00002538:                 ;XREF[1,0]:   00002448
ram:00002538    000058e3        cmp         r8,#0x0                                 
ram:0000253c    c2ffffca        bgt         LAB_0000244c                            
ram:00002540    0700a0e1        mov         r0,r7                                   
ram:00002544    1cd08de2        add         sp,sp,#0x1c                             
ram:00002548    f08fbde8        ldmia       sp!,{r4 r5 r6 r7 r8 r9 r10 r11 pc}      
                            ;************************************************************************************************
                            ;*                                           FUNCTION                                           *
                            ;************************************************************************************************
                            ;undefined FUN_0000254c()
                                                          ;XREF[1,0]:   000025f0
ram:0000254c    f0412de9        stmdb       sp!,{r4 r5 r6 r7 r8 lr}                 
ram:00002550    0070a0e1        mov         r7,r0                                   
ram:00002554    0140a0e1        mov         r4,r1                                   
ram:00002558    0260a0e1        mov         r6,r2                                   
ram:0000255c    0350a0e1        mov         r5,r3                                   
ram:00002560    0420a0e1        mov         r2,r4                                   
ram:00002564    0010a0e3        mov         r1,#0x0                                 
ram:00002568    0700a0e1        mov         r0,r7                                   
ram:0000256c    adffffeb        bl          FUN_00002428                            ;undefined FUN_00002428()
ram:00002570    040050e1        cmp         r0,r4                                   
ram:00002574    0100000a        beq         LAB_00002580                            
ram:00002578    0000e0e3        mvn         r0,#0x0                                 
                            LAB_0000257c:                 ;XREF[2,0]:   0000259c,000025a4
ram:0000257c    f081bde8        ldmia       sp!,{r4 r5 r6 r7 r8 pc}                 
                            LAB_00002580:                 ;XREF[1,0]:   00002574
ram:00002580    0520a0e1        mov         r2,r5                                   
ram:00002584    0610a0e1        mov         r1,r6                                   
ram:00002588    0000a0e3        mov         r0,#0x0                                 
ram:0000258c    a5ffffeb        bl          FUN_00002428                            ;undefined FUN_00002428()
ram:00002590    050050e1        cmp         r0,r5                                   
ram:00002594    0100000a        beq         LAB_000025a0                            
ram:00002598    0000e0e3        mvn         r0,#0x0                                 
ram:0000259c    f6ffffea        b           LAB_0000257c                            
                            LAB_000025a0:                 ;XREF[1,0]:   00002594
ram:000025a0    0000a0e3        mov         r0,#0x0                                 
ram:000025a4    f4ffffea        b           LAB_0000257c                            
                            ;************************************************************************************************
                            ;*                                           FUNCTION                                           *
                            ;************************************************************************************************
                            ;undefined FUN_000025a8()
          ;local_15      undefined1         -15                      ;XREF[1,0]:   000025d8
          ;local_16      undefined1         -16                      ;XREF[1,0]:   000025d4
          ;local_17      undefined1         -17                      ;XREF[1,0]:   000025c8
          ;local_18      undefined1         -18                      ;XREF[1,0]:   000025bc
                                                          ;XREF[6,0]:   00000534,00000584,000005fc,00000670
                                                          ;             00000694,00000708
ram:000025a8    f8402de9        stmdb       sp!,{r3 r4 r5 r6 r7 lr}                 
ram:000025ac    0040a0e1        mov         r4,r0                                   
ram:000025b0    0150a0e1        mov         r5,r1                                   
ram:000025b4    0260a0e1        mov         r6,r2                                   
ram:000025b8    0300a0e3        mov         r0,#0x3                                 
ram:000025bc    0000cde5        strb        r0,[sp,#0x0]=>local_18                  
ram:000025c0    0404a0e1        mov         r0,r4, lsl #0x8                         
ram:000025c4    200ca0e1        mov         r0,r0, lsr #0x18                        
ram:000025c8    0100cde5        strb        r0,[sp,#local_17+0x18]                  
ram:000025cc    0408a0e1        mov         r0,r4, lsl #0x10                        
ram:000025d0    200ca0e1        mov         r0,r0, lsr #0x18                        
ram:000025d4    0200cde5        strb        r0,[sp,#local_16+0x18]                  
ram:000025d8    0340cde5        strb        r4,[sp,#local_15+0x18]                  
ram:000025dc    54ffffeb        bl          FUN_00002334                            ;undefined FUN_00002334()
ram:000025e0    0630a0e1        mov         r3,r6                                   
ram:000025e4    0520a0e1        mov         r2,r5                                   
ram:000025e8    0410a0e3        mov         r1,#0x4                                 
ram:000025ec    0d00a0e1        mov         r0,sp                                   
ram:000025f0    d5ffffeb        bl          FUN_0000254c                            ;undefined FUN_0000254c()
ram:000025f4    5effffeb        bl          FUN_00002374                            ;undefined FUN_00002374()
ram:000025f8    f880bde8        ldmia       sp!,{r3 r4 r5 r6 r7 pc}                 
                            DAT_000025fc:                 ;XREF[1,0]:   00002130
ram:000025fc    4808c201        undefined4  01C20848h                               
                            DAT_00002600:                 ;XREF[1,0]:   000021d8
ram:00002600    c002c201        undefined4  01C202C0h                               
                            DAT_00002604:                 ;XREF[6,0]:   00002228,000022fc,00002338,00002378
                                                          ;             000023c0,00002434
ram:00002604    0050c001        undefined4  01C05000h                               
                            DAT_00002608:                 ;XREF[1,0]:   00002234
ram:00002608    01100000        undefined4  00001001h                               ;?  ->  00001001
ram:0000260c    00              ??          00h                                     
ram:0000260d    20              ??          20h                                     
ram:0000260e    a0              ??          A0h                                     
ram:0000260f    e1              ??          E1h                                     
ram:00002610    01              ??          01h                                     
ram:00002611    30              ??          30h    0                                
ram:00002612    a0              ??          A0h                                     
ram:00002613    e1              ??          E1h                                     
ram:00002614    00              ??          00h                                     
ram:00002615    00              ??          00h                                     
ram:00002616    d2              ??          D2h                                     
ram:00002617    e5              ??          E5h                                     
ram:00002618    1e              ??          1Eh                                     
ram:00002619    ff              ??          FFh                                     
ram:0000261a    2f              ??          2Fh    /                                
ram:0000261b    e1              ??          E1h                                     
ram:0000261c    00              ??          00h                                     
ram:0000261d    20              ??          20h                                     
ram:0000261e    a0              ??          A0h                                     
ram:0000261f    e1              ??          E1h                                     
ram:00002620    01              ??          01h                                     
ram:00002621    30              ??          30h    0                                
ram:00002622    a0              ??          A0h                                     
ram:00002623    e1              ??          E1h                                     
ram:00002624    b0              ??          B0h                                     
ram:00002625    00              ??          00h                                     
ram:00002626    d2              ??          D2h                                     
ram:00002627    e1              ??          E1h                                     
ram:00002628    1e              ??          1Eh                                     
ram:00002629    ff              ??          FFh                                     
ram:0000262a    2f              ??          2Fh    /                                
ram:0000262b    e1              ??          E1h                                     
                            ;************************************************************************************************
                            ;*                                           FUNCTION                                           *
                            ;************************************************************************************************
                            ;undefined FUN_0000262c()
                                                          ;XREF[14,0]:  000026bc,00002700,00002728,00002748
                                                          ;             00002768,00002790,000028f8,00002918
                                                          ;             00002940,000029f4,00002a18,00002a3c
                                                          ;             00002aa4,00002af8
ram:0000262c    0020a0e1        mov         r2,r0                                   
ram:00002630    0130a0e1        mov         r3,r1                                   
ram:00002634    000092e5        ldr         r0,[r2,#0x0]                            
ram:00002638    1eff2fe1        bx          lr                                      
ram:0000263c    00              ??          00h                                     
ram:0000263d    20              ??          20h                                     
ram:0000263e    a0              ??          A0h                                     
ram:0000263f    e1              ??          E1h                                     
ram:00002640    01              ??          01h                                     
ram:00002641    30              ??          30h    0                                
ram:00002642    a0              ??          A0h                                     
ram:00002643    e1              ??          E1h                                     
ram:00002644    d0              ??          D0h                                     
ram:00002645    00              ??          00h                                     
ram:00002646    c2              ??          C2h                                     
ram:00002647    e1              ??          E1h                                     
ram:00002648    1e              ??          1Eh                                     
ram:00002649    ff              ??          FFh                                     
ram:0000264a    2f              ??          2Fh    /                                
ram:0000264b    e1              ??          E1h                                     
ram:0000264c    00              ??          00h                                     
ram:0000264d    20              ??          20h                                     
ram:0000264e    c0              ??          C0h                                     
ram:0000264f    e5              ??          E5h                                     
ram:00002650    1e              ??          1Eh                                     
ram:00002651    ff              ??          FFh                                     
ram:00002652    2f              ??          2Fh    /                                
ram:00002653    e1              ??          E1h                                     
ram:00002654    b0              ??          B0h                                     
ram:00002655    20              ??          20h                                     
ram:00002656    c0              ??          C0h                                     
ram:00002657    e1              ??          E1h                                     
ram:00002658    1e              ??          1Eh                                     
ram:00002659    ff              ??          FFh                                     
ram:0000265a    2f              ??          2Fh    /                                
ram:0000265b    e1              ??          E1h                                     
                            ;************************************************************************************************
                            ;*                                           FUNCTION                                           *
                            ;************************************************************************************************
                            ;undefined FUN_0000265c()
                                                          ;XREF[38,0]:  000026d0,000026f4,00002714,0000273c
                                                          ;             0000275c,0000277c,000027a8,000027d4
                                                          ;             000027e8,00002808,00002820,00002834
                                                          ;             00002854,00002864,00002874,000028c8
                                                          ;             000028d8,0000290c,0000292c,00002958
                                                          ;             0000297c,0000299c,000029b0,000029c4
                                                          ;             000029d8,000029e8,00002a0c,00002a30
                                                          ;             00002a54,00002a78,00002a88,00002abc
                                                          ;             00002adc,00002aec,00002b10,00002b20
                                                          ;             00002b30,00002cac
ram:0000265c    002080e5        str         r2,[r0,#0x0]                            
ram:00002660    1eff2fe1        bx          lr                                      
ram:00002664    f0              ??          F0h                                     
ram:00002665    20              ??          20h                                     
ram:00002666    c0              ??          C0h                                     
ram:00002667    e1              ??          E1h                                     
ram:00002668    1e              ??          1Eh                                     
ram:00002669    ff              ??          FFh                                     
ram:0000266a    2f              ??          2Fh    /                                
ram:0000266b    e1              ??          E1h                                     
                            ;************************************************************************************************
                            ;*                                           FUNCTION                                           *
                            ;************************************************************************************************
                            ;undefined FUN_0000266c()
          ;local_28      undefined4         -28                      ;XREF[2,0]:   000026b0,000027d8
          ;local_2c      undefined4         -2c                      ;XREF[2,0]:   0000268c,00002838
          ;local_30      undefined4         -30                      ;XREF[2,0]:   00002694,00002840
          ;local_34      undefined4         -34                      ;XREF[2,0]:   000026a0,000026dc
          ;local_38      undefined4         -38                      ;XREF[2,0]:   000026a8,000026d4
                                                          ;XREF[1,0]:   00002cdc
ram:0000266c    f04f2de9        stmdb       sp!,{r4 r5 r6 r7 r8 r9 r10 r11 lr}      
ram:00002670    14d04de2        sub         sp,sp,#0x14                             
ram:00002674    0050a0e1        mov         r5,r0                                   
ram:00002678    d4769fe5        ldr         r7,[DAT_00002d54]                       ;= 0000041Fh
ram:0000267c    4580a0e3        mov         r8,#0x45                                
ram:00002680    059047e2        sub         r9,r7,#0x5                              
ram:00002684    18a0a0e3        mov         r10,#0x18                               
ram:00002688    0100a0e3        mov         r0,#0x1                                 
ram:0000268c    0c008de5        str         r0,[sp,#local_2c+0x38]                  
ram:00002690    1700a0e3        mov         r0,#0x17                                
ram:00002694    08008de5        str         r0,[sp,#local_30+0x38]                  
ram:00002698    104095e5        ldr         r4,[r5,#0x10]                           
ram:0000269c    4100a0e3        mov         r0,#0x41                                
ram:000026a0    04008de5        str         r0,[sp,#local_34+0x38]                  
ram:000026a4    0400a0e3        mov         r0,#0x4                                 
ram:000026a8    00008de5        str         r0,[sp,#0x0]=>local_38                  
ram:000026ac    0600a0e3        mov         r0,#0x6                                 
ram:000026b0    10008de5        str         r0,[sp,#local_28+0x38]                  
ram:000026b4    9c069fe5        ldr         r0,[DAT_00002d58]                       ;= 01C20010h
ram:000026b8    0010a0e3        mov         r1,#0x0                                 
ram:000026bc    daffffeb        bl          FUN_0000262c                            ;undefined FUN_0000262c()
ram:000026c0    02b1c0e3        bic         r11,r0,#0x80000000                      
ram:000026c4    0b20a0e1        mov         r2,r11                                  
ram:000026c8    88069fe5        ldr         r0,[DAT_00002d58]                       ;= 01C20010h
ram:000026cc    0010a0e3        mov         r1,#0x0                                 
ram:000026d0    e1ffffeb        bl          FUN_0000265c                            ;undefined FUN_0000265c()
ram:000026d4    0000dde5        ldrb        r0,[sp,#0x0]=>local_38                  
ram:000026d8    010040e2        sub         r0,r0,#0x1                              
ram:000026dc    0410dde5        ldrb        r1,[sp,#local_34+0x38]                  
ram:000026e0    011041e2        sub         r1,r1,#0x1                              
ram:000026e4    010480e1        orr         r0,r0,r1, lsl #0x8                      
ram:000026e8    032480e3        orr         r2,r0,#0x3000000                        
ram:000026ec    64069fe5        ldr         r0,[DAT_00002d58]                       ;= 01C20010h
ram:000026f0    0010a0e3        mov         r1,#0x0                                 
ram:000026f4    d8ffffeb        bl          FUN_0000265c                            ;undefined FUN_0000265c()
ram:000026f8    58069fe5        ldr         r0,[DAT_00002d58]                       ;= 01C20010h
ram:000026fc    0010a0e3        mov         r1,#0x0                                 
ram:00002700    c9ffffeb        bl          FUN_0000262c                            ;undefined FUN_0000262c()
ram:00002704    02b180e3        orr         r11,r0,#0x80000000                      
ram:00002708    0b20a0e1        mov         r2,r11                                  
ram:0000270c    44069fe5        ldr         r0,[DAT_00002d58]                       ;= 01C20010h
ram:00002710    0010a0e3        mov         r1,#0x0                                 
ram:00002714    d0ffffeb        bl          FUN_0000265c                            ;undefined FUN_0000265c()
ram:00002718    0100a0e3        mov         r0,#0x1                                 
ram:0000271c    2ffeffeb        bl          FUN_00001fe0                            ;undefined FUN_00001fe0()
ram:00002720    34069fe5        ldr         r0,[DAT_00002d5c]                       ;= 01C20064h
ram:00002724    0010a0e3        mov         r1,#0x0                                 
ram:00002728    bfffffeb        bl          FUN_0000262c                            ;undefined FUN_0000262c()
ram:0000272c    10b080e3        orr         r11,r0,#0x10                            
ram:00002730    0b20a0e1        mov         r2,r11                                  
ram:00002734    20069fe5        ldr         r0,[DAT_00002d5c]                       ;= 01C20064h
ram:00002738    0010a0e3        mov         r1,#0x0                                 
ram:0000273c    c6ffffeb        bl          FUN_0000265c                            ;undefined FUN_0000265c()
ram:00002740    18069fe5        ldr         r0,[DAT_00002d60]                       ;= 01C20118h
ram:00002744    0010a0e3        mov         r1,#0x0                                 
ram:00002748    b7ffffeb        bl          FUN_0000262c                            ;undefined FUN_0000262c()
ram:0000274c    02b180e3        orr         r11,r0,#0x80000000                      
ram:00002750    0b20a0e1        mov         r2,r11                                  
ram:00002754    04069fe5        ldr         r0,[DAT_00002d60]                       ;= 01C20118h
ram:00002758    0010a0e3        mov         r1,#0x0                                 
ram:0000275c    beffffeb        bl          FUN_0000265c                            ;undefined FUN_0000265c()
ram:00002760    fc059fe5        ldr         r0,[DAT_00002d64]                       ;= 01C202C4h
ram:00002764    0010a0e3        mov         r1,#0x0                                 
ram:00002768    afffffeb        bl          FUN_0000262c                            ;undefined FUN_0000262c()
ram:0000276c    10b080e3        orr         r11,r0,#0x10                            
ram:00002770    0b20a0e1        mov         r2,r11                                  
ram:00002774    e8059fe5        ldr         r0,[DAT_00002d64]                       ;= 01C202C4h
ram:00002778    0010a0e3        mov         r1,#0x0                                 
ram:0000277c    b6ffffeb        bl          FUN_0000265c                            ;undefined FUN_0000265c()
ram:00002780    0100a0e3        mov         r0,#0x1                                 
ram:00002784    15feffeb        bl          FUN_00001fe0                            ;undefined FUN_00001fe0()
ram:00002788    0400a0e1        mov         r0,r4                                   
ram:0000278c    0010a0e3        mov         r1,#0x0                                 
ram:00002790    a5ffffeb        bl          FUN_0000262c                            ;undefined FUN_0000262c()
ram:00002794    0060a0e1        mov         r6,r0                                   
ram:00002798    0160c6e3        bic         r6,r6,#0x1                              
ram:0000279c    0620a0e1        mov         r2,r6                                   
ram:000027a0    0400a0e1        mov         r0,r4                                   
ram:000027a4    0010a0e3        mov         r1,#0x0                                 
ram:000027a8    abffffeb        bl          FUN_0000265c                            ;undefined FUN_0000265c()
ram:000027ac    500095e5        ldr         r0,[r5,#0x50]                           
ram:000027b0    541095e5        ldr         r1,[r5,#0x54]                           
ram:000027b4    010080e0        add         r0,r0,r1                                
ram:000027b8    581095e5        ldr         r1,[r5,#0x58]                           
ram:000027bc    016080e0        add         r6,r0,r1                                
ram:000027c0    860da0e1        mov         r0,r6, lsl #0x1b                        
ram:000027c4    a00ba0e1        mov         r0,r0, lsr #0x17                        
ram:000027c8    022180e3        orr         r2,r0,#0x80000000                       
ram:000027cc    400084e2        add         r0,r4,#0x40                             
ram:000027d0    0010a0e3        mov         r1,#0x0                                 
ram:000027d4    a0ffffeb        bl          FUN_0000265c                            ;undefined FUN_0000265c()
ram:000027d8    1060dde5        ldrb        r6,[sp,#local_28+0x38]                  
ram:000027dc    0f2286e3        orr         r2,r6,#0xf0000000                       
ram:000027e0    440084e2        add         r0,r4,#0x44                             
ram:000027e4    0010a0e3        mov         r1,#0x0                                 
ram:000027e8    9bffffeb        bl          FUN_0000265c                            ;undefined FUN_0000265c()
ram:000027ec    200095e5        ldr         r0,[r5,#0x20]                           
ram:000027f0    010040e2        sub         r0,r0,#0x1                              
ram:000027f4    bc11d5e1        ldrh        r1,[r5,#0x1c]                           
ram:000027f8    011041e2        sub         r1,r1,#0x1                              
ram:000027fc    012880e1        orr         r2,r0,r1, lsl #0x10                     
ram:00002800    480084e2        add         r0,r4,#0x48                             
ram:00002804    0010a0e3        mov         r1,#0x0                                 
ram:00002808    93ffffeb        bl          FUN_0000265c                            ;undefined FUN_0000265c()
ram:0000280c    010048e2        sub         r0,r8,#0x1                              
ram:00002810    011047e2        sub         r1,r7,#0x1                              
ram:00002814    012880e1        orr         r2,r0,r1, lsl #0x10                     
ram:00002818    4c0084e2        add         r0,r4,#0x4c                             
ram:0000281c    0010a0e3        mov         r1,#0x0                                 
ram:00002820    8dffffeb        bl          FUN_0000265c                            ;undefined FUN_0000265c()
ram:00002824    01004ae2        sub         r0,r10,#0x1                             
ram:00002828    092880e1        orr         r2,r0,r9, lsl #0x10                     
ram:0000282c    500084e2        add         r0,r4,#0x50                             
ram:00002830    0010a0e3        mov         r1,#0x0                                 
ram:00002834    88ffffeb        bl          FUN_0000265c                            ;undefined FUN_0000265c()
ram:00002838    0c009de5        ldr         r0,[sp,#local_2c+0x38]                  
ram:0000283c    011040e2        sub         r1,r0,#0x1                              
ram:00002840    08009de5        ldr         r0,[sp,#local_30+0x38]                  
ram:00002844    010040e2        sub         r0,r0,#0x1                              
ram:00002848    002881e1        orr         r2,r1,r0, lsl #0x10                     
ram:0000284c    540084e2        add         r0,r4,#0x54                             
ram:00002850    0010a0e3        mov         r1,#0x0                                 
ram:00002854    80ffffeb        bl          FUN_0000265c                            ;undefined FUN_0000265c()
ram:00002858    0020a0e3        mov         r2,#0x0                                 
ram:0000285c    580084e2        add         r0,r4,#0x58                             
ram:00002860    0210a0e1        mov         r1,r2                                   
ram:00002864    7cffffeb        bl          FUN_0000265c                            ;undefined FUN_0000265c()
ram:00002868    0020a0e3        mov         r2,#0x0                                 
ram:0000286c    600084e2        add         r0,r4,#0x60                             
ram:00002870    0210a0e1        mov         r1,r2                                   
ram:00002874    78ffffeb        bl          FUN_0000265c                            ;undefined FUN_0000265c()
ram:00002878    0162a0e3        mov         r6,#0x10000000                          
ram:0000287c    5c0095e5        ldr         r0,[r5,#0x5c]                           
ram:00002880    000050e3        cmp         r0,#0x0                                 
ram:00002884    0000001a        bne         LAB_0000288c                            
ram:00002888    026486e3        orr         r6,r6,#0x2000000                        
                            LAB_0000288c:                 ;XREF[1,0]:   00002884
ram:0000288c    600095e5        ldr         r0,[r5,#0x60]                           
ram:00002890    000050e3        cmp         r0,#0x0                                 
ram:00002894    0000001a        bne         LAB_0000289c                            
ram:00002898    016486e3        orr         r6,r6,#0x1000000                        
                            LAB_0000289c:                 ;XREF[1,0]:   00002894
ram:0000289c    640095e5        ldr         r0,[r5,#0x64]                           
ram:000028a0    000050e3        cmp         r0,#0x0                                 
ram:000028a4    0000001a        bne         LAB_000028ac                            
ram:000028a8    026386e3        orr         r6,r6,#0x8000000                        
                            LAB_000028ac:                 ;XREF[1,0]:   000028a4
ram:000028ac    680095e5        ldr         r0,[r5,#0x68]                           
ram:000028b0    000050e3        cmp         r0,#0x0                                 
ram:000028b4    0000001a        bne         LAB_000028bc                            
ram:000028b8    016386e3        orr         r6,r6,#0x4000000                        
                            LAB_000028bc:                 ;XREF[1,0]:   000028b4
ram:000028bc    0620a0e1        mov         r2,r6                                   
ram:000028c0    880084e2        add         r0,r4,#0x88                             
ram:000028c4    0010a0e3        mov         r1,#0x0                                 
ram:000028c8    63ffffeb        bl          FUN_0000265c                            ;undefined FUN_0000265c()
ram:000028cc    0020a0e3        mov         r2,#0x0                                 
ram:000028d0    8c0084e2        add         r0,r4,#0x8c                             
ram:000028d4    0210a0e1        mov         r1,r2                                   
ram:000028d8    5fffffeb        bl          FUN_0000265c                            ;undefined FUN_0000265c()
ram:000028dc    14d08de2        add         sp,sp,#0x14                             
ram:000028e0    f08fbde8        ldmia       sp!,{r4 r5 r6 r7 r8 r9 r10 r11 pc}      
                            ;************************************************************************************************
                            ;*                                           FUNCTION                                           *
                            ;************************************************************************************************
                            ;undefined FUN_000028e4()
                                                          ;XREF[1,0]:   00002cd0
ram:000028e4    f0412de9        stmdb       sp!,{r4 r5 r6 r7 r8 lr}                 
ram:000028e8    0050a0e1        mov         r5,r0                                   
ram:000028ec    084095e5        ldr         r4,[r5,#0x8]                            
ram:000028f0    64049fe5        ldr         r0,[DAT_00002d5c]                       ;= 01C20064h
ram:000028f4    0010a0e3        mov         r1,#0x0                                 
ram:000028f8    4bffffeb        bl          FUN_0000262c                            ;undefined FUN_0000262c()
ram:000028fc    017a80e3        orr         r7,r0,#0x1000                           
ram:00002900    0720a0e1        mov         r2,r7                                   
ram:00002904    50049fe5        ldr         r0,[DAT_00002d5c]                       ;= 01C20064h
ram:00002908    0010a0e3        mov         r1,#0x0                                 
ram:0000290c    52ffffeb        bl          FUN_0000265c                            ;undefined FUN_0000265c()
ram:00002910    4c049fe5        ldr         r0,[DAT_00002d64]                       ;= 01C202C4h
ram:00002914    0010a0e3        mov         r1,#0x0                                 
ram:00002918    43ffffeb        bl          FUN_0000262c                            ;undefined FUN_0000262c()
ram:0000291c    017a80e3        orr         r7,r0,#0x1000                           
ram:00002920    0720a0e1        mov         r2,r7                                   
ram:00002924    38049fe5        ldr         r0,[DAT_00002d64]                       ;= 01C202C4h
ram:00002928    0010a0e3        mov         r1,#0x0                                 
ram:0000292c    4affffeb        bl          FUN_0000265c                            ;undefined FUN_0000265c()
ram:00002930    0100a0e3        mov         r0,#0x1                                 
ram:00002934    a9fdffeb        bl          FUN_00001fe0                            ;undefined FUN_00001fe0()
ram:00002938    020b84e2        add         r0,r4,#0x800                            
ram:0000293c    0010a0e3        mov         r1,#0x0                                 
ram:00002940    39ffffeb        bl          FUN_0000262c                            ;undefined FUN_0000262c()
ram:00002944    0060a0e1        mov         r6,r0                                   
ram:00002948    016086e3        orr         r6,r6,#0x1                              
ram:0000294c    0620a0e1        mov         r2,r6                                   
ram:00002950    020b84e2        add         r0,r4,#0x800                            
ram:00002954    0010a0e3        mov         r1,#0x0                                 
ram:00002958    3fffffeb        bl          FUN_0000265c                            ;undefined FUN_0000265c()
ram:0000295c    1c0095e5        ldr         r0,[r5,#0x1c]                           
ram:00002960    010040e2        sub         r0,r0,#0x1                              
ram:00002964    b012d5e1        ldrh        r1,[r5,#0x20]                           
ram:00002968    011041e2        sub         r1,r1,#0x1                              
ram:0000296c    012880e1        orr         r2,r0,r1, lsl #0x10                     
ram:00002970    020b84e2        add         r0,r4,#0x800                            
ram:00002974    080080e2        add         r0,r0,#0x8                              
ram:00002978    0010a0e3        mov         r1,#0x0                                 
ram:0000297c    36ffffeb        bl          FUN_0000265c                            ;undefined FUN_0000265c()
ram:00002980    1c0095e5        ldr         r0,[r5,#0x1c]                           
ram:00002984    010040e2        sub         r0,r0,#0x1                              
ram:00002988    b012d5e1        ldrh        r1,[r5,#0x20]                           
ram:0000298c    011041e2        sub         r1,r1,#0x1                              
ram:00002990    012880e1        orr         r2,r0,r1, lsl #0x10                     
ram:00002994    810e84e2        add         r0,r4,#0x810                            
ram:00002998    0010a0e3        mov         r1,#0x0                                 
ram:0000299c    2effffeb        bl          FUN_0000265c                            ;undefined FUN_0000265c()
ram:000029a0    1c0095e5        ldr         r0,[r5,#0x1c]                           
ram:000029a4    0022a0e1        mov         r2,r0, lsl #0x4                         
ram:000029a8    210d84e2        add         r0,r4,#0x840                            
ram:000029ac    0010a0e3        mov         r1,#0x0                                 
ram:000029b0    29ffffeb        bl          FUN_0000265c                            ;undefined FUN_0000265c()
ram:000029b4    380095e5        ldr         r0,[r5,#0x38]                           
ram:000029b8    8021a0e1        mov         r2,r0, lsl #0x3                         
ram:000029bc    850e84e2        add         r0,r4,#0x850                            
ram:000029c0    0010a0e3        mov         r1,#0x0                                 
ram:000029c4    24ffffeb        bl          FUN_0000265c                            ;undefined FUN_0000265c()
ram:000029c8    380095e5        ldr         r0,[r5,#0x38]                           
ram:000029cc    a02ea0e1        mov         r2,r0, lsr #0x1d                        
ram:000029d0    860e84e2        add         r0,r4,#0x860                            
ram:000029d4    0010a0e3        mov         r1,#0x0                                 
ram:000029d8    1fffffeb        bl          FUN_0000265c                            ;undefined FUN_0000265c()
ram:000029dc    052ca0e3        mov         r2=>LAB_00000500,#0x500                 
ram:000029e0    8a0e84e2        add         r0,r4,#0x8a0                            
ram:000029e4    0010a0e3        mov         r1,#0x0                                 
ram:000029e8    1bffffeb        bl          FUN_0000265c                            ;undefined FUN_0000265c()
ram:000029ec    020b84e2        add         r0,r4,#0x800                            
ram:000029f0    0010a0e3        mov         r1,#0x0                                 
ram:000029f4    0cffffeb        bl          FUN_0000262c                            ;undefined FUN_0000262c()
ram:000029f8    0060a0e1        mov         r6,r0                                   
ram:000029fc    016c86e3        orr         r6,r6,#0x100                            
ram:00002a00    0620a0e1        mov         r2,r6                                   
ram:00002a04    020b84e2        add         r0,r4,#0x800                            
ram:00002a08    0010a0e3        mov         r1,#0x0                                 
ram:00002a0c    12ffffeb        bl          FUN_0000265c                            ;undefined FUN_0000265c()
ram:00002a10    870e84e2        add         r0,r4,#0x870                            
ram:00002a14    0010a0e3        mov         r1,#0x0                                 
ram:00002a18    03ffffeb        bl          FUN_0000262c                            ;undefined FUN_0000262c()
ram:00002a1c    0060a0e1        mov         r6,r0                                   
ram:00002a20    016086e3        orr         r6,r6,#0x1                              
ram:00002a24    0620a0e1        mov         r2,r6                                   
ram:00002a28    870e84e2        add         r0,r4,#0x870                            
ram:00002a2c    0010a0e3        mov         r1,#0x0                                 
ram:00002a30    09ffffeb        bl          FUN_0000265c                            ;undefined FUN_0000265c()
ram:00002a34    020b84e2        add         r0,r4,#0x800                            
ram:00002a38    0010a0e3        mov         r1,#0x0                                 
ram:00002a3c    fafeffeb        bl          FUN_0000262c                            ;undefined FUN_0000262c()
ram:00002a40    0060a0e1        mov         r6,r0                                   
ram:00002a44    026086e3        orr         r6,r6,#0x2                              
ram:00002a48    0620a0e1        mov         r2,r6                                   
ram:00002a4c    020b84e2        add         r0,r4,#0x800                            
ram:00002a50    0010a0e3        mov         r1,#0x0                                 
ram:00002a54    00ffffeb        bl          FUN_0000265c                            ;undefined FUN_0000265c()
ram:00002a58    f081bde8        ldmia       sp!,{r4 r5 r6 r7 r8 pc}                 
                            ;************************************************************************************************
                            ;*                                           FUNCTION                                           *
                            ;************************************************************************************************
                            ;undefined FUN_00002a5c()
ram:00002a5c    70402de9        stmdb       sp!,{r4 r5 r6 lr}                       
ram:00002a60    0050a0e1        mov         r5,r0                                   
ram:00002a64    0140a0e1        mov         r4,r1                                   
ram:00002a68    086095e5        ldr         r6,[r5,#0x8]                            
ram:00002a6c    8421a0e1        mov         r2,r4, lsl #0x3                         
ram:00002a70    850e86e2        add         r0,r6,#0x850                            
ram:00002a74    0010a0e3        mov         r1,#0x0                                 
ram:00002a78    f7feffeb        bl          FUN_0000265c                            ;undefined FUN_0000265c()
ram:00002a7c    a42ea0e1        mov         r2,r4, lsr #0x1d                        
ram:00002a80    860e86e2        add         r0,r6,#0x860                            
ram:00002a84    0010a0e3        mov         r1,#0x0                                 
ram:00002a88    f3feffeb        bl          FUN_0000265c                            ;undefined FUN_0000265c()
ram:00002a8c    7080bde8        ldmia       sp!,{r4 r5 r6 pc}                       
                            ;************************************************************************************************
                            ;*                                           FUNCTION                                           *
                            ;************************************************************************************************
                            ;undefined FUN_00002a90()
                                                          ;XREF[1,0]:   00002ce8
ram:00002a90    70402de9        stmdb       sp!,{r4 r5 r6 lr}                       
ram:00002a94    0060a0e1        mov         r6,r0                                   
ram:00002a98    104096e5        ldr         r4,[r6,#0x10]                           
ram:00002a9c    0400a0e1        mov         r0,r4                                   
ram:00002aa0    0010a0e3        mov         r1,#0x0                                 
ram:00002aa4    e0feffeb        bl          FUN_0000262c                            ;undefined FUN_0000262c()
ram:00002aa8    0050a0e1        mov         r5,r0                                   
ram:00002aac    025185e3        orr         r5,r5,#0x80000000                       
ram:00002ab0    0520a0e1        mov         r2,r5                                   
ram:00002ab4    0400a0e1        mov         r0,r4                                   
ram:00002ab8    0010a0e3        mov         r1,#0x0                                 
ram:00002abc    e6feffeb        bl          FUN_0000265c                            ;undefined FUN_0000265c()
ram:00002ac0    7080bde8        ldmia       sp!,{r4 r5 r6 pc}                       
                            ;************************************************************************************************
                            ;*                                           FUNCTION                                           *
                            ;************************************************************************************************
                            ;undefined FUN_00002ac4()
                                                          ;XREF[1,0]:   00002cc4
ram:00002ac4    70402de9        stmdb       sp!,{r4 r5 r6 lr}                       
ram:00002ac8    0060a0e1        mov         r6,r0                                   
ram:00002acc    104096e5        ldr         r4,[r6,#0x10]                           
ram:00002ad0    0020a0e3        mov         r2,#0x0                                 
ram:00002ad4    0400a0e1        mov         r0,r4                                   
ram:00002ad8    0210a0e1        mov         r1,r2                                   
ram:00002adc    defeffeb        bl          FUN_0000265c                            ;undefined FUN_0000265c()
ram:00002ae0    0020a0e3        mov         r2,#0x0                                 
ram:00002ae4    040084e2        add         r0,r4,#0x4                              
ram:00002ae8    0210a0e1        mov         r1,r2                                   
ram:00002aec    dafeffeb        bl          FUN_0000265c                            ;undefined FUN_0000265c()
ram:00002af0    440084e2        add         r0,r4,#0x44                             
ram:00002af4    0010a0e3        mov         r1,#0x0                                 
ram:00002af8    cbfeffeb        bl          FUN_0000262c                            ;undefined FUN_0000262c()
ram:00002afc    0050a0e1        mov         r5,r0                                   
ram:00002b00    0f52c5e3        bic         r5,r5,#0xf0000000                       
ram:00002b04    0520a0e1        mov         r2,r5                                   
ram:00002b08    440084e2        add         r0,r4,#0x44                             
ram:00002b0c    0010a0e3        mov         r1,#0x0                                 
ram:00002b10    d1feffeb        bl          FUN_0000265c                            ;undefined FUN_0000265c()
ram:00002b14    0020e0e3        mvn         r2,#0x0                                 
ram:00002b18    8c0084e2        add         r0,r4,#0x8c                             
ram:00002b1c    0010a0e3        mov         r1,#0x0                                 
ram:00002b20    cdfeffeb        bl          FUN_0000265c                            ;undefined FUN_0000265c()
ram:00002b24    0020e0e3        mvn         r2,#0x0                                 
ram:00002b28    f40084e2        add         r0,r4,#0xf4                             
ram:00002b2c    0010a0e3        mov         r1,#0x0                                 
ram:00002b30    c9feffeb        bl          FUN_0000265c                            ;undefined FUN_0000265c()
ram:00002b34    7080bde8        ldmia       sp!,{r4 r5 r6 pc}                       
                            ;************************************************************************************************
                            ;*                                           FUNCTION                                           *
                            ;************************************************************************************************
                            ;undefined FUN_00002b38()
                                                          ;XREF[1,0]:   00002d4c
ram:00002b38    f0472de9        stmdb       sp!,{r4 r5 r6 r7 r8 r9 r10 lr}          
ram:00002b3c    0050a0e1        mov         r5,r0                                   
ram:00002b40    0160a0e1        mov         r6,r1                                   
ram:00002b44    0290a0e1        mov         r9,r2                                   
ram:00002b48    03a0a0e1        mov         r10,r3                                  
ram:00002b4c    14029fe5        ldr         r0,[PTR_DAT_00002d68]                   ;= 000033c0
ram:00002b50    14129fe5        ldr         r1,[PTR_DAT_00002d6c]                   ;= 000033bc
ram:00002b54    000081e5        str         r0=>DAT_000033c0,[r1,#0x0]=>DAT_000033bc
ram:00002b58    10129fe5        ldr         r1,[DAT_00002d70]                       ;= 01E60000h
ram:00002b5c    0000a0e3        mov         r0,#0x0                                 
ram:00002b60    04229fe5        ldr         r2,[PTR_DAT_00002d6c]                   ;= 000033bc
ram:00002b64    002092e5        ldr         r2=>DAT_000033c0,[r2,#0x0]=>DAT_000033bc
ram:00002b68    0c0082e5        str         r0,[r2,#0xc]=>DAT_000033cc              
ram:00002b6c    081082e5        str         r1,[r2,#0x8]=>DAT_000033c8              
ram:00002b70    951941e2        sub         r1,r1,#0x254000                         
ram:00002b74    f0219fe5        ldr         r2,[PTR_DAT_00002d6c]                   ;= 000033bc
ram:00002b78    002092e5        ldr         r2,[r2,#0x0]=>DAT_000033bc              
ram:00002b7c    140082e5        str         r0,[r2,#0x14]=>DAT_000033d4             
ram:00002b80    101082e5        str         r1,[r2,#0x10]=>DAT_000033d0             
ram:00002b84    0100a0e3        mov         r0,#0x1                                 
ram:00002b88    dc119fe5        ldr         r1,[PTR_DAT_00002d6c]                   ;= 000033bc
ram:00002b8c    001091e5        ldr         r1=>DAT_000033c0,[r1,#0x0]=>DAT_000033bc
ram:00002b90    180081e5        str         r0,[r1,#0x18]=>DAT_000033d8             
ram:00002b94    d0019fe5        ldr         r0,[PTR_DAT_00002d6c]                   ;= 000033bc
ram:00002b98    000090e5        ldr         r0,[r0,#0x0]=>DAT_000033bc              
ram:00002b9c    1c5080e5        str         r5,[r0,#0x1c]=>DAT_000033dc             
ram:00002ba0    c4019fe5        ldr         r0,[PTR_DAT_00002d6c]                   ;= 000033bc
ram:00002ba4    000090e5        ldr         r0,[r0,#0x0]=>DAT_000033bc              
ram:00002ba8    206080e5        str         r6,[r0,#0x20]=>DAT_000033e0             
ram:00002bac    1000a0e3        mov         r0,#0x10                                
ram:00002bb0    b4119fe5        ldr         r1,[PTR_DAT_00002d6c]                   ;= 000033bc
ram:00002bb4    001091e5        ldr         r1,[r1,#0x0]=>DAT_000033bc              
ram:00002bb8    2c0081e5        str         r0,[r1,#0x2c]=>DAT_000033ec             
ram:00002bbc    d200a0e3        mov         r0,#0xd2                                
ram:00002bc0    a4119fe5        ldr         r1,[PTR_DAT_00002d6c]                   ;= 000033bc
ram:00002bc4    001091e5        ldr         r1,[r1,#0x0]=>DAT_000033bc              
ram:00002bc8    440081e5        str         r0,[r1,#0x44]=>DAT_00003404             
ram:00002bcc    2e00a0e3        mov         r0,#0x2e                                
ram:00002bd0    94119fe5        ldr         r1,[PTR_DAT_00002d6c]                   ;= 000033bc
ram:00002bd4    001091e5        ldr         r1,[r1,#0x0]=>DAT_000033bc              
ram:00002bd8    480081e5        str         r0,[r1,#0x48]=>DAT_00003408             
ram:00002bdc    1400a0e3        mov         r0,#0x14                                
ram:00002be0    84119fe5        ldr         r1,[PTR_DAT_00002d6c]                   ;= 000033bc
ram:00002be4    001091e5        ldr         r1,[r1,#0x0]=>DAT_000033bc              
ram:00002be8    4c0081e5        str         r0,[r1,#0x4c]=>DAT_0000340c             
ram:00002bec    1600a0e3        mov         r0,#0x16                                
ram:00002bf0    74119fe5        ldr         r1,[PTR_DAT_00002d6c]                   ;= 000033bc
ram:00002bf4    001091e5        ldr         r1,[r1,#0x0]=>DAT_000033bc              
ram:00002bf8    500081e5        str         r0,[r1,#0x50]=>DAT_00003410             
ram:00002bfc    1700a0e3        mov         r0,#0x17                                
ram:00002c00    64119fe5        ldr         r1,[PTR_DAT_00002d6c]                   ;= 000033bc
ram:00002c04    001091e5        ldr         r1,[r1,#0x0]=>DAT_000033bc              
ram:00002c08    540081e5        str         r0,[r1,#0x54]=>DAT_00003414             
ram:00002c0c    0a00a0e3        mov         r0,#0xa                                 
ram:00002c10    54119fe5        ldr         r1,[PTR_DAT_00002d6c]                   ;= 000033bc
ram:00002c14    001091e5        ldr         r1,[r1,#0x0]=>DAT_000033bc              
ram:00002c18    580081e5        str         r0,[r1,#0x58]=>DAT_00003418             
ram:00002c1c    0000a0e3        mov         r0,#0x0                                 
ram:00002c20    44119fe5        ldr         r1,[PTR_DAT_00002d6c]                   ;= 000033bc
ram:00002c24    001091e5        ldr         r1,[r1,#0x0]=>DAT_000033bc              
ram:00002c28    5c0081e5        str         r0,[r1,#0x5c]=>DAT_0000341c             
ram:00002c2c    38119fe5        ldr         r1,[PTR_DAT_00002d6c]                   ;= 000033bc
ram:00002c30    001091e5        ldr         r1,[r1,#0x0]=>DAT_000033bc              
ram:00002c34    600081e5        str         r0,[r1,#0x60]=>DAT_00003420             
ram:00002c38    0100a0e3        mov         r0,#0x1                                 
ram:00002c3c    28119fe5        ldr         r1,[PTR_DAT_00002d6c]                   ;= 000033bc
ram:00002c40    001091e5        ldr         r1,[r1,#0x0]=>DAT_000033bc              
ram:00002c44    640081e5        str         r0,[r1,#0x64]=>DAT_00003424             
ram:00002c48    0000a0e3        mov         r0,#0x0                                 
ram:00002c4c    18119fe5        ldr         r1,[PTR_DAT_00002d6c]                   ;= 000033bc
ram:00002c50    001091e5        ldr         r1,[r1,#0x0]=>DAT_000033bc              
ram:00002c54    680081e5        str         r0,[r1,#0x68]=>DAT_00003428             
ram:00002c58    0c119fe5        ldr         r1,[PTR_DAT_00002d6c]                   ;= 000033bc
ram:00002c5c    001091e5        ldr         r1,[r1,#0x0]=>DAT_000033bc              
ram:00002c60    340081e5        str         r0,[r1,#0x34]=>DAT_000033f4             
ram:00002c64    0200a0e3        mov         r0,#0x2                                 
ram:00002c68    fc109fe5        ldr         r1,[PTR_DAT_00002d6c]                   ;= 000033bc
ram:00002c6c    001091e5        ldr         r1,[r1,#0x0]=>DAT_000033bc              
ram:00002c70    300081e5        str         r0,[r1,#0x30]=>DAT_000033f0             
ram:00002c74    f0009fe5        ldr         r0,[PTR_DAT_00002d6c]                   ;= 000033bc
ram:00002c78    000090e5        ldr         r0,[r0,#0x0]=>DAT_000033bc              
ram:00002c7c    389080e5        str         r9,[r0,#0x38]=>DAT_000033f8             
ram:00002c80    0000a0e3        mov         r0,#0x0                                 
ram:00002c84    e0109fe5        ldr         r1,[PTR_DAT_00002d6c]                   ;= 000033bc
ram:00002c88    001091e5        ldr         r1,[r1,#0x0]=>DAT_000033bc              
ram:00002c8c    3c0081e5        str         r0,[r1,#0x3c]=>DAT_000033fc             
ram:00002c90    024ba0e3        mov         r4,#0x800                               
ram:00002c94    060000ea        b           LAB_00002cb4                            
                            LAB_00002c98:                 ;XREF[1,0]:   00002cb8
ram:00002c98    010484e2        add         r0,r4,#0x1000000                        
ram:00002c9c    e60880e2        add         r0,r0,#0xe60000                         
ram:00002ca0    c01fa0e1        mov         r1,r0, asr #0x1f                        
ram:00002ca4    0070a0e1        mov         r7,r0                                   
ram:00002ca8    0020a0e3        mov         r2,#0x0                                 
ram:00002cac    6afeffeb        bl          FUN_0000265c                            ;undefined FUN_0000265c()
ram:00002cb0    044084e2        add         r4,r4,#0x4                              
                            LAB_00002cb4:                 ;XREF[1,0]:   00002c94
ram:00002cb4    010a54e3        cmp         r4,#0x1000                              
ram:00002cb8    f6ffffba        blt         LAB_00002c98                            
ram:00002cbc    a8009fe5        ldr         r0,[PTR_DAT_00002d6c]                   ;= 000033bc
ram:00002cc0    000090e5        ldr         r0=>DAT_000033c0,[r0,#0x0]=>DAT_000033bc
ram:00002cc4    7effffeb        bl          FUN_00002ac4                            ;undefined FUN_00002ac4()
ram:00002cc8    9c009fe5        ldr         r0,[PTR_DAT_00002d6c]                   ;= 000033bc
ram:00002ccc    000090e5        ldr         r0=>DAT_000033c0,[r0,#0x0]=>DAT_000033bc
ram:00002cd0    03ffffeb        bl          FUN_000028e4                            ;undefined FUN_000028e4()
ram:00002cd4    90009fe5        ldr         r0,[PTR_DAT_00002d6c]                   ;= 000033bc
ram:00002cd8    000090e5        ldr         r0=>DAT_000033c0,[r0,#0x0]=>DAT_000033bc
ram:00002cdc    62feffeb        bl          FUN_0000266c                            ;undefined FUN_0000266c()
ram:00002ce0    84009fe5        ldr         r0,[PTR_DAT_00002d6c]                   ;= 000033bc
ram:00002ce4    000090e5        ldr         r0=>DAT_000033c0,[r0,#0x0]=>DAT_000033bc
ram:00002ce8    68ffffeb        bl          FUN_00002a90                            ;undefined FUN_00002a90()
ram:00002cec    f087bde8        ldmia       sp!,{r4 r5 r6 r7 r8 r9 r10 pc}          
                            ;************************************************************************************************
                            ;*                                           FUNCTION                                           *
                            ;************************************************************************************************
                            ;undefined FUN_00002cf0()
                                                          ;XREF[1,0]:   00002d38
ram:00002cf0    10402de9        stmdb       sp!,{r4 lr}                             
ram:00002cf4    0040a0e3        mov         r4,#0x0                                 
ram:00002cf8    0000a0e1        mov         r0,r0                                   
ram:00002cfc    050000ea        b           LAB_00002d18                            
                            LAB_00002d00:                 ;XREF[1,0]:   00002d1c
ram:00002d00    0410a0e1        mov         r1,r4                                   
ram:00002d04    0030a0e3        mov         r3,#0x0                                 
ram:00002d08    0220a0e3        mov         r2,#0x2                                 
ram:00002d0c    60009fe5        ldr         r0,[DAT_00002d74]                       ;= 01C2086Ch
ram:00002d10    b0faffeb        bl          FUN_000017d8                            ;undefined FUN_000017d8()
ram:00002d14    014084e2        add         r4,r4,#0x1                              
                            LAB_00002d18:                 ;XREF[1,0]:   00002cfc
ram:00002d18    150054e3        cmp         r4,#0x15                                
ram:00002d1c    f7ffffda        ble         LAB_00002d00                            
ram:00002d20    1080bde8        ldmia       sp!,{r4 pc}                             
                            ;************************************************************************************************
                            ;*                                           FUNCTION                                           *
                            ;************************************************************************************************
                            ;undefined FUN_00002d24()
                                                          ;XREF[1,0]:   000005c8
ram:00002d24    f0412de9        stmdb       sp!,{r4 r5 r6 r7 r8 lr}                 
ram:00002d28    0040a0e1        mov         r4,r0                                   
ram:00002d2c    0150a0e1        mov         r5,r1                                   
ram:00002d30    0260a0e1        mov         r6,r2                                   
ram:00002d34    0370a0e1        mov         r7,r3                                   
ram:00002d38    ecffffeb        bl          FUN_00002cf0                            ;undefined FUN_00002cf0()
ram:00002d3c    0730a0e1        mov         r3,r7                                   
ram:00002d40    0620a0e1        mov         r2,r6                                   
ram:00002d44    0510a0e1        mov         r1,r5                                   
ram:00002d48    0400a0e1        mov         r0,r4                                   
ram:00002d4c    79ffffeb        bl          FUN_00002b38                            ;undefined FUN_00002b38()
ram:00002d50    f081bde8        ldmia       sp!,{r4 r5 r6 r7 r8 pc}                 
                            DAT_00002d54:                 ;XREF[1,0]:   00002678
ram:00002d54    1f040000        undefined4  0000041Fh                               ;?  ->  0000041f
                            DAT_00002d58:                 ;XREF[5,0]:   000026b4,000026c8,000026ec,000026f8
                                                          ;             0000270c
ram:00002d58    1000c201        undefined4  01C20010h                               
                            DAT_00002d5c:                 ;XREF[4,0]:   00002720,00002734,000028f0,00002904
ram:00002d5c    6400c201        undefined4  01C20064h                               
                            DAT_00002d60:                 ;XREF[2,0]:   00002740,00002754
ram:00002d60    1801c201        undefined4  01C20118h                               
                            DAT_00002d64:                 ;XREF[4,0]:   00002760,00002774,00002910,00002924
ram:00002d64    c402c201        undefined4  01C202C4h                               
                            PTR_DAT_00002d68:             ;XREF[1,0]:   00002b4c
ram:00002d68    c0330000        addr        DAT_000033c0                            
                            PTR_DAT_00002d6c:             ;XREF[25,0]:  00002b50,00002b60,00002b74,00002b88
                                                          ;             00002b94,00002ba0,00002bb0,00002bc0
                                                          ;             00002bd0,00002be0,00002bf0,00002c00
                                                          ;             00002c10,00002c20,00002c2c,00002c3c
                                                          ;             00002c4c,00002c58,00002c68,00002c74
                                                          ;             00002c84,00002cbc,00002cc8,00002cd4
                                                          ;             00002ce0
ram:00002d6c    bc330000        addr        DAT_000033bc                            
                            DAT_00002d70:                 ;XREF[1,0]:   00002b58
ram:00002d70    0000e601        undefined4  01E60000h                               
                            DAT_00002d74:                 ;XREF[1,0]:   00002d0c
ram:00002d74    6c08c201        undefined4  01C2086Ch                               
                            ;************************************************************************************************
                            ;*                                           FUNCTION                                           *
                            ;************************************************************************************************
                            ;undefined FUN_00002d78()
                                                          ;XREF[2,0]:   00001e90,00001ea0
ram:00002d78    30b5            push        { r4, r5, lr }                          
ram:00002d7a    441c            add         r4,r0,#0x1                              
ram:00002d7c    03e0            b           LAB_00002d86                            
                            LAB_00002d7e:                 ;XREF[1,0]:   00002d88
ram:00002d7e    0178            ldrb        r1,[r0,#0x0]                            
ram:00002d80    401c            add         r0,r0,#0x1                              
ram:00002d82    0029            cmp         r1,#0x0                                 
ram:00002d84    0dd0            beq         LAB_00002da2                            
                            LAB_00002d86:                 ;XREF[1,0]:   00002d7c
ram:00002d86    8107            lsl         r1,r0,#0x1e                             
ram:00002d88    f9d1            bne         LAB_00002d7e                            
ram:00002d8a    0b4b            ldr         r3,[DAT_00002db8]                       ;= 01010101h
ram:00002d8c    dd01            lsl         r5,r3,#0x7                              
                            LAB_00002d8e:                 ;XREF[1,0]:   00002d96
ram:00002d8e    04c8            ldmia       r0!,{ r2 }                              
ram:00002d90    d11a            sub         r1,r2,r3                                
ram:00002d92    9143            bic         r1,r2                                   
ram:00002d94    2940            and         r1,r5                                   
ram:00002d96    fad0            beq         LAB_00002d8e                            
ram:00002d98    001b            sub         r0,r0,r4                                
ram:00002d9a    0a06            lsl         r2,r1,#0x18                             
ram:00002d9c    03d0            beq         LAB_00002da6                            
ram:00002d9e    c01e            sub         r0,r0,#0x3                              
ram:00002da0    30bd            pop         { r4, r5, pc }                          
                            LAB_00002da2:                 ;XREF[1,0]:   00002d84
ram:00002da2    001b            sub         r0,r0,r4                                
ram:00002da4    30bd            pop         { r4, r5, pc }                          
                            LAB_00002da6:                 ;XREF[1,0]:   00002d9c
ram:00002da6    0a04            lsl         r2,r1,#0x10                             
ram:00002da8    01d0            beq         LAB_00002dae                            
ram:00002daa    801e            sub         r0,r0,#0x2                              
                            LAB_00002dac:                 ;XREF[1,0]:   00002db0
ram:00002dac    30bd            pop         { r4, r5, pc }                          
                            LAB_00002dae:                 ;XREF[1,0]:   00002da8
ram:00002dae    0902            lsl         r1,r1,#0x8                              
ram:00002db0    fcd0            beq         LAB_00002dac                            
ram:00002db2    401e            sub         r0,r0,#0x1                              
ram:00002db4    30bd            pop         { r4, r5, pc }                          
ram:00002db6    00              ??          00h                                     
ram:00002db7    00              ??          00h                                     
                            DAT_00002db8:                 ;XREF[1,0]:   00002d8a
ram:00002db8    01010101        undefined4  01010101h                               
ram:00002dbc    01              ??          01h                                     
ram:00002dbd    30              ??          30h    0                                
ram:00002dbe    90              ??          90h                                     
ram:00002dbf    e1              ??          E1h                                     
ram:00002dc0    21              ??          21h    !                                
ram:00002dc1    00              ??          00h                                     
ram:00002dc2    00              ??          00h                                     
ram:00002dc3    4a              ??          4Ah    J                                
ram:00002dc4    00              ??          00h                                     
ram:00002dc5    20              ??          20h                                     
ram:00002dc6    b0              ??          B0h                                     
ram:00002dc7    e3              ??          E3h                                     
ram:00002dc8    a0              ??          A0h                                     
ram:00002dc9    30              ??          30h    0                                
ram:00002dca    71              ??          71h    q                                
ram:00002dcb    e0              ??          E0h                                     
ram:00002dcc    1a              ??          1Ah                                     
ram:00002dcd    00              ??          00h                                     
ram:00002dce    00              ??          00h                                     
ram:00002dcf    3a              ??          3Ah    :                                
ram:00002dd0    20              ??          20h                                     
ram:00002dd1    32              ??          32h    2                                
ram:00002dd2    71              ??          71h    q                                
ram:00002dd3    e0              ??          E0h                                     
ram:00002dd4    0f              ??          0Fh                                     
ram:00002dd5    00              ??          00h                                     
ram:00002dd6    00              ??          00h                                     
ram:00002dd7    3a              ??          3Ah    :                                
ram:00002dd8    20              ??          20h                                     
ram:00002dd9    34              ??          34h    4                                
ram:00002dda    71              ??          71h    q                                
ram:00002ddb    e0              ??          E0h                                     
ram:00002ddc    01              ??          01h                                     
ram:00002ddd    00              ??          00h                                     
ram:00002dde    00              ??          00h                                     
ram:00002ddf    3a              ??          3Ah    :                                
ram:00002de0    00              ??          00h                                     
ram:00002de1    c0              ??          C0h                                     
ram:00002de2    a0              ??          A0h                                     
ram:00002de3    e3              ??          E3h                                     
ram:00002de4    20              ??          20h                                     
ram:00002de5    00              ??          00h                                     
ram:00002de6    00              ??          00h                                     
ram:00002de7    ea              ??          EAh                                     
                            LAB_00002de8:                 ;XREF[1,0]:   00002f5c
ram:00002de8    a03371e0        rsbs        r3,r1,r0, lsr #0x7                      
ram:00002dec    81034020        subcs       r0,r0,r1, lsl #0x7                      
ram:00002df0    0220b2e0        adcs        r2,r2,r2                                
ram:00002df4    203371e0        rsbs        r3,r1,r0, lsr #0x6                      
ram:00002df8    01034020        subcs       r0,r0,r1, lsl #0x6                      
ram:00002dfc    0220b2e0        adcs        r2,r2,r2                                
ram:00002e00    a03271e0        rsbs        r3,r1,r0, lsr #0x5                      
ram:00002e04    81024020        subcs       r0,r0,r1, lsl #0x5                      
ram:00002e08    0220b2e0        adcs        r2,r2,r2                                
                            LAB_00002e0c:                 ;XREF[1,0]:   00002f54
ram:00002e0c    203271e0        rsbs        r3,r1,r0, lsr #0x4                      
ram:00002e10    01024020        subcs       r0,r0,r1, lsl #0x4                      
ram:00002e14    0220b2e0        adcs        r2,r2,r2                                
ram:00002e18    a03171e0        rsbs        r3,r1,r0, lsr #0x3                      
ram:00002e1c    81014020        subcs       r0,r0,r1, lsl #0x3                      
ram:00002e20    0220b2e0        adcs        r2,r2,r2                                
ram:00002e24    203171e0        rsbs        r3,r1,r0, lsr #0x2                      
ram:00002e28    01014020        subcs       r0,r0,r1, lsl #0x2                      
ram:00002e2c    0220b2e0        adcs        r2,r2,r2                                
                            LAB_00002e30:                 ;XREF[1,0]:   00002f4c
ram:00002e30    a03071e0        rsbs        r3,r1,r0, lsr #0x1                      
ram:00002e34    81004020        subcs       r0,r0,r1, lsl #0x1                      
ram:00002e38    0220b2e0        adcs        r2,r2,r2                                
ram:00002e3c    011050e0        subs        r1,r0,r1                                
ram:00002e40    0010a031        movcc       r1,r0                                   
ram:00002e44    0200a2e0        adc         r0,r2,r2                                
ram:00002e48    1eff2fe1        bx          lr                                      
ram:00002e4c    02              ??          02h                                     
ram:00002e4d    21              ??          21h    !                                
ram:00002e4e    11              ??          11h                                     
ram:00002e4f    e2              ??          E2h                                     
ram:00002e50    00              ??          00h                                     
ram:00002e51    10              ??          10h                                     
ram:00002e52    61              ??          61h    a                                
ram:00002e53    42              ??          42h    B                                
ram:00002e54    40              ??          40h    @                                
ram:00002e55    c0              ??          C0h                                     
ram:00002e56    32              ??          32h    2                                
ram:00002e57    e0              ??          E0h                                     
ram:00002e58    00              ??          00h                                     
ram:00002e59    00              ??          00h                                     
ram:00002e5a    60              ??          60h    `                                
ram:00002e5b    22              ??          22h    "                                
ram:00002e5c    20              ??          20h                                     
ram:00002e5d    32              ??          32h    2                                
ram:00002e5e    71              ??          71h    q                                
ram:00002e5f    e0              ??          E0h                                     
ram:00002e60    1d              ??          1Dh                                     
ram:00002e61    00              ??          00h                                     
ram:00002e62    00              ??          00h                                     
ram:00002e63    3a              ??          3Ah    :                                
ram:00002e64    20              ??          20h                                     
ram:00002e65    34              ??          34h    4                                
ram:00002e66    71              ??          71h    q                                
ram:00002e67    e0              ??          E0h                                     
ram:00002e68    0f              ??          0Fh                                     
ram:00002e69    00              ??          00h                                     
ram:00002e6a    00              ??          00h                                     
ram:00002e6b    3a              ??          3Ah    :                                
                            LAB_00002e6c:                 ;XREF[1,0]:   00002f64
ram:00002e6c    0113a0e1        mov         r1,r1, lsl #0x6                         
ram:00002e70    203471e0        rsbs        r3,r1,r0, lsr #0x8                      
ram:00002e74    3f2382e3        orr         r2,r2,#0xfc000000                       
ram:00002e78    0b00003a        bcc         LAB_00002eac                            
ram:00002e7c    0113a0e1        mov         r1,r1, lsl #0x6                         
ram:00002e80    203471e0        rsbs        r3,r1,r0, lsr #0x8                      
ram:00002e84    3f2682e3        orr         r2,r2,#0x3f00000                        
ram:00002e88    0700003a        bcc         LAB_00002eac                            
ram:00002e8c    0113a0e1        mov         r1,r1, lsl #0x6                         
ram:00002e90    203471e0        rsbs        r3,r1,r0, lsr #0x8                      
ram:00002e94    3f2982e3        orr         r2,r2,#0xfc000                          
ram:00002e98    0113a021        movcs       r1,r1, lsl #0x6                         
ram:00002e9c    3f2c8223        orrcs       r2,r2,#0x3f00                           
ram:00002ea0    003071e2        rsbs        r3,r1,#0x0                              
ram:00002ea4    1d00002a        bcs         LAB_00002f20                            
                            LAB_00002ea8:                 ;XREF[1,0]:   00002ef4
ram:00002ea8    2113a021        movcs       r1,r1, lsr #0x6                         
                            LAB_00002eac:                 ;XREF[2,0]:   00002e78,00002e88
ram:00002eac    a03371e0        rsbs        r3,r1,r0, lsr #0x7                      
ram:00002eb0    81034020        subcs       r0,r0,r1, lsl #0x7                      
ram:00002eb4    0220b2e0        adcs        r2,r2,r2                                
ram:00002eb8    203371e0        rsbs        r3,r1,r0, lsr #0x6                      
ram:00002ebc    01034020        subcs       r0,r0,r1, lsl #0x6                      
ram:00002ec0    0220b2e0        adcs        r2,r2,r2                                
ram:00002ec4    a03271e0        rsbs        r3,r1,r0, lsr #0x5                      
ram:00002ec8    81024020        subcs       r0,r0,r1, lsl #0x5                      
ram:00002ecc    0220b2e0        adcs        r2,r2,r2                                
ram:00002ed0    203271e0        rsbs        r3,r1,r0, lsr #0x4                      
ram:00002ed4    01024020        subcs       r0,r0,r1, lsl #0x4                      
ram:00002ed8    0220b2e0        adcs        r2,r2,r2                                
ram:00002edc    a03171e0        rsbs        r3,r1,r0, lsr #0x3                      
ram:00002ee0    81014020        subcs       r0,r0,r1, lsl #0x3                      
ram:00002ee4    0220b2e0        adcs        r2,r2,r2                                
ram:00002ee8    203171e0        rsbs        r3,r1,r0, lsr #0x2                      
ram:00002eec    01014020        subcs       r0,r0,r1, lsl #0x2                      
ram:00002ef0    0220b2e0        adcs        r2,r2,r2                                
ram:00002ef4    ebffff2a        bcs         LAB_00002ea8                            
ram:00002ef8    a03071e0        rsbs        r3,r1,r0, lsr #0x1                      
ram:00002efc    81004020        subcs       r0,r0,r1, lsl #0x1                      
ram:00002f00    0220b2e0        adcs        r2,r2,r2                                
ram:00002f04    011050e0        subs        r1,r0,r1                                
ram:00002f08    0010a031        movcc       r1,r0                                   
ram:00002f0c    0200a2e0        adc         r0,r2,r2                                
ram:00002f10    cccfb0e1        movs        r12,r12, asr #0x1f                      
ram:00002f14    00006042        rsbmi       r0,r0,#0x0                              
ram:00002f18    00106122        rsbcs       r1,r1,#0x0                              
ram:00002f1c    1eff2fe1        bx          lr                                      
                            LAB_00002f20:                 ;XREF[1,0]:   00002ea4
ram:00002f20    cccfb0e1        movs        r12,r12, asr #0x1f                      
ram:00002f24    00006042        rsbmi       r0,r0,#0x0                              
ram:00002f28    01402de9        stmdb       sp!,{r0 lr}                             
ram:00002f2c    0000b0e3        movs        r0,#0x0                                 
ram:00002f30    0000a0e1        mov         r0,r0                                   
ram:00002f34    0280bde8        ldmia       sp!,{r1 pc}                             
                            ;************************************************************************************************
                            ;*                                           FUNCTION                                           *
                            ;************************************************************************************************
                            ;undefined FUN_00002f38()
                                                          ;XREF[1,0]:   00000138
ram:00002f38    0400            mov         r4,r0                                   
ram:00002f3a    c046            mov         r8,r8                                   
ram:00002f3c    c046            mov         r8,r8                                   
ram:00002f3e    2000            mov         r0,r4                                   
ram:00002f40    fdf7fee8        blx         FUN_00000140                            ;undefined FUN_00000140()
                            ;************************************************************************************************
                            ;*                                           FUNCTION                                           *
                            ;************************************************************************************************
                            ;undefined FUN_00002f44()
                                                          ;XREF[12,0]:  00000860,00000874,00000898,000008b0
                                                          ;             000008c0,000008f4,0000090c,000013a4
                                                          ;             000013c8,00001984,00001c14,00001c28
ram:00002f44    0020b0e3        movs        r2,#0x0                                 
ram:00002f48    203171e0        rsbs        r3,r1,r0, lsr #0x2                      
ram:00002f4c    b7ffff3a        bcc         LAB_00002e30                            
ram:00002f50    a03271e0        rsbs        r3,r1,r0, lsr #0x5                      
ram:00002f54    acffff3a        bcc         LAB_00002e0c                            
ram:00002f58    203471e0        rsbs        r3,r1,r0, lsr #0x8                      
ram:00002f5c    a1ffff3a        bcc         LAB_00002de8                            
ram:00002f60    00c0a0e3        mov         r12,#0x0                                
ram:00002f64    c0ffffea        b           LAB_00002e6c                            
                            DAT_00002f68:                 ;XREF[2,0]:   00000060,0000008c
ram:00002f68    24f4ffea        undefined4  EAFFF424h                               
                            DAT_00002f6c:                 ;XREF[1,0]:   00000060
ram:00002f6c    18f09fe5        undefined4  E59FF018h                               
                            DAT_00002f70:                 ;XREF[1,0]:   00000060
ram:00002f70    18f09fe5        undefined4  E59FF018h                               
                            DAT_00002f74:                 ;XREF[1,0]:   00000060
ram:00002f74    18f09fe5        undefined4  E59FF018h                               
                            DAT_00002f78:                 ;XREF[1,0]:   00000060
ram:00002f78    18f09fe5        undefined4  E59FF018h                               
                            DAT_00002f7c:                 ;XREF[1,0]:   00000060
ram:00002f7c    0000a0e1        undefined4  E1A00000h                               
                            DAT_00002f80:                 ;XREF[1,0]:   00000060
ram:00002f80    18f09fe5        undefined4  E59FF018h                               
                            DAT_00002f84:                 ;XREF[1,0]:   00000060
ram:00002f84    18f09fe5        undefined4  E59FF018h                               
                            DAT_00002f88:                 ;XREF[1,0]:   00000068
ram:00002f88    00000000        undefined4  00000000h                               
                            PTR_DAT_00002f8c:             ;XREF[1,0]:   00000068
ram:00002f8c    a82f0000        addr        DAT_00002fa8                            ;= FEh
                            PTR_DAT_00002f90:             ;XREF[1,0]:   00000068
ram:00002f90    ac2f0000        addr        DAT_00002fac                            ;= FEh
                            PTR_DAT_00002f94:             ;XREF[1,0]:   00000068
ram:00002f94    b02f0000        addr        DAT_00002fb0                            ;= FEh
                            PTR_DAT_00002f98:             ;XREF[1,0]:   00000068
ram:00002f98    b42f0000        addr        DAT_00002fb4                            ;= FEh
                            DAT_00002f9c:                 ;XREF[1,0]:   00000068
ram:00002f9c    00000000        undefined4  00000000h                               
                            PTR_DAT_00002fa0:             ;XREF[1,0]:   00000068
ram:00002fa0    bc2f0000        addr        DAT_00002fbc                            ;= FEh
                            PTR_DAT_00002fa4:             ;XREF[1,0]:   00000068
ram:00002fa4    c02f0000        addr        DAT_00002fc0                            ;= FEh
                            DAT_00002fa8:                 ;XREF[3,0]:   00000068,0000006c,00002f8c
ram:00002fa8    fe              ??          FEh                                     
ram:00002fa9    ff              ??          FFh                                     
ram:00002faa    ff              ??          FFh                                     
ram:00002fab    ea              ??          EAh                                     
                            DAT_00002fac:                 ;XREF[2,0]:   0000006c,00002f90
ram:00002fac    fe              ??          FEh                                     
ram:00002fad    ff              ??          FFh                                     
ram:00002fae    ff              ??          FFh                                     
ram:00002faf    ea              ??          EAh                                     
                            DAT_00002fb0:                 ;XREF[2,0]:   0000006c,00002f94
ram:00002fb0    fe              ??          FEh                                     
ram:00002fb1    ff              ??          FFh                                     
ram:00002fb2    ff              ??          FFh                                     
ram:00002fb3    ea              ??          EAh                                     
                            DAT_00002fb4:                 ;XREF[2,0]:   0000006c,00002f98
ram:00002fb4    fe              ??          FEh                                     
ram:00002fb5    ff              ??          FFh                                     
ram:00002fb6    ff              ??          FFh                                     
ram:00002fb7    ea              ??          EAh                                     
ram:00002fb8    00              ??          00h                                     
ram:00002fb9    00              ??          00h                                     
ram:00002fba    a0              ??          A0h                                     
ram:00002fbb    e1              ??          E1h                                     
                            DAT_00002fbc:                 ;XREF[2,0]:   0000006c,00002fa0
ram:00002fbc    fe              ??          FEh                                     
ram:00002fbd    ff              ??          FFh                                     
ram:00002fbe    ff              ??          FFh                                     
ram:00002fbf    ea              ??          EAh                                     
                            DAT_00002fc0:                 ;XREF[2,0]:   0000006c,00002fa4
ram:00002fc0    fe              ??          FEh                                     
ram:00002fc1    ff              ??          FFh                                     
ram:00002fc2    ff              ??          FFh                                     
ram:00002fc3    ea              ??          EAh                                     
                            ;************************************************************************************************
                            ;*                                           FUNCTION                                           *
                            ;************************************************************************************************
                            ;undefined FUN_00002fc4()
                                                          ;XREF[1,0]:   0000206c
ram:00002fc4    213aa0e1        mov         r3,r1, lsr #0x14                        
ram:00002fc8    013b43e2        sub         r3,r3,#0x400                            
ram:00002fcc    1e3073e2        rsbs        r3,r3,#0x1e                             
ram:00002fd0    20c073a2        rsbges      r12,r3,#0x20                            
ram:00002fd4    040000ba        blt         LAB_00002fec                            
ram:00002fd8    0221a0e3        mov         r2,#0x80000000                          
ram:00002fdc    812582e1        orr         r2,r2,r1, lsl #0xb                      
ram:00002fe0    a02a92e1        orrs        r2,r2,r0, lsr #0x15                     
ram:00002fe4    3203b0e1        movs        r0,r2, lsr r3                           
ram:00002fe8    1eff2fe1        bx          lr                                      
                            LAB_00002fec:                 ;XREF[1,0]:   00002fd4
ram:00002fec    010011e1        tst         r1,r1                                   
ram:00002ff0    0700004a        bmi         LAB_00003014                            
ram:00002ff4    100053e3        cmp         r3,#0x10                                
ram:00002ff8    0000a0c3        movgt       r0,#0x0                                 
ram:00002ffc    1eff2fc1        bxgt        lr                                      
ram:00003000    3ece83e2        add         r12,r3,#0x3e0                           
ram:00003004    01007ce3        cmn         r12,#0x1                                
ram:00003008    0300000a        beq         LAB_0000301c                            
ram:0000300c    0000e0e3        mvn         r0,#0x0                                 
ram:00003010    1eff2fe1        bx          lr                                      
                            LAB_00003014:                 ;XREF[1,0]:   00002ff0
ram:00003014    0000a0e3        mov         r0,#0x0                                 
ram:00003018    1eff2fe1        bx          lr                                      
                            LAB_0000301c:                 ;XREF[1,0]:   00003008
ram:0000301c    70402de9        stmdb       sp!,{r4 r5 r6 lr}                       
ram:00003020    610000eb        bl          FUN_000031ac                            ;undefined FUN_000031ac(undefined par...
ram:00003024    92              ??          92h                                     
ram:00003025    24              ??          24h    $                                
ram:00003026    49              ??          49h    I                                
ram:00003027    80              ??          80h                                     
ram:00003028    00              ??          00h                                     
ram:00003029    00              ??          00h                                     
ram:0000302a    a0              ??          A0h                                     
ram:0000302b    e3              ??          E3h                                     
ram:0000302c    1e              ??          1Eh                                     
ram:0000302d    ff              ??          FFh                                     
ram:0000302e    2f              ??          2Fh    /                                
ram:0000302f    e1              ??          E1h                                     
ram:00003030    f5              ??          F5h                                     
ram:00003031    ff              ??          FFh                                     
ram:00003032    ff              ??          FFh                                     
ram:00003033    ea              ??          EAh                                     
                            ;************************************************************************************************
                            ;*                                           FUNCTION                                           *
                            ;************************************************************************************************
                            ;undefined FUN_00003034()
          ;local_10      undefined4         -10                      ;XREF[1,0]:   00003128
                                                          ;XREF[1,0]:   00002064
ram:00003034    64c19fe5        ldr         r12,[DAT_000031a0]                      ;= 07FF0000h
ram:00003038    70402de9        stmdb       sp!,{r4 r5 r6 lr}                       
ram:0000303c    21e21ce0        ands        lr,r12,r1, lsr #0x4                     
ram:00003040    23521c10        andnes      r5,r12,r3, lsr #0x4                     
ram:00003044    0c003e11        teqne       lr,r12                                  
ram:00003048    0c003511        teqne       r5,r12                                  
ram:0000304c    3c00000a        beq         LAB_00003144                            
ram:00003050    034021e0        eor         r4,r1,r3                                
ram:00003054    8c32c3e1        bic         r3,r3,r12, lsl #0x5                     
ram:00003058    a4ef8ee1        orr         lr,lr,r4, lsr #0x1f                     
ram:0000305c    8c12c1e1        bic         r1,r1,r12, lsl #0x5                     
ram:00003060    011681e3        orr         r1,r1,#0x100000                         
ram:00003064    013683e3        orr         r3,r3,#0x100000                         
ram:00003068    05e08ee0        add         lr,lr,r5                                
ram:0000306c    91428ce0        umull       r4,r12,r1,r2                            
ram:00003070    906385e0        umull       r6,r5,r0,r3                             
ram:00003074    ffe74ee2        sub         lr,lr,#0x3fc0000                        
ram:00003078    046096e0        adds        r6,r6,r4                                
ram:0000307c    0c50b5e0        adcs        r5,r5,r12                               
ram:00003080    91438ce0        umull       r4,r12,r1,r3                            
ram:00003084    0030ace2        adc         r3,r12,#0x0                             
ram:00003088    90128ce0        umull       r1,r12,r0,r2                            
ram:0000308c    0c6096e0        adds        r6,r6,r12                               
ram:00003090    0450b5e0        adcs        r5,r5,r4                                
ram:00003094    0030b3e2        adcs        r3,r3,#0x0                              
ram:00003098    010011e1        tst         r1,r1                                   
ram:0000309c    01608613        orrne       r6,r6,#0x1                              
ram:000030a0    020c13e3        tst         r3,#0x200                               
ram:000030a4    0600001a        bne         LAB_000030c4                            
ram:000030a8    0316a0e1        mov         r1,r3, lsl #0xc                         
ram:000030ac    0506a0e1        mov         r0,r5, lsl #0xc                         
ram:000030b0    0646b0e1        movs        r4,r6, lsl #0xc                         
ram:000030b4    251a81e1        orr         r1,r1,r5, lsr #0x14                     
ram:000030b8    260a80e1        orr         r0,r0,r6, lsr #0x14                     
ram:000030bc    0320e0e3        mvn         r2,#0x3                                 
ram:000030c0    050000ea        b           LAB_000030dc                            
                            LAB_000030c4:                 ;XREF[1,0]:   000030a4
ram:000030c4    8315a0e1        mov         r1,r3, lsl #0xb                         
ram:000030c8    8505a0e1        mov         r0,r5, lsl #0xb                         
ram:000030cc    8645b0e1        movs        r4,r6, lsl #0xb                         
ram:000030d0    a51a81e1        orr         r1,r1,r5, lsr #0x15                     
ram:000030d4    a60a80e1        orr         r0,r0,r6, lsr #0x15                     
ram:000030d8    0220e0e3        mvn         r2,#0x2                                 
                            LAB_000030dc:                 ;XREF[1,0]:   000030c0
ram:000030dc    4e2882e0        add         r2,r2,lr, asr #0x10                     
ram:000030e0    025a81e0        add         r5,r1,r2, lsl #0x14                     
ram:000030e4    8e1f25e0        eor         r1,r5,lr, lsl #0x1f                     
ram:000030e8    0400000a        beq         LAB_00003100                            
ram:000030ec    84c0b0e1        movs        r12,r4, lsl #0x1                        
ram:000030f0    0241c413        bicne       r4,r4,#0x80000000                       
ram:000030f4    0000b0e2        adcs        r0,r0,#0x0                              
ram:000030f8    0010a1e2        adc         r1,r1,#0x0                              
ram:000030fc    a40fc0e1        bic         r0,r0,r4, lsr #0x1f                     
                            LAB_00003100:                 ;XREF[1,0]:   000030e8
ram:00003100    9cc09fe5        ldr         r12,[DAT_000031a4]                      ;= 000007FEh
ram:00003104    0c0052e1        cmp         r2,r12                                  
ram:00003108    0000002a        bcs         LAB_00003110                            
ram:0000310c    7080bde8        ldmia       sp!,{r4 r5 r6 pc}                       
                            LAB_00003110:                 ;XREF[1,0]:   00003108
ram:00003110    050050e1        cmp         r0,r5                                   
ram:00003114    0141a013        movne       r4,#0x40000000                          
ram:00003118    0341a003        moveq       r4,#0xc0000000                          
ram:0000311c    000056e3        cmp         r6,#0x0                                 
ram:00003120    0040a003        moveq       r4,#0x0                                 
ram:00003124    01035ee3        cmp         lr,#0x4000000                           
ram:00003128    7040bde8        ldmia       sp!,{r4 r5 r6 lr}=>local_10             
ram:0000312c    061241a2        subge       r1,r1,#0x60000000                       
ram:00003130    4b0000aa        bge         LAB_00003264                            
ram:00003134    0000a0e3        mov         r0,#0x0                                 
ram:00003138    061281e2        add         r1,r1,#0x60000000                       
ram:0000313c    021101e2        and         r1,r1,#0x80000000                       
ram:00003140    1eff2fe1        bx          lr                                      
                            LAB_00003144:                 ;XREF[1,0]:   0000304c
ram:00003144    0c003ee1        teq         lr,r12                                  
ram:00003148    23520ce0        and         r5,r12,r3, lsr #0x4                     
ram:0000314c    0c003511        teqne       r5,r12                                  
ram:00003150    0300000a        beq         LAB_00003164                            
ram:00003154    0000a0e3        mov         r0,#0x0                                 
ram:00003158    03e021e0        eor         lr,r1,r3                                
ram:0000315c    02110ee2        and         r1,lr,#0x80000000                       
ram:00003160    7080bde8        ldmia       sp!,{r4 r5 r6 pc}                       
                            LAB_00003164:                 ;XREF[1,0]:   00003150
ram:00003164    100000eb        bl          FUN_000031ac                            ;undefined FUN_000031ac(undefined par...
ram:00003168    8900013e        cdpcc       p0,0x0,cr0,cr1,cr9,0x4                  
ram:0000316c    030000ea        b           LAB_00003180                            
ram:00003170    04              ??          04h                                     
ram:00003171    00              ??          00h                                     
ram:00003172    00              ??          00h                                     
ram:00003173    ea              ??          EAh                                     
ram:00003174    83              ??          83h                                     
ram:00003175    c0              ??          C0h                                     
ram:00003176    a0              ??          A0h                                     
ram:00003177    e1              ??          E1h                                     
ram:00003178    ac              ??          ACh                                     
ram:00003179    ca              ??          CAh                                     
ram:0000317a    b0              ??          B0h                                     
ram:0000317b    e1              ??          E1h                                     
ram:0000317c    04              ??          04h                                     
ram:0000317d    00              ??          00h                                     
ram:0000317e    00              ??          00h                                     
ram:0000317f    0a              ??          0Ah                                     
                            LAB_00003180:                 ;XREF[1,0]:   0000316c
ram:00003180    031021e0        eor         r1,r1,r3                                
ram:00003184    360000ea        b           LAB_00003264                            
ram:00003188    81              ??          81h                                     
ram:00003189    c0              ??          C0h                                     
ram:0000318a    a0              ??          A0h                                     
ram:0000318b    e1              ??          E1h                                     
ram:0000318c    ac              ??          ACh                                     
ram:0000318d    ca              ??          CAh                                     
ram:0000318e    b0              ??          B0h                                     
ram:0000318f    e1              ??          E1h                                     
ram:00003190    fa              ??          FAh                                     
ram:00003191    ff              ??          FFh                                     
ram:00003192    ff              ??          FFh                                     ;?  ->  00001aff
ram:00003193    1a              ??          1Ah                                     
ram:00003194    00              ??          00h                                     
ram:00003195    00              ??          00h                                     
ram:00003196    a0              ??          A0h                                     
ram:00003197    e3              ??          E3h                                     
ram:00003198    08              ??          08h                                     
ram:00003199    10              ??          10h                                     
ram:0000319a    9f              ??          9Fh                                     
ram:0000319b    e5              ??          E5h                                     
ram:0000319c    1e              ??          1Eh                                     
ram:0000319d    ff              ??          FFh                                     
ram:0000319e    2f              ??          2Fh    /                                
ram:0000319f    e1              ??          E1h                                     
                            DAT_000031a0:                 ;XREF[1,0]:   00003034
ram:000031a0    0000ff07        undefined4  07FF0000h                               
                            DAT_000031a4:                 ;XREF[1,0]:   00003100
ram:000031a4    fe070000        undefined4  000007FEh                               ;?  ->  000007fe
ram:000031a8    00              ??          00h                                     
ram:000031a9    00              ??          00h                                     
ram:000031aa    f8              ??          F8h                                     
ram:000031ab    7f              ??          7Fh                                    
                            ;************************************************************************************************
                            ;*                                           FUNCTION                                           *
                            ;************************************************************************************************
                            ;undefined FUN_000031ac(undefined param_1, undefined param_2, undefined param_3, undefined param_4, undefined4 param_5)
          ;param_1       undefined           r0                      
          ;param_2       undefined           r1                      
          ;param_3       undefined           r2                      
          ;param_4       undefined           r3                      
          ;param_5       undefined4           0                      ;XREF[1,0]:   00003218
                                                          ;XREF[2,0]:   00003020,00003164
ram:000031ac    04609ee4        ldr         r6,[lr],#0x4                            
ram:000031b0    060016e1        tst         r6,r6                                   
ram:000031b4    0300004a        bmi         LAB_000031c8                            
ram:000031b8    010052e3        cmp         param_3,#0x1                            
ram:000031bc    0350a3e0        adc         r5,param_4,param_4                      
ram:000031c0    020675e3        cmn         r5,#0x200000                            
ram:000031c4    0a00008a        bhi         LAB_000031f4                            
                            LAB_000031c8:                 ;XREF[1,0]:   000031b4
ram:000031c8    010050e3        cmp         param_1,#0x1                            
ram:000031cc    01c0a1e0        adc         r12,param_2,param_2                     
ram:000031d0    02067ce3        cmn         r12,#0x200000                           
ram:000031d4    0600008a        bhi         LAB_000031f4                            
ram:000031d8    0700001a        bne         LAB_000031fc                            
ram:000031dc    a1cfa0e1        mov         r12,param_2, lsr #0x1f                  
ram:000031e0    020675e3        cmn         r5,#0x200000                            
ram:000031e4    8cc08ce0        add         r12,r12,r12, lsl #0x1                   
ram:000031e8    02c08ce2        add         r12,r12,#0x2                            
ram:000031ec    a3cfac00        adceq       r12,r12,param_4, lsr #0x1f              
ram:000031f0    020000ea        b           LAB_00003200                            
                            LAB_000031f4:                 ;XREF[2,0]:   000031c4,000031d4
ram:000031f4    08c0a0e3        mov         r12,#0x8                                
ram:000031f8    000000ea        b           LAB_00003200                            
                            LAB_000031fc:                 ;XREF[1,0]:   000031d8
ram:000031fc    a3cfa0e1        mov         r12,param_4, lsr #0x1f                  
                            LAB_00003200:                 ;XREF[2,0]:   000031f0,000031f8
ram:00003200    8c508ce0        add         r5,r12,r12, lsl #0x1                    
ram:00003204    3665a0e1        mov         r6,r6, lsr r5                           
ram:00003208    076006e2        and         r6,r6,#0x7                              
ram:0000320c    04c056e2        subs        r12,r6,#0x4                             
ram:00003210    0200002a        bcs         switchD_00003220::switchD               
                            caseD_4:                      ;XREF[1,0]:   00003220
ram:00003214    06c18ee0        add         r12,lr,r6, lsl #0x2                     
ram:00003218    7040bde8        ldmia       sp!,{r4 r5 r6 lr}=>param_5              
ram:0000321c    1cff2fe1        bx          r12                                     
                            switchD:                      ;XREF[1,0]:   00003210
                                                          ; FWD[5,0]:   00003214,00003228,0000322c,00003230
                                                          ;             00003234
ram:00003220    0cf18fe0        add         pc,pc,r12, lsl #0x2                     
ram:00003224    00              ??          00h                                     
ram:00003225    00              ??          00h                                     
ram:00003226    a0              ??          A0h                                     
ram:00003227    e1              ??          E1h                                     
                            caseD_4:                      ;XREF[1,0]:   00003220
ram:00003228    050000ea        b           LAB_00003244                            
                            caseD_5:                      ;XREF[1,0]:   00003220
ram:0000322c    060000ea        b           LAB_0000324c                            
                            caseD_6:                      ;XREF[1,0]:   00003220
ram:00003230    ffffffea        b           switchD_00003220::caseD_7               
                            caseD_7:                      ;XREF[2,0]:   00003220,00003230
ram:00003234    0211a0e3        mov         param_2,#0x80000000                     
ram:00003238    0000a0e3        mov         param_1,#0x0                            
ram:0000323c    021741e2        sub         param_2,param_2,#0x80000                
ram:00003240    7080bde8        ldmia       sp!,{r4 r5 r6 pc}                       
                            LAB_00003244:                 ;XREF[1,0]:   00003228
ram:00003244    0310a0e1        mov         param_2,param_4                         
ram:00003248    0200a0e1        mov         param_1,param_3                         
                            LAB_0000324c:                 ;XREF[1,0]:   0000322c
ram:0000324c    010050e3        cmp         param_1,#0x1                            
ram:00003250    0140b1e0        adcs        r4,param_2,param_2                      
ram:00003254    02467412        rsbnes      r4,r4,#0x200000                         
ram:00003258    0000a083        movhi       param_1,#0x0                            
ram:0000325c    02110182        andhi       param_2,param_2,#0x80000000             
ram:00003260    7080bde8        ldmia       sp!,{r4 r5 r6 pc}                       
                            LAB_00003264:                 ;XREF[3,0]:   00003130,00003184,000032c4
ram:00003264    2100b0e1        movs        r0,r1, lsr #32                          
ram:00003268    021640e2        sub         r1,r0,#0x200000                         
ram:0000326c    6110a0e1        mov         r1,r1, rrx                              
ram:00003270    1eff2fe1        bx          lr                                      
                            ;************************************************************************************************
                            ;*                                           FUNCTION                                           *
                            ;************************************************************************************************
                            ;undefined FUN_00003274()
                                                          ;XREF[1,0]:   00002054
ram:00003274    8030b0e1        movs        r3,r0, lsl #0x1                         
ram:00003278    a3c1a0e1        mov         r12,r3, lsr #0x3                        
ram:0000327c    6cc0a0e1        mov         r12,r12, rrx                            
ram:00003280    003033e0        eors        r3,r3,r0                                
ram:00003284    800ea011        movne       r0,r0, lsl #0x1d                        
ram:00003288    0e138c12        addne       r1,r12,#0x38000000                      
ram:0000328c    7f041313        tstne       r3,#0x7f000000                          
ram:00003290    1eff2f11        bxne        lr                                      
ram:00003294    02031ce3        tst         r12,#0x8000000                          
ram:00003298    0200001a        bne         LAB_000032a8                            
ram:0000329c    0000b0e3        movs        r0,#0x0                                 
ram:000032a0    02110ce2        and         r1,r12,#0x80000000                      
ram:000032a4    1eff2fe1        bx          lr                                      
                            LAB_000032a8:                 ;XREF[1,0]:   00003298
ram:000032a8    02310ce2        and         r3,r12,#0x80000000                      
ram:000032ac    a00e83e1        orr         r0,r3,r0, lsr #0x1d                     
ram:000032b0    10402de9        stmdb       sp!,{r4 lr}                             
ram:000032b4    8c0180e1        orr         r0,r0,r12, lsl #0x3                     
ram:000032b8    120000eb        bl          FUN_00003308                            ;undefined FUN_00003308(undefined par...
ram:000032bc    00000092        andls       r0,r0,#0x0                              
ram:000032c0    0010a0e1        mov         r1,r0                                   
ram:000032c4    e6ffffea        b           LAB_00003264                            
ram:000032c8    02              ??          02h                                     
ram:000032c9    11              ??          11h                                     
ram:000032ca    a0              ??          A0h                                     
ram:000032cb    e3              ??          E3h                                     
ram:000032cc    00              ??          00h                                     
ram:000032cd    00              ??          00h                                     
                            LAB_000032ce:                 ;XREF[1,0]:   000000c8
ram:000032ce    a0e30217        strne       lr,[r2,-r0,lsr #0x7]=>SupervisorCall+1  
ram:000032d2    41e21eff        swi         0x1ee241                                
ram:000032d6    2f              ??          2Fh    /                                
ram:000032d7    e1              ??          E1h                                     
                            ;************************************************************************************************
                            ;*                                           FUNCTION                                           *
                            ;************************************************************************************************
                            ;undefined FUN_000032d8()
                                                          ;XREF[2,0]:   000000d0,0000204c
ram:000032d8    021110e2        ands        r1,r0,#0x80000000                       
ram:000032dc    00006042        rsbmi       r0,r0,#0x0                              
ram:000032e0    103f6fe1        clz         r3,r0                                   
ram:000032e4    1023b0e1        movs        r2,r0, lsl r3                           
ram:000032e8    9d3063e2        rsb         r3,r3,#0x9d                             
ram:000032ec    1eff2f01        bxeq        lr                                      
ram:000032f0    831b91e1        orrs        r1,r1,r3, lsl #0x17                     
ram:000032f4    823cb0e1        movs        r3,r2, lsl #0x19                        
ram:000032f8    2204a1e0        adc         r0,r1,r2, lsr #0x8                      
ram:000032fc    1eff2f31        bxcc        lr                                      
ram:00003300    0100c003        biceq       r0,r0,#0x1                              
ram:00003304    1eff2fe1        bx          lr                                      
                            ;************************************************************************************************
                            ;*                                           FUNCTION                                           *
                            ;************************************************************************************************
                            ;undefined FUN_00003308(undefined param_1, undefined param_2, undefined param_3, undefined param_4, undefined4 param_5)
          ;param_1       undefined           r0                      
          ;param_2       undefined           r1                      
          ;param_3       undefined           r2                      
          ;param_4       undefined           r3                      
          ;param_5       undefined4           0                      ;XREF[1,0]:   0000336c
                                                          ;XREF[1,0]:   000032b8
ram:00003308    04409ee4        ldr         r4,[lr],#0x4                            
ram:0000330c    040014e1        tst         r4,r4                                   
ram:00003310    0200004a        bmi         LAB_00003320                            
ram:00003314    8120a0e1        mov         param_3,param_2, lsl #0x1               
ram:00003318    ff0452e3        cmp         param_3,#0xff000000                     
ram:0000331c    0900008a        bhi         LAB_00003348                            
                            LAB_00003320:                 ;XREF[1,0]:   00003310
ram:00003320    8030a0e1        mov         param_4,param_1, lsl #0x1               
ram:00003324    ff0453e3        cmp         param_4,#0xff000000                     
ram:00003328    0600008a        bhi         LAB_00003348                            
ram:0000332c    0700001a        bne         LAB_00003350                            
ram:00003330    a0cfa0e1        mov         r12,param_1, lsr #0x1f                  
ram:00003334    ff0452e3        cmp         param_3,#0xff000000                     
ram:00003338    8cc08ce0        add         r12,r12,r12, lsl #0x1                   
ram:0000333c    02c08ce2        add         r12,r12,#0x2                            
ram:00003340    a1cfac00        adceq       r12,r12,param_2, lsr #0x1f              
ram:00003344    020000ea        b           LAB_00003354                            
                            LAB_00003348:                 ;XREF[2,0]:   0000331c,00003328
ram:00003348    08c0a0e3        mov         r12,#0x8                                
ram:0000334c    000000ea        b           LAB_00003354                            
                            LAB_00003350:                 ;XREF[1,0]:   0000332c
ram:00003350    a1cfa0e1        mov         r12,param_2, lsr #0x1f                  
                            LAB_00003354:                 ;XREF[2,0]:   00003344,0000334c
ram:00003354    8c308ce0        add         param_4,r12,r12, lsl #0x1               
ram:00003358    3443a0e1        mov         r4,r4, lsr param_4                      
ram:0000335c    074004e2        and         r4,r4,#0x7                              
ram:00003360    04c054e2        subs        r12,r4,#0x4                             
ram:00003364    0200002a        bcs         switchD_00003374::switchD               
                            caseD_4:                      ;XREF[1,0]:   00003374
ram:00003368    04c18ee0        add         r12,lr,r4, lsl #0x2                     
ram:0000336c    1040bde8        ldmia       sp!,{r4 lr}=>param_5                    
ram:00003370    1cff2fe1        bx          r12                                     
                            switchD:                      ;XREF[1,0]:   00003364
                                                          ; FWD[5,0]:   00003368,0000337c,00003380,00003384
                                                          ;             00003388
ram:00003374    0cf18fe0        add         pc,pc,r12, lsl #0x2                     
ram:00003378    00              ??          00h                                     
ram:00003379    00              ??          00h                                     
ram:0000337a    a0              ??          A0h                                     
ram:0000337b    e1              ??          E1h                                     
                            caseD_4:                      ;XREF[1,0]:   00003374
ram:0000337c    040000ea        b           LAB_00003394                            
                            caseD_5:                      ;XREF[1,0]:   00003374
ram:00003380    040000ea        b           LAB_00003398                            
                            caseD_6:                      ;XREF[1,0]:   00003374
ram:00003384    ffffffea        b           switchD_00003374::caseD_7               
                            caseD_7:                      ;XREF[2,0]:   00003374,00003384
ram:00003388    0201a0e3        mov         param_1,#0x80000000                     
ram:0000338c    010540e2        sub         param_1,param_1,#0x400000               
ram:00003390    1080bde8        ldmia       sp!,{r4 pc}                             
                            LAB_00003394:                 ;XREF[1,0]:   0000337c
ram:00003394    0100a0e1        mov         param_1,param_2                         
                            LAB_00003398:                 ;XREF[1,0]:   00003380
ram:00003398    8020b0e1        movs        param_3,param_1, lsl #0x1               
ram:0000339c    01247212        rsbnes      param_3,param_3,#0x1000000              
ram:000033a0    02010082        andhi       param_1,param_1,#0x80000000             
ram:000033a4    1080bde8        ldmia       sp!,{r4 pc}                             
                            PTR_DAT_000033a8:             ;XREF[1,0]:   000000bc
ram:000033a8    c0330000        addr        DAT_000033c0                            
                            PTR_DAT_000033ac:             ;XREF[1,0]:   000000bc
ram:000033ac    c0330000        addr        DAT_000033c0                            
                            DAT_000033b0:                 ;XREF[1,0]:   000000bc
ram:000033b0    70000000        undefined4  00000070h                               ;?  ->  00000070
                            DAT_000033b4:                 ;XREF[1,0]:   000000bc
ram:000033b4    d8000000        undefined4  000000D8h                               ;?  ->  000000d8
                            DAT_000033b8:                 ;XREF[3,0]:   00000480,0000049c,00000730
ram:000033b8    00000000        undefined4  00000000h                               
                            DAT_000033bc:                 ;XREF[26,0]:  00002b54,00002b64,00002b78,00002b8c
                                                          ;             00002b98,00002ba4,00002bb4,00002bc4
                                                          ;             00002bd4,00002be4,00002bf4,00002c04
                                                          ;             00002c14,00002c24,00002c30,00002c40
                                                          ;             00002c50,00002c5c,00002c6c,00002c78
                                                          ;             00002c88,00002cc0,00002ccc,00002cd8
                                                          ;             00002ce4,00002d6c
ram:000033bc    00000000        undefined4  00000000h                               
                            DAT_000033c0:                 ;XREF[12,0]:  000000bc,000000ec,00002b54,00002b64
                                                          ;             00002b8c,00002cc0,00002ccc,00002cd8
                                                          ;             00002ce4,00002d68,000033a8,000033ac
ram:000033c0    00000000        undefined4  00000000h                               
                            DAT_000033c4:                 ;XREF[1,0]:   000000ec
ram:000033c4    00000000        undefined4  00000000h                               
                            DAT_000033c8:                 ;XREF[2,0]:   000000ec,00002b6c
ram:000033c8    00000000        undefined4  00000000h                               
                            DAT_000033cc:                 ;XREF[2,0]:   000000ec,00002b68
ram:000033cc    00000000        undefined4  00000000h                               
                            DAT_000033d0:                 ;XREF[3,0]:   000000ec,000000f8,00002b80
ram:000033d0    00000000        undefined4  00000000h                               
                            DAT_000033d4:                 ;XREF[3,0]:   000000ec,000000f8,00002b7c
ram:000033d4    00000000        undefined4  00000000h                               
                            DAT_000033d8:                 ;XREF[3,0]:   000000ec,000000fc,00002b90
ram:000033d8    00000000        undefined4  00000000h                               
                            DAT_000033dc:                 ;XREF[2,0]:   000000ec,00002b9c
ram:000033dc    00              ??          00h                                     
ram:000033dd    00              ??          00h                                     
ram:000033de    00              ??          00h                                     
