                            DAT_80000000:                 ;XREF[9,0]:   80000978,80006df8,80006e00,80006e2c
                                                          ;             80006e3c,80006e40,80006e64,80006e6c
                                                          ;             80006e70
ram:80000000    db              ??          DBh                                     
ram:80000001    f0              ??          F0h                                     
ram:80000002    21              ??          21h    !                                
ram:80000003    e3              ??          E3h                                     
ram:80000004    58              ??          58h    X                                
ram:80000005    d0              ??          D0h                                     
ram:80000006    9f              ??          9Fh                                     
ram:80000007    e5              ??          E5h                                     
ram:80000008    d7              ??          D7h                                     
ram:80000009    f0              ??          F0h                                     
ram:8000000a    21              ??          21h    !                                
ram:8000000b    e3              ??          E3h                                     
ram:8000000c    54              ??          54h    T                                
ram:8000000d    d0              ??          D0h                                     
ram:8000000e    9f              ??          9Fh                                     
ram:8000000f    e5              ??          E5h                                     
ram:80000010    d2              ??          D2h                                     
ram:80000011    f0              ??          F0h                                     
                            DAT_80000012:                 ;XREF[1,0]:   80005de0
ram:80000012    21              ??          21h    !                                
ram:80000013    e3              ??          E3h                                     
ram:80000014    50              ??          50h    P                                
ram:80000015    d0              ??          D0h                                     
ram:80000016    9f              ??          9Fh                                     
ram:80000017    e5              ??          E5h                                     
ram:80000018    d1              ??          D1h                                     
ram:80000019    f0              ??          F0h                                     
                            DAT_8000001a:                 ;XREF[1,0]:   80005e08
ram:8000001a    21              ??          21h    !                                
ram:8000001b    e3              ??          E3h                                     
ram:8000001c    4c              ??          4Ch    L                                
ram:8000001d    d0              ??          D0h                                     
ram:8000001e    9f              ??          9Fh                                     
ram:8000001f    e5              ??          E5h                                     
ram:80000020    df              ??          DFh                                     
ram:80000021    f0              ??          F0h                                     
ram:80000022    21              ??          21h    !                                
ram:80000023    e3              ??          E3h                                     
ram:80000024    48              ??          48h    H                                
ram:80000025    d0              ??          D0h                                     
ram:80000026    9f              ??          9Fh                                     
ram:80000027    e5              ??          E5h                                     
ram:80000028    d3              ??          D3h                                     
ram:80000029    f0              ??          F0h                                     
ram:8000002a    21              ??          21h    !                                
ram:8000002b    e3              ??          E3h                                     
ram:8000002c    44              ??          44h    D                                
ram:8000002d    d0              ??          D0h                                     
ram:8000002e    9f              ??          9Fh                                     
ram:8000002f    e5              ??          E5h                                     
ram:80000030    10              ??          10h                                     
ram:80000031    0f              ??          0Fh                                     
ram:80000032    11              ??          11h                                     
ram:80000033    ee              ??          EEh                                     
ram:80000034    02              ??          02h                                     
ram:80000035    0a              ??          0Ah                                     
ram:80000036    c0              ??          C0h                                     
ram:80000037    e3              ??          E3h                                     
ram:80000038    10              ??          10h                                     
ram:80000039    0f              ??          0Fh                                     
ram:8000003a    01              ??          01h                                     
ram:8000003b    ee              ??          EEh                                     
ram:8000003c    38              ??          38h    8                                
ram:8000003d    00              ??          00h                                     
ram:8000003e    9f              ??          9Fh                                     
ram:8000003f    e5              ??          E5h                                     
ram:80000040    10              ??          10h                                     
ram:80000041    2f              ??          2Fh    /                                
ram:80000042    11              ??          11h                                     
ram:80000043    ee              ??          EEh                                     
ram:80000044    02              ??          02h                                     
ram:80000045    2a              ??          2Ah    *                                
ram:80000046    12              ??          12h                                     
ram:80000047    e2              ??          E2h                                     
ram:80000048    00              ??          00h                                     
ram:80000049    10              ??          10h                                     
ram:8000004a    a0              ??          A0h                                     
ram:8000004b    03              ??          03h                                     
ram:8000004c    2c              ??          2Ch    ,                                
ram:8000004d    10              ??          10h                                     
ram:8000004e    9f              ??          9Fh                                     
ram:8000004f    15              ??          15h                                     
ram:80000050    fc              ??          FCh                                     
ram:80000051    05              ??          05h                                     
ram:80000052    b0              ??          B0h                                     
ram:80000053    e8              ??          E8h                                     
ram:80000054    fc              ??          FCh                                     
ram:80000055    05              ??          05h                                     
ram:80000056    a1              ??          A1h                                     
ram:80000057    e8              ??          E8h                                     
ram:80000058    fc              ??          FCh                                     
ram:80000059    05              ??          05h                                     
ram:8000005a    b0              ??          B0h                                     
ram:8000005b    e8              ??          E8h                                     
ram:8000005c    fc              ??          FCh                                     
ram:8000005d    05              ??          05h                                     
ram:8000005e    a1              ??          A1h                                     
ram:8000005f    e8              ??          E8h                                     
ram:80000060    07              ??          07h                                     
ram:80000061    00              ??          00h                                     
ram:80000062    00              ??          00h                                     
ram:80000063    ea              ??          EAh                                     
ram:80000064    00              ??          00h                                     
ram:80000065    50              ??          50h    P                                
ram:80000066    fb              ??          FBh                                     
ram:80000067    81              ??          81h                                     
ram:80000068    00              ??          00h                                     
ram:80000069    18              ??          18h                                     
ram:8000006a    fc              ??          FCh                                     
ram:8000006b    81              ??          81h                                     
ram:8000006c    00              ??          00h                                     
ram:8000006d    a8              ??          A8h                                     
ram:8000006e    fd              ??          FDh                                     
ram:8000006f    81              ??          81h                                     
ram:80000070    00              ??          00h                                     
ram:80000071    70              ??          70h    p                                
ram:80000072    fe              ??          FEh                                     
ram:80000073    81              ??          81h                                     
ram:80000074    00              ??          00h                                     
ram:80000075    00              ??          00h                                     
ram:80000076    00              ??          00h                                     
ram:80000077    82              ??          82h                                     
ram:80000078    00              ??          00h                                     
ram:80000079    38              ??          38h    8                                
ram:8000007a    ff              ??          FFh                                     
ram:8000007b    81              ??          81h                                     
ram:8000007c    58              ??          58h    X                                ;?  ->  80000958
ram:8000007d    09              ??          09h                                     
ram:8000007e    00              ??          00h                                     
ram:8000007f    80              ??          80h                                     
ram:80000080    00              ??          00h                                     
ram:80000081    00              ??          00h                                     
ram:80000082    ff              ??          FFh                                     
ram:80000083    ff              ??          FFh                                     
ram:80000084    00              ??          00h                                     
ram:80000085    00              ??          00h                                     
ram:80000086    00              ??          00h                                     
ram:80000087    eb              ??          EBh                                     
ram:80000088    3e              ??          3Eh    >                                
ram:80000089    00              ??          00h                                     
ram:8000008a    00              ??          00h                                     
ram:8000008b    eb              ??          EBh                                     
ram:8000008c    2c              ??          2Ch    ,                                
ram:8000008d    00              ??          00h                                     
ram:8000008e    8f              ??          8Fh                                     
ram:8000008f    e2              ??          E2h                                     
ram:80000090    00              ??          00h                                     
ram:80000091    0c              ??          0Ch                                     
ram:80000092    90              ??          90h                                     
ram:80000093    e8              ??          E8h                                     
ram:80000094    00              ??          00h                                     
ram:80000095    a0              ??          A0h                                     
ram:80000096    8a              ??          8Ah                                     
ram:80000097    e0              ??          E0h                                     
ram:80000098    00              ??          00h                                     
ram:80000099    b0              ??          B0h                                     
ram:8000009a    8b              ??          8Bh                                     
ram:8000009b    e0              ??          E0h                                     
ram:8000009c    01              ??          01h                                     
ram:8000009d    70              ??          70h    p                                
ram:8000009e    4a              ??          4Ah    J                                
ram:8000009f    e2              ??          E2h                                     
ram:800000a0    0b              ??          0Bh                                     
ram:800000a1    00              ??          00h                                     
ram:800000a2    5a              ??          5Ah    Z                                
ram:800000a3    e1              ??          E1h                                     
ram:800000a4    00              ??          00h                                     
ram:800000a5    00              ??          00h                                     
ram:800000a6    00              ??          00h                                     
ram:800000a7    1a              ??          1Ah                                     
ram:800000a8    36              ??          36h    6                                
ram:800000a9    00              ??          00h                                     
ram:800000aa    00              ??          00h                                     
ram:800000ab    eb              ??          EBh                                     
ram:800000ac    0f              ??          0Fh                                     
ram:800000ad    00              ??          00h                                     
ram:800000ae    ba              ??          BAh                                     
ram:800000af    e8              ??          E8h                                     
ram:800000b0    18              ??          18h                                     
ram:800000b1    e0              ??          E0h                                     
ram:800000b2    4f              ??          4Fh    O                                
ram:800000b3    e2              ??          E2h                                     
ram:800000b4    01              ??          01h                                     
ram:800000b5    00              ??          00h                                     
ram:800000b6    13              ??          13h                                     
ram:800000b7    e3              ??          E3h                                     
ram:800000b8    03              ??          03h                                     
ram:800000b9    f0              ??          F0h                                     
ram:800000ba    47              ??          47h    G                                
ram:800000bb    10              ??          10h                                     
ram:800000bc    13              ??          13h                                     
ram:800000bd    ff              ??          FFh                                     
ram:800000be    2f              ??          2Fh    /                                
ram:800000bf    e1              ??          E1h                                     
ram:800000c0    74              ??          74h    t                                
ram:800000c1    77              ??          77h    w                                
ram:800000c2    00              ??          00h                                     
ram:800000c3    00              ??          00h                                     
ram:800000c4    a4              ??          A4h                                     
ram:800000c5    77              ??          77h    w                                
ram:800000c6    00              ??          00h                                     
ram:800000c7    00              ??          00h                                     
                            LAB_800000c8:                 ;XREF[1,0]:   80007850
ram:800000c8    01c08fe2        adr         r12,0x800000d1                          
ram:800000cc    1cff2fe1        bx          r12=>LAB_800000d0                       
                            LAB_800000d0:                 ;XREF[1,0]:   800000cc
ram:800000d0    8a18            add         r2,r1,r2                                
                            LAB_800000d2:                 ;XREF[1,0]:   80000120
ram:800000d2    0378            ldrb        r3,[r0,#0x0]                            
ram:800000d4    0130            add         r0,#0x1                                 
ram:800000d6    5c07            lsl         r4,r3,#0x1d                             
ram:800000d8    640f            lsr         r4,r4,#0x1d                             
ram:800000da    01d1            bne         LAB_800000e0                            
ram:800000dc    0478            ldrb        r4,[r0,#0x0]                            
ram:800000de    0130            add         r0,#0x1                                 
                            LAB_800000e0:                 ;XREF[1,0]:   800000da
ram:800000e0    1d11            asr         r5,r3,#0x4                              
ram:800000e2    01d1            bne         LAB_800000e8                            
ram:800000e4    0578            ldrb        r5,[r0,#0x0]                            
ram:800000e6    0130            add         r0,#0x1                                 
                            LAB_800000e8:                 ;XREF[1,0]:   800000e2
ram:800000e8    013c            sub         r4,#0x1                                 
ram:800000ea    05d0            beq         LAB_800000f8                            
                            LAB_800000ec:                 ;XREF[1,0]:   800000f6
ram:800000ec    0678            ldrb        r6,[r0,#0x0]                            
ram:800000ee    0130            add         r0,#0x1                                 
ram:800000f0    0e70            strb        r6,[r1,#0x0]                            
ram:800000f2    0131            add         r1,#0x1                                 
ram:800000f4    013c            sub         r4,#0x1                                 
ram:800000f6    f9d1            bne         LAB_800000ec                            
                            LAB_800000f8:                 ;XREF[1,0]:   800000ea
ram:800000f8    1e07            lsl         r6,r3,#0x1c                             
ram:800000fa    06d4            bmi         LAB_8000010a                            
ram:800000fc    2e1c            add         r6,r5,#0x0                              
ram:800000fe    0ed0            beq         LAB_8000011e                            
                            LAB_80000100:                 ;XREF[1,0]:   80000104
ram:80000100    013e            sub         r6,#0x1                                 
ram:80000102    8c55            strb        r4,[r1,r6]                              
ram:80000104    fcd1            bne         LAB_80000100                            
ram:80000106    4919            add         r1,r1,r5                                
ram:80000108    09e0            b           LAB_8000011e                            
                            LAB_8000010a:                 ;XREF[1,0]:   800000fa
ram:8000010a    0478            ldrb        r4,[r0,#0x0]                            
ram:8000010c    0130            add         r0,#0x1                                 
ram:8000010e    0c1b            sub         r4,r1,r4                                
ram:80000110    0135            add         r5,#0x1                                 
                            LAB_80000112:                 ;XREF[1,0]:   8000011c
ram:80000112    2678            ldrb        r6,[r4,#0x0]                            
ram:80000114    0134            add         r4,#0x1                                 
ram:80000116    0e70            strb        r6,[r1,#0x0]                            
ram:80000118    0131            add         r1,#0x1                                 
ram:8000011a    013d            sub         r5,#0x1                                 
ram:8000011c    f9d5            bpl         LAB_80000112                            
                            LAB_8000011e:                 ;XREF[2,0]:   800000fe,80000108
ram:8000011e    9142            cmp         r1,r2                                   
ram:80000120    d7d3            bcc         LAB_800000d2                            
ram:80000122    7047            bx          lr                                      
                            LAB_80000124:                 ;XREF[2,0]:   80000130,80007840
ram:80000124    102052e2        subs        r2,r2,#0x10                             
ram:80000128    7800b028        ldmiacs     r0!,{r3 r4 r5 r6}                       
ram:8000012c    7800a128        stmiacs     r1!,{ r3 r4 r5 r6 }                     
ram:80000130    fbffff8a        bhi         LAB_80000124                            
ram:80000134    822eb0e1        movs        r2,r2, lsl #0x1d                        
ram:80000138    3000b028        ldmiacs     r0!,{r4 r5}                             
ram:8000013c    3000a128        stmiacs     r1!,{ r4 r5 }                           
ram:80000140    00409045        ldrmi       r4,[r0,#0x0]                            
ram:80000144    00408145        strmi       r4,[r1,#0x0]                            
ram:80000148    1eff2fe1        bx          lr                                      
ram:8000014c    00              ??          00h                                     
ram:8000014d    30              ??          30h    0                                
ram:8000014e    b0              ??          B0h                                     
ram:8000014f    e3              ??          E3h                                     
ram:80000150    00              ??          00h                                     
ram:80000151    40              ??          40h    @                                
ram:80000152    b0              ??          B0h                                     
ram:80000153    e3              ??          E3h                                     
ram:80000154    00              ??          00h                                     
ram:80000155    50              ??          50h    P                                
ram:80000156    b0              ??          B0h                                     
ram:80000157    e3              ??          E3h                                     
ram:80000158    00              ??          00h                                     
ram:80000159    60              ??          60h    `                                
ram:8000015a    b0              ??          B0h                                     
ram:8000015b    e3              ??          E3h                                     
ram:8000015c    10              ??          10h                                     
ram:8000015d    20              ??          20h                                     
ram:8000015e    52              ??          52h    R                                
ram:8000015f    e2              ??          E2h                                     
ram:80000160    78              ??          78h    x                                
ram:80000161    00              ??          00h                                     
ram:80000162    a1              ??          A1h                                     
ram:80000163    28              ??          28h    (                                
ram:80000164    fc              ??          FCh                                     
ram:80000165    ff              ??          FFh                                     
ram:80000166    ff              ??          FFh                                     
ram:80000167    8a              ??          8Ah                                     
ram:80000168    82              ??          82h                                     
ram:80000169    2e              ??          2Eh    .                                
ram:8000016a    b0              ??          B0h                                     
ram:8000016b    e1              ??          E1h                                     
ram:8000016c    30              ??          30h    0                                
ram:8000016d    00              ??          00h                                     
ram:8000016e    a1              ??          A1h                                     
ram:8000016f    28              ??          28h    (                                
ram:80000170    00              ??          00h                                     
ram:80000171    30              ??          30h    0                                
ram:80000172    81              ??          81h                                     
ram:80000173    45              ??          45h    E                                
ram:80000174    1e              ??          1Eh                                     
ram:80000175    ff              ??          FFh                                     
ram:80000176    2f              ??          2Fh    /                                
ram:80000177    e1              ??          E1h                                     
ram:80000178    1f              ??          1Fh                                     
ram:80000179    b5              ??          B5h                                     
ram:8000017a    00              ??          00h                                     
ram:8000017b    98              ??          98h                                     
ram:8000017c    01              ??          01h                                     
ram:8000017d    99              ??          99h                                     
ram:8000017e    00              ??          00h                                     
ram:8000017f    f0              ??          F0h                                     
ram:80000180    08              ??          08h                                     
ram:80000181    fb              ??          FBh                                     
ram:80000182    1f              ??          1Fh                                     
ram:80000183    bd              ??          BDh                                     
ram:80000184    10              ??          10h                                     
ram:80000185    b5              ??          B5h                                     
ram:80000186    10              ??          10h                                     
ram:80000187    bd              ??          BDh                                     
ram:80000188    7c              ??          7Ch    |                                
ram:80000189    0d              ??          0Dh                                     
ram:8000018a    00              ??          00h                                     
ram:8000018b    eb              ??          EBh                                     
ram:8000018c    02              ??          02h                                     
ram:8000018d    10              ??          10h                                     
ram:8000018e    a0              ??          A0h                                     
ram:8000018f    e1              ??          E1h                                     
ram:80000190    f8              ??          F8h                                     
ram:80000191    ff              ??          FFh                                     
ram:80000192    ff              ??          FFh                                     
ram:80000193    fa              ??          FAh                                     
ram:80000194    1c              ??          1Ch                                     
ram:80000195    c0              ??          C0h                                     
ram:80000196    9f              ??          9Fh                                     
ram:80000197    e5              ??          E5h                                     
ram:80000198    0f              ??          0Fh                                     
ram:80000199    c0              ??          C0h                                     
ram:8000019a    8c              ??          8Ch                                     
ram:8000019b    e0              ??          E0h                                     
ram:8000019c    01              ??          01h                                     
ram:8000019d    00              ??          00h                                     
ram:8000019e    1c              ??          1Ch                                     
ram:8000019f    e3              ??          E3h                                     
ram:800001a0    0d              ??          0Dh                                     
ram:800001a1    e0              ??          E0h                                     
ram:800001a2    8f              ??          8Fh                                     
ram:800001a3    12              ??          12h                                     
ram:800001a4    0f              ??          0Fh                                     
ram:800001a5    e0              ??          E0h                                     
ram:800001a6    a0              ??          A0h                                     
ram:800001a7    01              ??          01h                                     
ram:800001a8    1c              ??          1Ch                                     
ram:800001a9    ff              ??          FFh                                     
ram:800001aa    2f              ??          2Fh    /                                
ram:800001ab    e1              ??          E1h                                     
ram:800001ac    01              ??          01h                                     
ram:800001ad    c0              ??          C0h                                     
ram:800001ae    8f              ??          8Fh                                     
ram:800001af    e2              ??          E2h                                     
ram:800001b0    1c              ??          1Ch                                     
ram:800001b1    ff              ??          FFh                                     
ram:800001b2    2f              ??          2Fh    /                                
ram:800001b3    e1              ??          E1h                                     
ram:800001b4    00              ??          00h                                     
ram:800001b5    f0              ??          F0h                                     
ram:800001b6    6a              ??          6Ah    j                                
ram:800001b7    fb              ??          FBh                                     
ram:800001b8    54              ??          54h    T                                
ram:800001b9    55              ??          55h    U                                
ram:800001ba    00              ??          00h                                     
ram:800001bb    00              ??          00h                                     
ram:800001bc    03              ??          03h                                     
ram:800001bd    00              ??          00h                                     
ram:800001be    2d              ??          2Dh    -                                
ram:800001bf    e9              ??          E9h                                     
ram:800001c0    ef              ??          EFh                                     
ram:800001c1    ff              ??          FFh                                     
ram:800001c2    ff              ??          FFh                                     
ram:800001c3    fa              ??          FAh                                     
ram:800001c4    03              ??          03h                                     
ram:800001c5    00              ??          00h                                     
ram:800001c6    bd              ??          BDh                                     
ram:800001c7    e8              ??          E8h                                     
ram:800001c8    71              ??          71h    q                                
ram:800001c9    0d              ??          0Dh                                     
ram:800001ca    00              ??          00h                                     
ram:800001cb    eb              ??          EBh                                     
                            ;************************************************************************************************
                            ;*                                           FUNCTION                                           *
                            ;************************************************************************************************
                            ;undefined FUN_800001cc()
                                                          ;XREF[2,0]:   80003fb4,80004090
ram:800001cc    70b5            push        { r4, r5, r6, lr }                      
ram:800001ce    0600            mov         r6,r0                                   
ram:800001d0    00f0c0ea        blx         FUN_80000754                            ;undefined FUN_80000754()
ram:800001d4    0568            ldr         r5,[r0,#0x0]                            
ram:800001d6    3000            mov         r0,r6                                   
ram:800001d8    0b30            add         r0,#0xb                                 
ram:800001da    c408            lsr         r4,r0,#0x3                              
ram:800001dc    e400            lsl         r4,r4,#0x3                              
ram:800001de    b442            cmp         r4,r6                                   
ram:800001e0    01d8            bhi         LAB_800001e6                            
ram:800001e2    0020            mov         r0,#0x0                                 
ram:800001e4    70bd            pop         { r4, r5, r6, pc }                      
                            LAB_800001e6:                 ;XREF[2,0]:   800001e0,8000022a
ram:800001e6    6868            ldr         r0,[r5,#0x4]                            
ram:800001e8    2a00            mov         r2,r5                                   
ram:800001ea    0028            cmp         r0,#0x0                                 
ram:800001ec    18d0            beq         LAB_80000220                            
                            LAB_800001ee:                 ;XREF[1,0]:   8000021e
ram:800001ee    0168            ldr         r1,[r0,#0x0]                            
ram:800001f0    a142            cmp         r1,r4                                   
ram:800001f2    11d3            bcc         LAB_80000218                            
ram:800001f4    0b00            mov         r3,r1                                   
ram:800001f6    2100            mov         r1,r4                                   
ram:800001f8    0831            add         r1,#0x8                                 
ram:800001fa    8b42            cmp         r3,r1                                   
ram:800001fc    08d3            bcc         LAB_80000210                            
ram:800001fe    4368            ldr         r3,[r0,#0x4]                            
ram:80000200    0119            add         r1,r0,r4                                
ram:80000202    4b60            str         r3,[r1,#0x4]                            
ram:80000204    0368            ldr         r3,[r0,#0x0]                            
ram:80000206    1b1b            sub         r3,r3,r4                                
ram:80000208    0b60            str         r3,[r1,#0x0]                            
ram:8000020a    5160            str         r1,[r2,#0x4]                            
ram:8000020c    0460            str         r4,[r0,#0x0]                            
ram:8000020e    01e0            b           LAB_80000214                            
                            LAB_80000210:                 ;XREF[1,0]:   800001fc
ram:80000210    4168            ldr         r1,[r0,#0x4]                            
ram:80000212    5160            str         r1,[r2,#0x4]                            
                            LAB_80000214:                 ;XREF[1,0]:   8000020e
ram:80000214    001d            add         r0,r0,#0x4                              
ram:80000216    70bd            pop         { r4, r5, r6, pc }                      
                            LAB_80000218:                 ;XREF[1,0]:   800001f2
ram:80000218    0200            mov         r2,r0                                   
ram:8000021a    4068            ldr         r0,[r0,#0x4]                            
ram:8000021c    0028            cmp         r0,#0x0                                 
ram:8000021e    e6d1            bne         LAB_800001ee                            
                            LAB_80000220:                 ;XREF[1,0]:   800001ec
ram:80000220    2100            mov         r1,r4                                   
ram:80000222    2800            mov         r0,r5                                   
ram:80000224    00f0a0fa        bl          FUN_80000768                            ;undefined FUN_80000768()
ram:80000228    0028            cmp         r0,#0x0                                 
ram:8000022a    dcd1            bne         LAB_800001e6                            
ram:8000022c    70bd            pop         { r4, r5, r6, pc }                      
                            ;************************************************************************************************
                            ;*                                           FUNCTION                                           *
                            ;************************************************************************************************
                            ;undefined FUN_8000022e()
                                                          ;XREF[3,0]:   80000828,80003ff4,800040cc
ram:8000022e    70b5            push        { r4, r5, r6, lr }                      
ram:80000230    0400            mov         r4,r0                                   
ram:80000232    051f            sub         r5,r0,#0x4                              
ram:80000234    00f08eea        blx         FUN_80000754                            ;undefined FUN_80000754()
ram:80000238    0068            ldr         r0,[r0,#0x0]                            
ram:8000023a    002c            cmp         r4,#0x0                                 
ram:8000023c    1ad0            beq         LAB_80000274                            
ram:8000023e    4468            ldr         r4,[r0,#0x4]                            
ram:80000240    01e0            b           LAB_80000246                            
                            LAB_80000242:                 ;XREF[1,0]:   8000024c
ram:80000242    2000            mov         r0,r4                                   
ram:80000244    6468            ldr         r4,[r4,#0x4]                            
                            LAB_80000246:                 ;XREF[1,0]:   80000240
ram:80000246    002c            cmp         r4,#0x0                                 
ram:80000248    01d0            beq         LAB_8000024e                            
ram:8000024a    ac42            cmp         r4,r5                                   
ram:8000024c    f9d3            bcc         LAB_80000242                            
                            LAB_8000024e:                 ;XREF[1,0]:   80000248
ram:8000024e    0168            ldr         r1,[r0,#0x0]                            
ram:80000250    0a18            add         r2,r1,r0                                
ram:80000252    aa42            cmp         r2,r5                                   
ram:80000254    04d1            bne         LAB_80000260                            
ram:80000256    2a68            ldr         r2,[r5,#0x0]                            
ram:80000258    8918            add         r1,r1,r2                                
ram:8000025a    0500            mov         r5,r0                                   
ram:8000025c    0160            str         r1,[r0,#0x0]                            
ram:8000025e    00e0            b           LAB_80000262                            
                            LAB_80000260:                 ;XREF[1,0]:   80000254
ram:80000260    4560            str         r5,[r0,#0x4]                            
                            LAB_80000262:                 ;XREF[1,0]:   8000025e
ram:80000262    2868            ldr         r0,[r5,#0x0]                            
ram:80000264    4119            add         r1,r0,r5                                
ram:80000266    a142            cmp         r1,r4                                   
ram:80000268    05d1            bne         LAB_80000276                            
ram:8000026a    6168            ldr         r1,[r4,#0x4]                            
ram:8000026c    6960            str         r1,[r5,#0x4]                            
ram:8000026e    2168            ldr         r1,[r4,#0x0]                            
ram:80000270    4018            add         r0,r0,r1                                
ram:80000272    2860            str         r0,[r5,#0x0]                            
                            LAB_80000274:                 ;XREF[1,0]:   8000023c
ram:80000274    70bd            pop         { r4, r5, r6, pc }                      
                            LAB_80000276:                 ;XREF[1,0]:   80000268
ram:80000276    6c60            str         r4,[r5,#0x4]                            
ram:80000278    70bd            pop         { r4, r5, r6, pc }                      
ram:8000027a    00              ??          00h                                     
ram:8000027b    00              ??          00h                                     
ram:8000027c    20              ??          20h                                     
ram:8000027d    30              ??          30h    0                                
ram:8000027e    52              ??          52h    R                                
ram:8000027f    e2              ??          E2h                                     
ram:80000280    04              ??          04h                                     
ram:80000281    00              ??          00h                                     
ram:80000282    00              ??          00h                                     
ram:80000283    5a              ??          5Ah    Z                                
ram:80000284    20              ??          20h                                     
ram:80000285    30              ??          30h    0                                
ram:80000286    62              ??          62h    b                                
ram:80000287    e2              ??          E2h                                     
ram:80000288    11              ??          11h                                     
ram:80000289    12              ??          12h                                     
ram:8000028a    a0              ??          A0h                                     
ram:8000028b    e1              ??          E1h                                     
ram:8000028c    30              ??          30h    0                                
ram:8000028d    13              ??          13h                                     
ram:8000028e    81              ??          81h                                     
ram:8000028f    e1              ??          E1h                                     
ram:80000290    10              ??          10h                                     
ram:80000291    02              ??          02h                                     
ram:80000292    a0              ??          A0h                                     
ram:80000293    e1              ??          E1h                                     
ram:80000294    1e              ??          1Eh                                     
ram:80000295    ff              ??          FFh                                     
ram:80000296    2f              ??          2Fh    /                                
ram:80000297    e1              ??          E1h                                     
ram:80000298    10              ??          10h                                     
ram:80000299    13              ??          13h                                     
ram:8000029a    a0              ??          A0h                                     
ram:8000029b    e1              ??          E1h                                     
ram:8000029c    00              ??          00h                                     
ram:8000029d    00              ??          00h                                     
ram:8000029e    a0              ??          A0h                                     
ram:8000029f    e3              ??          E3h                                     
ram:800002a0    1e              ??          1Eh                                     
ram:800002a1    ff              ??          FFh                                     
ram:800002a2    2f              ??          2Fh    /                                
ram:800002a3    e1              ??          E1h                                     
                            ;************************************************************************************************
                            ;*                                           FUNCTION                                           *
                            ;************************************************************************************************
                            ;undefined FUN_800002a4()
                                                          ;XREF[1,0]:   80001904
ram:800002a4    203052e2        subs        r3,r2,#0x20                             
ram:800002a8    0400005a        bpl         LAB_800002c0                            
ram:800002ac    203062e2        rsb         r3,r2,#0x20                             
ram:800002b0    3002a0e1        mov         r0,r0, lsr r2                           
ram:800002b4    110380e1        orr         r0,r0,r1, lsl r3                        
ram:800002b8    3112a0e1        mov         r1,r1, lsr r2                           
ram:800002bc    1eff2fe1        bx          lr                                      
                            LAB_800002c0:                 ;XREF[1,0]:   800002a8
ram:800002c0    3103a0e1        mov         r0,r1, lsr r3                           
ram:800002c4    0010a0e3        mov         r1,#0x0                                 
ram:800002c8    1eff2fe1        bx          lr                                      
                            ;************************************************************************************************
                            ;*                                           FUNCTION                                           *
                            ;************************************************************************************************
                            ;undefined FUN_800002cc()
                                                          ;XREF[2,0]:   80007370,80007380
ram:800002cc    30b5            push        { r4, r5, lr }                          
ram:800002ce    441c            add         r4,r0,#0x1                              
ram:800002d0    03e0            b           LAB_800002da                            
                            LAB_800002d2:                 ;XREF[1,0]:   800002dc
ram:800002d2    0178            ldrb        r1,[r0,#0x0]                            
ram:800002d4    401c            add         r0,r0,#0x1                              
ram:800002d6    0029            cmp         r1,#0x0                                 
ram:800002d8    0dd0            beq         LAB_800002f6                            
                            LAB_800002da:                 ;XREF[1,0]:   800002d0
ram:800002da    8107            lsl         r1,r0,#0x1e                             
ram:800002dc    f9d1            bne         LAB_800002d2                            
ram:800002de    0b4b            ldr         r3,[DAT_8000030c]                       ;= 01010101h
ram:800002e0    dd01            lsl         r5,r3,#0x7                              
                            LAB_800002e2:                 ;XREF[1,0]:   800002ea
ram:800002e2    04c8            ldmia       r0!,{ r2 }                              
ram:800002e4    d11a            sub         r1,r2,r3                                
ram:800002e6    9143            bic         r1,r2                                   
ram:800002e8    2940            and         r1,r5                                   
ram:800002ea    fad0            beq         LAB_800002e2                            
ram:800002ec    001b            sub         r0,r0,r4                                
ram:800002ee    0a06            lsl         r2,r1,#0x18                             
ram:800002f0    03d0            beq         LAB_800002fa                            
ram:800002f2    c01e            sub         r0,r0,#0x3                              
ram:800002f4    30bd            pop         { r4, r5, pc }                          
                            LAB_800002f6:                 ;XREF[1,0]:   800002d8
ram:800002f6    001b            sub         r0,r0,r4                                
ram:800002f8    30bd            pop         { r4, r5, pc }                          
                            LAB_800002fa:                 ;XREF[1,0]:   800002f0
ram:800002fa    0a04            lsl         r2,r1,#0x10                             
ram:800002fc    01d0            beq         LAB_80000302                            
ram:800002fe    801e            sub         r0,r0,#0x2                              
                            LAB_80000300:                 ;XREF[1,0]:   80000304
ram:80000300    30bd            pop         { r4, r5, pc }                          
                            LAB_80000302:                 ;XREF[1,0]:   800002fc
ram:80000302    0902            lsl         r1,r1,#0x8                              
ram:80000304    fcd0            beq         LAB_80000300                            
ram:80000306    401e            sub         r0,r0,#0x1                              
ram:80000308    30bd            pop         { r4, r5, pc }                          
ram:8000030a    00              ??          00h                                     
ram:8000030b    00              ??          00h                                     
                            DAT_8000030c:                 ;XREF[1,0]:   800002de
ram:8000030c    01010101        undefined4  01010101h                               
                            ;************************************************************************************************
                            ;*                                           FUNCTION                                           *
                            ;************************************************************************************************
                            ;undefined FUN_80000310()
          ;local_1c      undefined4         -1c                      ;XREF[2,0]:   80000318,8000034a
          ;local_20      undefined4         -20                      ;XREF[2,0]:   80000338,8000033e
                                                          ;XREF[1,0]:   80001a7c
ram:80000310    feb5            push        { r1, r2, r3, r4, r5, r6, r7, lr }      
ram:80000312    0e00            mov         r6,r1                                   
ram:80000314    0500            mov         r5,r0                                   
ram:80000316    1400            mov         r4,r2                                   
ram:80000318    0190            str         r0,[sp,#local_1c+0x20]                  
ram:8000031a    8007            lsl         r0,r0,#0x1e                             
ram:8000031c    04d0            beq         LAB_80000328                            
ram:8000031e    002c            cmp         r4,#0x0                                 
ram:80000320    10d0            beq         LAB_80000344                            
ram:80000322    541e            sub         r4,r2,#0x1                              
ram:80000324    2e80            strh        r6,[r5,#0x0]                            
ram:80000326    ad1c            add         r5,r5,#0x2                              
                            LAB_80000328:                 ;XREF[1,0]:   8000031c
ram:80000328    022c            cmp         r4,#0x2                                 
ram:8000032a    0bd3            bcc         LAB_80000344                            
ram:8000032c    6708            lsr         r7,r4,#0x1                              
ram:8000032e    3204            lsl         r2,r6,#0x10                             
ram:80000330    7f00            lsl         r7,r7,#0x1                              
ram:80000332    3243            orr         r2,r6                                   
ram:80000334    7900            lsl         r1,r7,#0x1                              
ram:80000336    2800            mov         r0,r5                                   
ram:80000338    0091            str         r1,[sp,#0x0]=>local_20                  
ram:8000033a    00f0d0e8        blx         FUN_800004dc                            ;undefined FUN_800004dc()
ram:8000033e    0099            ldr         r1,[sp,#0x0]=>local_20                  
ram:80000340    e41b            sub         r4,r4,r7                                
ram:80000342    4d19            add         r5,r1,r5                                
                            LAB_80000344:                 ;XREF[2,0]:   80000320,8000032a
ram:80000344    002c            cmp         r4,#0x0                                 
ram:80000346    00d0            beq         LAB_8000034a                            
ram:80000348    2e80            strh        r6,[r5,#0x0]                            
                            LAB_8000034a:                 ;XREF[1,0]:   80000346
ram:8000034a    0198            ldr         r0,[sp,#local_1c+0x20]                  
ram:8000034c    febd            pop         { r1, r2, r3, r4, r5, r6, r7, pc }      
ram:8000034e    00              ??          00h                                     
ram:8000034f    00              ??          00h                                     
                            ;************************************************************************************************
                            ;*                                           FUNCTION                                           *
                            ;************************************************************************************************
                            ;undefined FUN_80000350()
          ;local_8       undefined4          -8                      ;XREF[1,0]:   8000045c
                                                          ;XREF[4,0]:   80000dd4,80000e40,80003fec,800040a4
ram:80000350    030052e3        cmp         r2,#0x3                                 
ram:80000354    2a00009a        bls         LAB_80000404                            
ram:80000358    03c010e2        ands        r12,r0,#0x3                             
ram:8000035c    0800000a        beq         LAB_80000384                            
ram:80000360    0130d1e4        ldrb        r3,[r1],#0x1                            
ram:80000364    02005ce3        cmp         r12,#0x2                                
ram:80000368    0c2082e0        add         r2,r2,r12                               
ram:8000036c    01c0d194        ldrbls      r12,[r1],#0x1                           
ram:80000370    0130c0e4        strb        r3,[r0],#0x1                            
ram:80000374    0130d134        ldrbcc      r3,[r1],#0x1                            
ram:80000378    01c0c094        strbls      r12,[r0],#0x1                           
ram:8000037c    042042e2        sub         r2,r2,#0x4                              
ram:80000380    0130c034        strbcc      r3,[r0],#0x1                            
                            LAB_80000384:                 ;XREF[1,0]:   8000035c
ram:80000384    033011e2        ands        r3,r1,#0x3                              
ram:80000388    2500000a        beq         LAB_80000424                            
ram:8000038c    042052e2        subs        r2,r2,#0x4                              
ram:80000390    1b00003a        bcc         LAB_80000404                            
ram:80000394    03c031e7        ldr         r12,[r1,-r3]!                           
ram:80000398    020053e3        cmp         r3,#0x2                                 
ram:8000039c    0800000a        beq         LAB_800003c4                            
ram:800003a0    0f00008a        bhi         LAB_800003e4                            
                            LAB_800003a4:                 ;XREF[1,0]:   800003b8
ram:800003a4    2c34a0e1        mov         r3,r12, lsr #0x8                        
ram:800003a8    04c0b1e5        ldr         r12,[r1,#0x4]!                          
ram:800003ac    042052e2        subs        r2,r2,#0x4                              
ram:800003b0    0c3c83e1        orr         r3,r3,r12, lsl #0x18                    
ram:800003b4    043080e4        str         r3,[r0],#0x4                            
ram:800003b8    f9ffff2a        bcs         LAB_800003a4                            
ram:800003bc    011081e2        add         r1,r1,#0x1                              
ram:800003c0    0f0000ea        b           LAB_80000404                            
                            LAB_800003c4:                 ;XREF[2,0]:   8000039c,800003d8
ram:800003c4    2c38a0e1        mov         r3,r12, lsr #0x10                       
ram:800003c8    04c0b1e5        ldr         r12,[r1,#0x4]!                          
ram:800003cc    042052e2        subs        r2,r2,#0x4                              
ram:800003d0    0c3883e1        orr         r3,r3,r12, lsl #0x10                    
ram:800003d4    043080e4        str         r3,[r0],#0x4                            
ram:800003d8    f9ffff2a        bcs         LAB_800003c4                            
ram:800003dc    021081e2        add         r1,r1,#0x2                              
ram:800003e0    070000ea        b           LAB_80000404                            
                            LAB_800003e4:                 ;XREF[2,0]:   800003a0,800003f8
ram:800003e4    2c3ca0e1        mov         r3,r12, lsr #0x18                       
ram:800003e8    04c0b1e5        ldr         r12,[r1,#0x4]!                          
ram:800003ec    042052e2        subs        r2,r2,#0x4                              
ram:800003f0    0c3483e1        orr         r3,r3,r12, lsl #0x8                     
ram:800003f4    043080e4        str         r3,[r0],#0x4                            
ram:800003f8    f9ffff2a        bcs         LAB_800003e4                            
ram:800003fc    031081e2        add         r1,r1,#0x3                              
ram:80000400    0000a0e1        mov         r0,r0                                   
                            LAB_80000404:                 ;XREF[4,0]:   80000354,80000390,800003c0,800003e0
ram:80000404    822fb0e1        movs        r2,r2, lsl #0x1f                        
ram:80000408    0130d124        ldrbcs      r3,[r1],#0x1                            
ram:8000040c    01c0d124        ldrbcs      r12,[r1],#0x1                           
ram:80000410    0120d144        ldrbmi      r2,[r1],#0x1                            
ram:80000414    0130c024        strbcs      r3,[r0],#0x1                            
ram:80000418    01c0c024        strbcs      r12,[r0],#0x1                           
ram:8000041c    0120c044        strbmi      r2,[r0],#0x1                            
ram:80000420    1eff2fe1        bx          lr                                      
                            LAB_80000424:                 ;XREF[1,0]:   80000388
ram:80000424    10402de9        stmdb       sp!,{r4 lr}                             
ram:80000428    202052e2        subs        r2,r2,#0x20                             
ram:8000042c    0500003a        bcc         LAB_80000448                            
                            LAB_80000430:                 ;XREF[1,0]:   80000444
ram:80000430    1850b1e8        ldmia       r1!,{r3 r4 r12 lr}                      
ram:80000434    202052e2        subs        r2,r2,#0x20                             
ram:80000438    1850a0e8        stmia       r0!,{ r3 r4 r12 lr }                    
ram:8000043c    1850b1e8        ldmia       r1!,{r3 r4 r12 lr}                      
ram:80000440    1850a0e8        stmia       r0!,{ r3 r4 r12 lr }                    
ram:80000444    f9ffff2a        bcs         LAB_80000430                            
                            LAB_80000448:                 ;XREF[1,0]:   8000042c
ram:80000448    02ceb0e1        movs        r12,r2, lsl #0x1c                       
ram:8000044c    1850b128        ldmiacs     r1!,{r3 r4 r12 lr}                      
ram:80000450    1850a028        stmiacs     r0!,{ r3 r4 r12 lr }                    
ram:80000454    1800b148        ldmiami     r1!,{r3 r4}                             
ram:80000458    1800a048        stmiami     r0!,{ r3 r4 }                           
ram:8000045c    1040bde8        ldmia       sp!,{r4 lr}=>local_8                    
ram:80000460    02cfb0e1        movs        r12,r2, lsl #0x1e                       
ram:80000464    04309124        ldrcs       r3,[r1],#0x4                            
ram:80000468    04308024        strcs       r3,[r0],#0x4                            
ram:8000046c    1eff2f01        bxeq        lr                                      
ram:80000470    822fb0e1        movs        r2,r2, lsl #0x1f                        
ram:80000474    b230d120        ldrhcs      r3,[r1],#0x2                            
ram:80000478    0120d144        ldrbmi      r2,[r1],#0x1                            
ram:8000047c    b230c020        strhcs      r3,[r0],#0x2                            
ram:80000480    0120c044        strbmi      r2,[r0],#0x1                            
ram:80000484    1eff2fe1        bx          lr                                      
                            ;************************************************************************************************
                            ;*                                           FUNCTION                                           *
                            ;************************************************************************************************
                            ;undefined FUN_80000488()
                                                          ;XREF[1,0]:   80000de4
ram:80000488    ff3002e2        and         r3,r2,#0xff                             
ram:8000048c    032483e1        orr         r2,r3,r3, lsl #0x8                      
ram:80000490    022882e1        orr         r2,r2,r2, lsl #0x10                     
ram:80000494    000000ea        b           LAB_8000049c                            
ram:80000498    00              ??          00h                                     
ram:80000499    20              ??          20h                                     
ram:8000049a    a0              ??          A0h                                     
ram:8000049b    e3              ??          E3h                                     
                            LAB_8000049c:                 ;XREF[1,0]:   80000494
ram:8000049c    040051e3        cmp         r1,#0x4                                 
ram:800004a0    0700003a        bcc         LAB_800004c4                            
ram:800004a4    03c010e2        ands        r12,r0,#0x3                             
ram:800004a8    0b00000a        beq         FUN_800004dc                            
ram:800004ac    04c06ce2        rsb         r12,r12,#0x4                            
ram:800004b0    02005ce3        cmp         r12,#0x2                                
ram:800004b4    0120c014        strbne      r2,[r0],#0x1                            
ram:800004b8    0c1041e0        sub         r1,r1,r12                               
ram:800004bc    b220c0a0        strhge      r2,[r0],#0x2                            
ram:800004c0    050000ea        b           FUN_800004dc                            
                            LAB_800004c4:                 ;XREF[1,0]:   800004a0
ram:800004c4    81cfb0e1        movs        r12,r1, lsl #0x1f                       
ram:800004c8    0120c024        strbcs      r2,[r0],#0x1                            
ram:800004cc    0120c024        strbcs      r2,[r0],#0x1                            
ram:800004d0    0120c044        strbmi      r2,[r0],#0x1                            
ram:800004d4    1eff2fe1        bx          lr                                      
ram:800004d8    00              ??          00h                                     
ram:800004d9    20              ??          20h                                     
ram:800004da    a0              ??          A0h                                     
ram:800004db    e3              ??          E3h                                     
                            ;************************************************************************************************
                            ;*                                           FUNCTION                                           *
                            ;************************************************************************************************
                            ;undefined FUN_800004dc()
          ;local_4       undefined4          -4                      ;XREF[1,0]:   800004e8
                                                          ;XREF[3,0]:   8000033a,800004a8,800004c0
ram:800004dc    201051e2        subs        r1,r1,#0x20                             
ram:800004e0    0230a0e1        mov         r3,r2                                   
ram:800004e4    02c0a0e1        mov         r12,r2                                  
ram:800004e8    04e02de5        str         lr,[sp,#local_4]!                       
ram:800004ec    02e0a0e1        mov         lr,r2                                   
                            LAB_800004f0:                 ;XREF[1,0]:   800004fc
ram:800004f0    0c50a028        stmiacs     r0!,{ r2 r3 r12 lr }                    
ram:800004f4    0c50a028        stmiacs     r0!,{ r2 r3 r12 lr }                    
ram:800004f8    20105122        subcss      r1,r1,#0x20                             
ram:800004fc    fbffff2a        bcs         LAB_800004f0                            
ram:80000500    011eb0e1        movs        r1,r1, lsl #0x1c                        
ram:80000504    0c50a028        stmiacs     r0!,{ r2 r3 r12 lr }                    
ram:80000508    0c00a048        stmiami     r0!,{ r2 r3 }                           
ram:8000050c    04e09de4        ldr         lr,[sp],#0x4                            
ram:80000510    0111b0e1        movs        r1,r1, lsl #0x2                         
ram:80000514    04208024        strcs       r2,[r0],#0x4                            
ram:80000518    1eff2f01        bxeq        lr                                      
ram:8000051c    b220c040        strhmi      r2,[r0],#0x2                            
ram:80000520    010111e3        tst         r1,#0x40000000                          
ram:80000524    0120c014        strbne      r2,[r0],#0x1                            
ram:80000528    1eff2fe1        bx          lr                                      
                            ;************************************************************************************************
                            ;*                                           FUNCTION                                           *
                            ;************************************************************************************************
                            ;undefined FUN_8000052c()
                                                          ;XREF[1,0]:   80005aa0
ram:8000052c    013090e1        orrs        r3,r0,r1                                
ram:80000530    4c00004a        bmi         LAB_80000668                            
ram:80000534    a03071e0        rsbs        r3,r1,r0, lsr #0x1                      
ram:80000538    4400003a        bcc         LAB_80000650                            
ram:8000053c    0020b0e3        movs        r2,#0x0                                 
ram:80000540    203271e0        rsbs        r3,r1,r0, lsr #0x4                      
ram:80000544    3400003a        bcc         LAB_8000061c                            
ram:80000548    203471e0        rsbs        r3,r1,r0, lsr #0x8                      
ram:8000054c    2600003a        bcc         LAB_800005ec                            
ram:80000550    203671e0        rsbs        r3,r1,r0, lsr #0xc                      
ram:80000554    1700003a        bcc         LAB_800005b8                            
ram:80000558    203871e0        rsbs        r3,r1,r0, lsr #0x10                     
ram:8000055c    0900003a        bcc         LAB_80000588                            
                            LAB_80000560:                 ;XREF[1,0]:   80000954
ram:80000560    0114a0e1        mov         r1,r1, lsl #0x8                         
ram:80000564    203871e0        rsbs        r3,r1,r0, lsr #0x10                     
ram:80000568    ff2482e3        orr         r2,r2,#0xff000000                       
ram:8000056c    ff288223        orrcs       r2,r2,#0xff0000                         
ram:80000570    0114a021        movcs       r1,r1, lsl #0x8                         
ram:80000574    203671e0        rsbs        r3,r1,r0, lsr #0xc                      
ram:80000578    0e00003a        bcc         LAB_800005b8                            
ram:8000057c    003071e2        rsbs        r3,r1,#0x0                              
ram:80000580    6f00002a        bcs         LAB_80000744                            
                            LAB_80000584:                 ;XREF[1,0]:   800005e8
ram:80000584    2114a021        movcs       r1,r1, lsr #0x8                         
                            LAB_80000588:                 ;XREF[2,0]:   8000055c,80000950
ram:80000588    a03771e0        rsbs        r3,r1,r0, lsr #0xf                      
ram:8000058c    81074020        subcs       r0,r0,r1, lsl #0xf                      
ram:80000590    0220b2e0        adcs        r2,r2,r2                                
ram:80000594    203771e0        rsbs        r3,r1,r0, lsr #0xe                      
ram:80000598    01074020        subcs       r0,r0,r1, lsl #0xe                      
ram:8000059c    0220b2e0        adcs        r2,r2,r2                                
ram:800005a0    a03671e0        rsbs        r3,r1,r0, lsr #0xd                      
ram:800005a4    81064020        subcs       r0,r0,r1, lsl #0xd                      
ram:800005a8    0220b2e0        adcs        r2,r2,r2                                
ram:800005ac    203671e0        rsbs        r3,r1,r0, lsr #0xc                      
ram:800005b0    01064020        subcs       r0,r0,r1, lsl #0xc                      
ram:800005b4    0220b2e0        adcs        r2,r2,r2                                
                            LAB_800005b8:                 ;XREF[3,0]:   80000554,80000578,80000948
ram:800005b8    a03571e0        rsbs        r3,r1,r0, lsr #0xb                      
ram:800005bc    81054020        subcs       r0,r0,r1, lsl #0xb                      
ram:800005c0    0220b2e0        adcs        r2,r2,r2                                
ram:800005c4    203571e0        rsbs        r3,r1,r0, lsr #0xa                      
ram:800005c8    01054020        subcs       r0,r0,r1, lsl #0xa                      
ram:800005cc    0220b2e0        adcs        r2,r2,r2                                
ram:800005d0    a03471e0        rsbs        r3,r1,r0, lsr #0x9                      
ram:800005d4    81044020        subcs       r0,r0,r1, lsl #0x9                      
ram:800005d8    0220b2e0        adcs        r2,r2,r2                                
ram:800005dc    203471e0        rsbs        r3,r1,r0, lsr #0x8                      
ram:800005e0    01044020        subcs       r0,r0,r1, lsl #0x8                      
ram:800005e4    0220b2e0        adcs        r2,r2,r2                                
ram:800005e8    e5ffff2a        bcs         LAB_80000584                            
                            LAB_800005ec:                 ;XREF[2,0]:   8000054c,80000940
ram:800005ec    a03371e0        rsbs        r3,r1,r0, lsr #0x7                      
ram:800005f0    81034020        subcs       r0,r0,r1, lsl #0x7                      
ram:800005f4    0220b2e0        adcs        r2,r2,r2                                
ram:800005f8    203371e0        rsbs        r3,r1,r0, lsr #0x6                      
ram:800005fc    01034020        subcs       r0,r0,r1, lsl #0x6                      
ram:80000600    0220b2e0        adcs        r2,r2,r2                                
ram:80000604    a03271e0        rsbs        r3,r1,r0, lsr #0x5                      
ram:80000608    81024020        subcs       r0,r0,r1, lsl #0x5                      
ram:8000060c    0220b2e0        adcs        r2,r2,r2                                
                            LAB_80000610:                 ;XREF[1,0]:   80000938
ram:80000610    203271e0        rsbs        r3,r1,r0, lsr #0x4                      
ram:80000614    01024020        subcs       r0,r0,r1, lsl #0x4                      
ram:80000618    0220b2e0        adcs        r2,r2,r2                                
                            LAB_8000061c:                 ;XREF[1,0]:   80000544
ram:8000061c    a03171e0        rsbs        r3,r1,r0, lsr #0x3                      
ram:80000620    81014020        subcs       r0,r0,r1, lsl #0x3                      
ram:80000624    0220b2e0        adcs        r2,r2,r2                                
ram:80000628    203171e0        rsbs        r3,r1,r0, lsr #0x2                      
ram:8000062c    01014020        subcs       r0,r0,r1, lsl #0x2                      
ram:80000630    0220b2e0        adcs        r2,r2,r2                                
                            LAB_80000634:                 ;XREF[1,0]:   80000930
ram:80000634    a03071e0        rsbs        r3,r1,r0, lsr #0x1                      
ram:80000638    81004020        subcs       r0,r0,r1, lsl #0x1                      
ram:8000063c    0220b2e0        adcs        r2,r2,r2                                
ram:80000640    011050e0        subs        r1,r0,r1                                
ram:80000644    0010a031        movcc       r1,r0                                   
ram:80000648    0200a2e0        adc         r0,r2,r2                                
ram:8000064c    1eff2fe1        bx          lr                                      
                            LAB_80000650:                 ;XREF[1,0]:   80000538
ram:80000650    011050e0        subs        r1,r0,r1                                
ram:80000654    0100a023        movcs       r0,#0x1                                 
ram:80000658    1eff2f21        bxcs        lr                                      
ram:8000065c    0010a0e1        mov         r1,r0                                   
ram:80000660    0000b0e3        movs        r0,#0x0                                 
ram:80000664    1eff2fe1        bx          lr                                      
                            LAB_80000668:                 ;XREF[1,0]:   80000530
ram:80000668    022111e2        ands        r2,r1,#0x80000000                       
ram:8000066c    00106142        rsbmi       r1,r1,#0x0                              
ram:80000670    40c032e0        eors        r12,r2,r0, asr #32                      
ram:80000674    00006022        rsbcs       r0,r0,#0x0                              
ram:80000678    203271e0        rsbs        r3,r1,r0, lsr #0x4                      
ram:8000067c    1d00003a        bcc         LAB_800006f8                            
ram:80000680    203471e0        rsbs        r3,r1,r0, lsr #0x8                      
ram:80000684    0f00003a        bcc         LAB_800006c8                            
ram:80000688    0113a0e1        mov         r1,r1, lsl #0x6                         
ram:8000068c    203471e0        rsbs        r3,r1,r0, lsr #0x8                      
ram:80000690    3f2382e3        orr         r2,r2,#0xfc000000                       
ram:80000694    0b00003a        bcc         LAB_800006c8                            
ram:80000698    0113a0e1        mov         r1,r1, lsl #0x6                         
ram:8000069c    203471e0        rsbs        r3,r1,r0, lsr #0x8                      
ram:800006a0    3f2682e3        orr         r2,r2,#0x3f00000                        
ram:800006a4    0700003a        bcc         LAB_800006c8                            
ram:800006a8    0113a0e1        mov         r1,r1, lsl #0x6                         
ram:800006ac    203471e0        rsbs        r3,r1,r0, lsr #0x8                      
ram:800006b0    3f2982e3        orr         r2,r2,#0xfc000                          
ram:800006b4    0113a021        movcs       r1,r1, lsl #0x6                         
ram:800006b8    3f2c8223        orrcs       r2,r2,#0x3f00                           
ram:800006bc    003071e2        rsbs        r3,r1,#0x0                              
ram:800006c0    1d00002a        bcs         LAB_8000073c                            
                            LAB_800006c4:                 ;XREF[1,0]:   80000710
ram:800006c4    2113a021        movcs       r1,r1, lsr #0x6                         
                            LAB_800006c8:                 ;XREF[3,0]:   80000684,80000694,800006a4
ram:800006c8    a03371e0        rsbs        r3,r1,r0, lsr #0x7                      
ram:800006cc    81034020        subcs       r0,r0,r1, lsl #0x7                      
ram:800006d0    0220b2e0        adcs        r2,r2,r2                                
ram:800006d4    203371e0        rsbs        r3,r1,r0, lsr #0x6                      
ram:800006d8    01034020        subcs       r0,r0,r1, lsl #0x6                      
ram:800006dc    0220b2e0        adcs        r2,r2,r2                                
ram:800006e0    a03271e0        rsbs        r3,r1,r0, lsr #0x5                      
ram:800006e4    81024020        subcs       r0,r0,r1, lsl #0x5                      
ram:800006e8    0220b2e0        adcs        r2,r2,r2                                
ram:800006ec    203271e0        rsbs        r3,r1,r0, lsr #0x4                      
ram:800006f0    01024020        subcs       r0,r0,r1, lsl #0x4                      
ram:800006f4    0220b2e0        adcs        r2,r2,r2                                
                            LAB_800006f8:                 ;XREF[1,0]:   8000067c
ram:800006f8    a03171e0        rsbs        r3,r1,r0, lsr #0x3                      
ram:800006fc    81014020        subcs       r0,r0,r1, lsl #0x3                      
ram:80000700    0220b2e0        adcs        r2,r2,r2                                
ram:80000704    203171e0        rsbs        r3,r1,r0, lsr #0x2                      
ram:80000708    01014020        subcs       r0,r0,r1, lsl #0x2                      
ram:8000070c    0220b2e0        adcs        r2,r2,r2                                
ram:80000710    ebffff2a        bcs         LAB_800006c4                            
ram:80000714    a03071e0        rsbs        r3,r1,r0, lsr #0x1                      
ram:80000718    81004020        subcs       r0,r0,r1, lsl #0x1                      
ram:8000071c    0220b2e0        adcs        r2,r2,r2                                
ram:80000720    011050e0        subs        r1,r0,r1                                
ram:80000724    0010a031        movcc       r1,r0                                   
ram:80000728    0200a2e0        adc         r0,r2,r2                                
ram:8000072c    cccfb0e1        movs        r12,r12, asr #0x1f                      
ram:80000730    00006042        rsbmi       r0,r0,#0x0                              
ram:80000734    00106122        rsbcs       r1,r1,#0x0                              
ram:80000738    1eff2fe1        bx          lr                                      
                            LAB_8000073c:                 ;XREF[1,0]:   800006c0
ram:8000073c    cccfb0e1        movs        r12,r12, asr #0x1f                      
ram:80000740    00006042        rsbmi       r0,r0,#0x0                              
                            LAB_80000744:                 ;XREF[1,0]:   80000580
ram:80000744    01402de9        stmdb       sp!,{r0 lr}                             
ram:80000748    0000b0e3        movs        r0,#0x0                                 
ram:8000074c    0000a0e1        mov         r0,r0                                   
ram:80000750    0280bde8        ldmia       sp!,{r1 pc}                             
                            ;************************************************************************************************
                            ;*                                           FUNCTION                                           *
                            ;************************************************************************************************
                            ;undefined FUN_80000754()
                                                          ;XREF[3,0]:   800001d0,80000234,800007c6
ram:80000754    00009fe5        ldr         r0,[DAT_8000075c]                       ;= 80453050h
ram:80000758    1eff2fe1        bx          lr                                      
                            DAT_8000075c:                 ;XREF[1,0]:   80000754
ram:8000075c    50304580        undefined4  80453050h                               
ram:80000760    70              ??          70h    p                                
ram:80000761    47              ??          47h    G                                
ram:80000762    70              ??          70h    p                                
ram:80000763    47              ??          47h    G                                
ram:80000764    70              ??          70h    p                                
ram:80000765    47              ??          47h    G                                
ram:80000766    70              ??          70h    p                                
ram:80000767    47              ??          47h    G                                
                            ;************************************************************************************************
                            ;*                                           FUNCTION                                           *
                            ;************************************************************************************************
                            ;undefined FUN_80000768()
          ;local_10      undefined4         -10                      ;XREF[1,0]:   8000077c
                                                          ;XREF[1,0]:   80000224
ram:80000768    38b5            push        { r3, r4, r5, lr }                      
ram:8000076a    0400            mov         r4,r0                                   
ram:8000076c    0a00            mov         r2,r1                                   
ram:8000076e    6946            mov         r1,sp                                   
ram:80000770    0020            mov         r0,#0x0                                 
ram:80000772    00f06ff8        bl          FUN_80000854                            ;undefined FUN_80000854()
ram:80000776    0028            cmp         r0,#0x0                                 
ram:80000778    05d0            beq         LAB_80000786                            
ram:8000077a    0200            mov         r2,r0                                   
ram:8000077c    0099            ldr         r1=>local_10,[sp,#0x0]                  
ram:8000077e    2000            mov         r0,r4                                   
ram:80000780    00f03bf8        bl          FUN_800007fa                            ;undefined FUN_800007fa()
ram:80000784    0120            mov         r0,#0x1                                 
                            LAB_80000786:                 ;XREF[1,0]:   80000778
ram:80000786    38bd            pop         { r3, r4, r5, pc }                      
                            ;************************************************************************************************
                            ;*                                           FUNCTION                                           *
                            ;************************************************************************************************
                            ;undefined FUN_80000788()
ram:80000788    10b5            push        { r4, lr }                              
ram:8000078a    0120            mov         r0,#0x1                                 
ram:8000078c    00f04ff8        bl          FUN_8000082e                            ;undefined FUN_8000082e()
ram:80000790    10bd            pop         { r4, pc }                              
                            ;************************************************************************************************
                            ;*                                           FUNCTION                                           *
                            ;************************************************************************************************
                            ;undefined FUN_80000792()
          ;local_18      undefined4         -18                      ;XREF[1,0]:   800007bc
ram:80000792    f8b5            push        { r3, r4, r5, r6, r7, lr }              
ram:80000794    00f052f8        bl          FUN_8000083c                            ;undefined FUN_8000083c()
ram:80000798    0500            mov         r5,r0                                   
ram:8000079a    0c00            mov         r4,r1                                   
ram:8000079c    0020            mov         r0,#0x0                                 
ram:8000079e    1020            mov         r0,#0x10                                
ram:800007a0    c046            mov         r8,r8                                   
ram:800007a2    0600            mov         r6,r0                                   
ram:800007a4    a819            add         r0,r5,r6                                
ram:800007a6    a042            cmp         r0,r4                                   
ram:800007a8    0dd9            bls         LAB_800007c6                            
ram:800007aa    6946            mov         r1,sp                                   
ram:800007ac    3200            mov         r2,r6                                   
ram:800007ae    0020            mov         r0,#0x0                                 
ram:800007b0    00f050f8        bl          FUN_80000854                            ;undefined FUN_80000854()
ram:800007b4    0700            mov         r7,r0                                   
ram:800007b6    01d1            bne         LAB_800007bc                            
ram:800007b8    00f039f8        bl          FUN_8000082e                            ;undefined FUN_8000082e()
                            LAB_800007bc:                 ;XREF[1,0]:   800007b6
ram:800007bc    0098            ldr         r0,[sp,#0x0]=>local_18                  
ram:800007be    a042            cmp         r0,r4                                   
ram:800007c0    00d0            beq         LAB_800007c4                            
ram:800007c2    0500            mov         r5,r0                                   
                            LAB_800007c4:                 ;XREF[1,0]:   800007c0
ram:800007c4    c419            add         r4,r0,r7                                
                            LAB_800007c6:                 ;XREF[1,0]:   800007a8
ram:800007c6    fff7c6ef        blx         FUN_80000754                            ;undefined FUN_80000754()
ram:800007ca    f61d            add         r6,r6,#0x7                              
ram:800007cc    0700            mov         r7,r0                                   
ram:800007ce    0560            str         r5,[r0,#0x0]                            
ram:800007d0    f008            lsr         r0,r6,#0x3                              
ram:800007d2    c000            lsl         r0,r0,#0x3                              
ram:800007d4    4619            add         r6,r0,r5                                
ram:800007d6    2800            mov         r0,r5                                   
ram:800007d8    00f008f8        bl          FUN_800007ec                            ;undefined FUN_800007ec()
ram:800007dc    b442            cmp         r4,r6                                   
ram:800007de    04d0            beq         LAB_800007ea                            
ram:800007e0    3868            ldr         r0,[r7,#0x0]                            
ram:800007e2    a21b            sub         r2,r4,r6                                
ram:800007e4    3100            mov         r1,r6                                   
ram:800007e6    00f008f8        bl          FUN_800007fa                            ;undefined FUN_800007fa()
                            LAB_800007ea:                 ;XREF[1,0]:   800007de
ram:800007ea    f8bd            pop         { r3, r4, r5, r6, r7, pc }              
                            ;************************************************************************************************
                            ;*                                           FUNCTION                                           *
                            ;************************************************************************************************
                            ;undefined FUN_800007ec()
                                                          ;XREF[1,0]:   800007d8
ram:800007ec    0021            mov         r1,#0x0                                 
ram:800007ee    0160            str         r1,[r0,#0x0]                            
ram:800007f0    4160            str         r1,[r0,#0x4]                            
ram:800007f2    8060            str         r0,[r0,#0x8]                            
ram:800007f4    7047            bx          lr                                      
ram:800007f6    10              ??          10h                                     
ram:800007f7    20              ??          20h                                     
ram:800007f8    70              ??          70h    p                                
ram:800007f9    47              ??          47h    G                                
                            ;************************************************************************************************
                            ;*                                           FUNCTION                                           *
                            ;************************************************************************************************
                            ;undefined FUN_800007fa()
                                                          ;XREF[2,0]:   80000780,800007e6
ram:800007fa    10b5            push        { r4, lr }                              
ram:800007fc    0300            mov         r3,r0                                   
ram:800007fe    4068            ldr         r0,[r0,#0x4]                            
ram:80000800    01e0            b           LAB_80000806                            
                            LAB_80000802:                 ;XREF[1,0]:   8000080c
ram:80000802    0300            mov         r3,r0                                   
ram:80000804    4068            ldr         r0,[r0,#0x4]                            
                            LAB_80000806:                 ;XREF[1,0]:   80000800
ram:80000806    0028            cmp         r0,#0x0                                 
ram:80000808    01d0            beq         LAB_8000080e                            
ram:8000080a    8842            cmp         r0,r1                                   
ram:8000080c    f9d3            bcc         LAB_80000802                            
                            LAB_8000080e:                 ;XREF[1,0]:   80000808
ram:8000080e    1868            ldr         r0,[r3,#0x0]                            
ram:80000810    c318            add         r3,r0,r3                                
ram:80000812    8b42            cmp         r3,r1                                   
ram:80000814    06d0            beq         LAB_80000824                            
ram:80000816    cb1c            add         r3,r1,#0x3                              
ram:80000818    d808            lsr         r0,r3,#0x3                              
ram:8000081a    c000            lsl         r0,r0,#0x3                              
ram:8000081c    001d            add         r0,r0,#0x4                              
ram:8000081e    411a            sub         r1,r0,r1                                
ram:80000820    521a            sub         r2,r2,r1                                
ram:80000822    0100            mov         r1,r0                                   
                            LAB_80000824:                 ;XREF[1,0]:   80000814
ram:80000824    081d            add         r0,r1,#0x4                              
ram:80000826    0a60            str         r2,[r1,#0x0]                            
ram:80000828    fff701fd        bl          FUN_8000022e                            ;undefined FUN_8000022e()
ram:8000082c    10bd            pop         { r4, pc }                              
                            ;************************************************************************************************
                            ;*                                           FUNCTION                                           *
                            ;************************************************************************************************
                            ;undefined FUN_8000082e()
                                                          ;XREF[2,0]:   8000078c,800007b8
ram:8000082e    10b5            push        { r4, lr }                              
ram:80000830    00f038f8        bl          FUN_800008a4                            ;undefined FUN_800008a4()
ram:80000834    00f030f8        bl          FUN_80000898                            ;undefined FUN_80000898()
ram:80000838    10bd            pop         { r4, pc }                              
ram:8000083a    00              ??          00h                                     
ram:8000083b    00              ??          00h                                     
                            ;************************************************************************************************
                            ;*                                           FUNCTION                                           *
                            ;************************************************************************************************
                            ;undefined FUN_8000083c()
                                                          ;XREF[1,0]:   80000794
ram:8000083c    0122            mov         r2,#0x1                                 
ram:8000083e    6946            mov         r1,sp                                   
ram:80000840    114b            ldr         r3,[PTR_DAT_80000888]                   ;= 800079d8
ram:80000842    1203            lsl         r2,r2,#0xc                              
ram:80000844    8218            add         r2,r0,r2                                
ram:80000846    8a42            cmp         r2,r1                                   
ram:80000848    1a60            str         r2,[r3,#0x0]=>DAT_800079d8              
ram:8000084a    01d8            bhi         LAB_80000850                            
ram:8000084c    1100            mov         r1,r2                                   
ram:8000084e    7047            bx          lr                                      
                            LAB_80000850:                 ;XREF[1,0]:   8000084a
ram:80000850    1960            str         r1,[r3,#0x0]=>DAT_800079d8              
ram:80000852    7047            bx          lr                                      
                            ;************************************************************************************************
                            ;*                                           FUNCTION                                           *
                            ;************************************************************************************************
                            ;undefined FUN_80000854()
                                                          ;XREF[2,0]:   80000772,800007b0
ram:80000854    70b5            push        { r4, r5, r6, lr }                      
ram:80000856    0c4c            ldr         r4,[PTR_DAT_80000888]                   ;= 800079d8
ram:80000858    6d46            mov         r5,sp                                   
ram:8000085a    0126            mov         r6,#0x1                                 
ram:8000085c    3603            lsl         r6,r6,#0xc                              
ram:8000085e    2368            ldr         r3,[r4,#0x0]=>DAT_800079d8              
ram:80000860    ad1b            sub         r5,r5,r6                                
ram:80000862    9a18            add         r2,r3,r2                                
ram:80000864    aa42            cmp         r2,r5                                   
ram:80000866    0ed8            bhi         LAB_80000886                            
ram:80000868    ad1a            sub         r5,r5,r2                                
ram:8000086a    9019            add         r0,r2,r6                                
ram:8000086c    ee0f            lsr         r6,r5,#0x1f                             
ram:8000086e    7519            add         r5,r6,r5                                
ram:80000870    6d10            asr         r5,r5,#0x1                              
ram:80000872    aa18            add         r2,r5,r2                                
ram:80000874    9042            cmp         r0,r2                                   
ram:80000876    00d9            bls         LAB_8000087a                            
ram:80000878    1000            mov         r0,r2                                   
                            LAB_8000087a:                 ;XREF[1,0]:   80000876
ram:8000087a    c01d            add         r0,r0,#0x7                              
ram:8000087c    0b60            str         r3,[r1,#0x0]                            
ram:8000087e    c208            lsr         r2,r0,#0x3                              
ram:80000880    d200            lsl         r2,r2,#0x3                              
ram:80000882    d01a            sub         r0,r2,r3                                
ram:80000884    2260            str         r2,[r4,#0x0]=>DAT_800079d8              
                            LAB_80000886:                 ;XREF[1,0]:   80000866
ram:80000886    70bd            pop         { r4, r5, r6, pc }                      
                            PTR_DAT_80000888:             ;XREF[2,0]:   80000840,80000856
ram:80000888    d8790080        addr        DAT_800079d8                            
ram:8000088c    04              ??          04h                                     
ram:8000088d    00              ??          00h                                     
ram:8000088e    c0              ??          C0h                                     
ram:8000088f    46              ??          46h    F                                
ram:80000890    c0              ??          C0h                                     
ram:80000891    46              ??          46h    F                                
ram:80000892    20              ??          20h                                     
ram:80000893    00              ??          00h                                     
ram:80000894    ff              ??          FFh                                     
ram:80000895    f7              ??          F7h                                     
ram:80000896    92              ??          92h                                     
ram:80000897    ec              ??          ECh                                     
                            ;************************************************************************************************
                            ;*                                           FUNCTION                                           *
                            ;************************************************************************************************
                            ;undefined FUN_80000898()
                                                          ;XREF[1,0]:   80000834
ram:80000898    10b5            push        { r4, lr }                              
ram:8000089a    0028            cmp         r0,#0x0                                 
ram:8000089c    01d0            beq         LAB_800008a2                            
ram:8000089e    02f07aef        blx         FUN_80003794                            ;undefined FUN_80003794()
                            LAB_800008a2:                 ;XREF[1,0]:   8000089c
ram:800008a2    10bd            pop         { r4, pc }                              
                            ;************************************************************************************************
                            ;*                                           FUNCTION                                           *
                            ;************************************************************************************************
                            ;undefined FUN_800008a4()
                                                          ;XREF[1,0]:   80000830
ram:800008a4    10b5            push        { r4, lr }                              
ram:800008a6    0128            cmp         r0,#0x1                                 
ram:800008a8    05d0            beq         LAB_800008b6                            
ram:800008aa    0021            mov         r1,#0x0                                 
                            LAB_800008ac:                 ;XREF[1,0]:   800008b8
ram:800008ac    03a0            adr         r0=>s_SIGRTMEM:_...,[0x800008bc]        ;= "SIGRTMEM: Out of heap memory"
ram:800008ae    00f021f8        bl          FUN_800008f4                            ;undefined FUN_800008f4()
ram:800008b2    0120            mov         r0,#0x1                                 
ram:800008b4    10bd            pop         { r4, pc }                              
                            LAB_800008b6:                 ;XREF[1,0]:   800008a8
ram:800008b6    09a1            adr         r1=>s_:_Heap_mem...,[0x800008dc]        ;= ": Heap memory corrupted"
ram:800008b8    f8e7            b           LAB_800008ac                            
ram:800008ba    00              ??          00h                                     
ram:800008bb    00              ??          00h                                     
                            s_SIGRTMEM:_Out_of_heap_mem...;XREF[1,0]:   800008ac
ram:800008bc    534947525...    ds          "SIGRTMEM: Out of heap memory"          
                            s_:_Heap_memory_corrupted_8...;XREF[1,0]:   800008b6
ram:800008dc    3a2048656...    ds          ": Heap memory corrupted"               
                            ;************************************************************************************************
                            ;*                                           FUNCTION                                           *
                            ;************************************************************************************************
                            ;undefined FUN_800008f4()
                                                          ;XREF[1,0]:   800008ae
ram:800008f4    70b5            push        { r4, r5, r6, lr }                      
ram:800008f6    0c00            mov         r4,r1                                   
ram:800008f8    0500            mov         r5,r0                                   
ram:800008fa    0a20            mov         r0,#0xa                                 
ram:800008fc    00e0            b           LAB_80000900                            
                            LAB_800008fe:                 ;XREF[1,0]:   8000090c
ram:800008fe    6d1c            add         r5,r5,#0x1                              
                            LAB_80000900:                 ;XREF[1,0]:   800008fc
ram:80000900    02f04aef        blx         FUN_80003798                            ;undefined FUN_80003798()
ram:80000904    002d            cmp         r5,#0x0                                 
ram:80000906    06d0            beq         LAB_80000916                            
ram:80000908    2878            ldrb        r0,[r5,#0x0]                            
ram:8000090a    0028            cmp         r0,#0x0                                 
ram:8000090c    f7d1            bne         LAB_800008fe                            
ram:8000090e    02e0            b           LAB_80000916                            
                            LAB_80000910:                 ;XREF[1,0]:   8000091e
ram:80000910    641c            add         r4,r4,#0x1                              
ram:80000912    02f042ef        blx         FUN_80003798                            ;undefined FUN_80003798()
                            LAB_80000916:                 ;XREF[2,0]:   80000906,8000090e
ram:80000916    002c            cmp         r4,#0x0                                 
ram:80000918    02d0            beq         LAB_80000920                            
ram:8000091a    2078            ldrb        r0,[r4,#0x0]                            
ram:8000091c    0028            cmp         r0,#0x0                                 
ram:8000091e    f7d1            bne         LAB_80000910                            
                            LAB_80000920:                 ;XREF[1,0]:   80000918
ram:80000920    0a20            mov         r0,#0xa                                 
ram:80000922    02f03aef        blx         FUN_80003798                            ;undefined FUN_80003798()
ram:80000926    70bd            pop         { r4, r5, r6, pc }                      
                            ;************************************************************************************************
                            ;*                                           FUNCTION                                           *
                            ;************************************************************************************************
                            ;undefined FUN_80000928()
                                                          ;XREF[5,0]:   80005024,80005abc,80005b7c,80005b84
                                                          ;             80007194
ram:80000928    0020b0e3        movs        r2,#0x0                                 
ram:8000092c    203171e0        rsbs        r3,r1,r0, lsr #0x2                      
ram:80000930    3fffff3a        bcc         LAB_80000634                            
ram:80000934    a03271e0        rsbs        r3,r1,r0, lsr #0x5                      
ram:80000938    34ffff3a        bcc         LAB_80000610                            
ram:8000093c    203471e0        rsbs        r3,r1,r0, lsr #0x8                      
ram:80000940    29ffff3a        bcc         LAB_800005ec                            
ram:80000944    203671e0        rsbs        r3,r1,r0, lsr #0xc                      
ram:80000948    1affff3a        bcc         LAB_800005b8                            
ram:8000094c    203871e0        rsbs        r3,r1,r0, lsr #0x10                     
ram:80000950    0cffff3a        bcc         LAB_80000588                            
ram:80000954    01ffffea        b           LAB_80000560                            
ram:80000958    a8              ??          A8h                                     
ram:80000959    fd              ??          FDh                                     
ram:8000095a    ff              ??          FFh                                     
ram:8000095b    ea              ??          EAh                                     
ram:8000095c    18              ??          18h                                     
ram:8000095d    f0              ??          F0h                                     
ram:8000095e    9f              ??          9Fh                                     
ram:8000095f    e5              ??          E5h                                     
ram:80000960    18              ??          18h                                     
ram:80000961    f0              ??          F0h                                     
ram:80000962    9f              ??          9Fh                                     
ram:80000963    e5              ??          E5h                                     
ram:80000964    18              ??          18h                                     
ram:80000965    f0              ??          F0h                                     
ram:80000966    9f              ??          9Fh                                     
ram:80000967    e5              ??          E5h                                     
ram:80000968    18              ??          18h                                     
ram:80000969    f0              ??          F0h                                     
ram:8000096a    9f              ??          9Fh                                     
ram:8000096b    e5              ??          E5h                                     
ram:8000096c    00              ??          00h                                     
ram:8000096d    00              ??          00h                                     
ram:8000096e    a0              ??          A0h                                     
ram:8000096f    e1              ??          E1h                                     
ram:80000970    18              ??          18h                                     
ram:80000971    f0              ??          F0h                                     
ram:80000972    9f              ??          9Fh                                     
ram:80000973    e5              ??          E5h                                     
ram:80000974    18              ??          18h                                     
ram:80000975    f0              ??          F0h                                     
ram:80000976    9f              ??          9Fh                                     
ram:80000977    e5              ??          E5h                                     
ram:80000978    00000080        addr        DAT_80000000                            ;= DBh
ram:8000097c    98090080        addr        DAT_80000998                            ;= FEh
ram:80000980    9c090080        addr        DAT_8000099c                            ;= 28h    (
ram:80000984    a0090080        addr        DAT_800009a0                            ;= FEh
ram:80000988    a4090080        addr        DAT_800009a4                            ;= FEh
ram:8000098c    00              ??          00h                                     
ram:8000098d    00              ??          00h                                     
ram:8000098e    00              ??          00h                                     
ram:8000098f    00              ??          00h                                     
ram:80000990    ac090080        addr        LAB_800009ac                            
ram:80000994    b0090080        addr        DAT_800009b0                            ;= FEh
                            DAT_80000998:                 ;XREF[1,0]:   8000097c
ram:80000998    fe              ??          FEh                                     
ram:80000999    ff              ??          FFh                                     
ram:8000099a    ff              ??          FFh                                     
ram:8000099b    ea              ??          EAh                                     
                            DAT_8000099c:                 ;XREF[1,0]:   80000980
ram:8000099c    28              ??          28h    (                                
ram:8000099d    09              ??          09h                                     
ram:8000099e    00              ??          00h                                     
ram:8000099f    ea              ??          EAh                                     
                            DAT_800009a0:                 ;XREF[1,0]:   80000984
ram:800009a0    fe              ??          FEh                                     
ram:800009a1    ff              ??          FFh                                     
ram:800009a2    ff              ??          FFh                                     
ram:800009a3    ea              ??          EAh                                     
                            DAT_800009a4:                 ;XREF[1,0]:   80000988
ram:800009a4    fe              ??          FEh                                     
ram:800009a5    ff              ??          FFh                                     
ram:800009a6    ff              ??          FFh                                     
ram:800009a7    ea              ??          EAh                                     
ram:800009a8    00              ??          00h                                     
ram:800009a9    00              ??          00h                                     
ram:800009aa    a0              ??          A0h                                     
ram:800009ab    e1              ??          E1h                                     
                            LAB_800009ac:                 ;XREF[1,0]:   80000990
ram:800009ac    000000ea        b           LAB_800009b4                            
                            DAT_800009b0:                 ;XREF[1,0]:   80000994
ram:800009b0    fe              ??          FEh                                     
ram:800009b1    ff              ??          FFh                                     
ram:800009b2    ff              ??          FFh                                     
ram:800009b3    ea              ??          EAh                                     
                            LAB_800009b4:                 ;XREF[1,0]:   800009ac
ram:800009b4    38d09fe5        ldr         sp,[DAT_800009f4]                       ;= 81F83000h
ram:800009b8    48d04de2        sub         sp,sp,#0x48                             
                                                          ; FWD[13,0]:  81f82fb8,81f82fbc,81f82fc0,81f82fc4
                                                          ;             81f82fc8,81f82fcc,81f82fd0,81f82fd4
                                                          ;             81f82fd8,81f82fdc,81f82fe0,81f82fe4
                                                          ;             81f82fe8
ram:800009bc    ff1f8de8        stmia       sp,{ r0 r1 r2 r3 r4 r5 r6 r7 r8 r9 r1...
ram:800009c0    3c808de2        add         r8,sp,#0x3c                             
                                                          ; FWD[3,0]:   81f82fb8,81f82fec,81f82ff0
ram:800009c4    006048e9        stmdb       r8,{sp lr}^=>DAT_81f82ff0               
ram:800009c8    00e088e5        str         lr,[r8,#0x0]=>DAT_81f82ff4              
ram:800009cc    00604fe1        mrs         r6,spsr                                 
ram:800009d0    046088e5        str         r6,[r8,#0x4]=>DAT_81f82ff8              
ram:800009d4    080088e5        str         r0,[r8,#0x8]=>DAT_81f82ffc              
ram:800009d8    0d00a0e1        mov         r0=>DAT_81f82fb8,sp                     
ram:800009dc    b40300eb        bl          FUN_800018b4                            ;undefined FUN_800018b4()
                                                          ; FWD[15,0]:  81f82fb8,81f82fbc,81f82fc0,81f82fc4
                                                          ;             81f82fc8,81f82fcc,81f82fd0,81f82fd4
                                                          ;             81f82fd8,81f82fdc,81f82fe0,81f82fe4
                                                          ;             81f82fe8,81f82fec,81f82ff0
ram:800009e0    ff7fdde8        ldmia       sp,{r0 r1 r2 r3 r4 r5 r6 r7 r8 r9 r10...
ram:800009e4    0000a0e1        mov         r0,r0                                   
ram:800009e8    3ce09de5        ldr         lr,[sp,#0x3c]=>DAT_81f82ff4             
ram:800009ec    48d08de2        add         sp,sp,#0x48                             
ram:800009f0    04f05ee2        subs        pc,lr,#0x4                              
                            DAT_800009f4:                 ;XREF[1,0]:   800009b4
ram:800009f4    0030f881        undefined4  81F83000h                               
                            ;************************************************************************************************
                            ;*                                           FUNCTION                                           *
                            ;************************************************************************************************
                            ;undefined FUN_800009f8()
          ;local_24      undefined4         -24                      ;XREF[1,0]:   80000a24
          ;local_28      undefined4         -28                      ;XREF[1,0]:   80000a20
          ;local_38      undefined4         -38                      ;XREF[2,0]:   80000a0c,80000a54
                                                          ;XREF[1,0]:   80002f84
ram:800009f8    c0432de9        stmdb       sp!,{r6 r7 r8 r9 lr}                    
ram:800009fc    30002de9        stmdb       sp!,{r4 r5}                             
ram:80000a00    1cd04de2        sub         sp,sp,#0x1c                             
ram:80000a04    0070a0e1        mov         r7,r0                                   
ram:80000a08    0000e0e3        mvn         r0,#0x0                                 
ram:80000a0c    00008de5        str         r0,[sp,#0x0]=>local_38                  
ram:80000a10    f8409fe5        ldr         r4,[DAT_80000b10]                       ;= 80442000h
ram:80000a14    0160a0e3        mov         r6,#0x1                                 
ram:80000a18    4080a0e3        mov         r8,#0x40                                
ram:80000a1c    08208de2        add         r2,sp,#0x8                              
ram:80000a20    10608de5        str         r6,[sp,#local_28+0x38]                  
ram:80000a24    14808de5        str         r8,[sp,#local_24+0x38]                  
ram:80000a28    500082e8        stmia       r2,{ r4 r6 }=>DAT_80442000              
ram:80000a2c    06c0a0e3        mov         r12,#0x6                                
ram:80000a30    dc909fe5        ldr         r9,[DAT_80000b14]                       ;= 00FFFF01h
ram:80000a34    0530a0e3        mov         r3,#0x5                                 
ram:80000a38    b0c0c1e1        strh        r12,[r1,#0x0]                           
ram:80000a3c    043081e5        str         r3,[r1,#0x4]                            
ram:80000a40    0150a0e1        mov         r5,r1                                   
ram:80000a44    0700a0e1        mov         r0,r7                                   
ram:80000a48    089081e5        str         r9,[r1,#0x8]                            
ram:80000a4c    621700eb        bl          FUN_800067dc                            ;undefined FUN_800067dc()
ram:80000a50    000050e3        cmp         r0,#0x0                                 
ram:80000a54    00008de5        str         r0,[sp,#0x0]=>local_38                  
ram:80000a58    1cd08d12        addne       sp,sp,#0x1c                             
ram:80000a5c    f001bd18        ldmiane     sp!,{r4 r5 r6 r7 r8}                    
ram:80000a60    0082bd18        ldmiane     sp!,{r9 pc}                             
ram:80000a64    0100d4e5        ldrb        r0,[r4,#0x1]                            
ram:80000a68    0010d4e5        ldrb        r1,[r4,#0x0]                            
ram:80000a6c    010490e1        orrs        r0,r0,r1, lsl #0x8                      
ram:80000a70    2200000a        beq         LAB_80000b00                            
ram:80000a74    1d00d4e5        ldrb        r0,[r4,#0x1d]                           
ram:80000a78    1c10d4e5        ldrb        r1,[r4,#0x1c]                           
ram:80000a7c    010490e1        orrs        r0,r0,r1, lsl #0x8                      
ram:80000a80    1e00001a        bne         LAB_80000b00                            
ram:80000a84    08208de2        add         r2,sp,#0x8                              
ram:80000a88    10608de5        str         r6,[sp,#0x10]                           
ram:80000a8c    14808de5        str         r8,[sp,#0x14]                           
ram:80000a90    0510a0e1        mov         r1,r5                                   
ram:80000a94    500082e8        stmia       r2,{ r4 r6 }                            
ram:80000a98    0650a0e3        mov         r5,#0x6                                 
ram:80000a9c    74c09fe5        ldr         r12,[DAT_80000b18]                      ;= 80FFFF01h
ram:80000aa0    0530a0e3        mov         r3,#0x5                                 
ram:80000aa4    b050c1e1        strh        r5,[r1,#0x0]                            
ram:80000aa8    043081e5        str         r3,[r1,#0x4]                            
ram:80000aac    0700a0e1        mov         r0,r7                                   
ram:80000ab0    08c081e5        str         r12,[r1,#0x8]                           
ram:80000ab4    481700eb        bl          FUN_800067dc                            ;undefined FUN_800067dc()
ram:80000ab8    000050e3        cmp         r0,#0x0                                 
ram:80000abc    00008de5        str         r0,[sp,#0x0]                            
ram:80000ac0    1cd08d12        addne       sp,sp,#0x1c                             
ram:80000ac4    f001bd18        ldmiane     sp!,{r4 r5 r6 r7 r8}                    
ram:80000ac8    0082bd18        ldmiane     sp!,{r9 pc}                             
ram:80000acc    0100d4e5        ldrb        r0,[r4,#0x1]                            
ram:80000ad0    0010d4e5        ldrb        r1,[r4,#0x0]                            
ram:80000ad4    010490e1        orrs        r0,r0,r1, lsl #0x8                      
ram:80000ad8    0800000a        beq         LAB_80000b00                            
ram:80000adc    1d00d4e5        ldrb        r0,[r4,#0x1d]                           
ram:80000ae0    1c10d4e5        ldrb        r1,[r4,#0x1c]                           
ram:80000ae4    010490e1        orrs        r0,r0,r1, lsl #0x8                      
ram:80000ae8    2c008f02        adreq       r0,0x80000b1c                           
ram:80000aec    5a19000b        bleq        FUN_8000705c                            ;undefined FUN_8000705c()
ram:80000af0    1cd08de2        add         sp,sp,#0x1c                             
ram:80000af4    f001bde8        ldmia       sp!,{r4 r5 r6 r7 r8}                    
ram:80000af8    0000a0e3        mov         r0,#0x0                                 
ram:80000afc    0082bde8        ldmia       sp!,{r9 pc}                             
                            LAB_80000b00:                 ;XREF[3,0]:   80000a70,80000a80,80000ad8
ram:80000b00    1cd08de2        add         sp,sp,#0x1c                             
ram:80000b04    f001bde8        ldmia       sp!,{r4 r5 r6 r7 r8}                    
ram:80000b08    0100a0e3        mov         r0,#0x1                                 
ram:80000b0c    0082bde8        ldmia       sp!,{r9 pc}                             
                            DAT_80000b10:                 ;XREF[1,0]:   80000a10
ram:80000b10    00204480        undefined4  80442000h                               
                            DAT_80000b14:                 ;XREF[1,0]:   80000a30
ram:80000b14    01ffff00        undefined4  00FFFF01h                               
                            DAT_80000b18:                 ;XREF[1,0]:   80000a9c
ram:80000b18    01ffff80        undefined4  80FFFF01h                               
ram:80000b1c    737769746...    ds          "switch into high speed mode !!!\r\n"   
                            ;************************************************************************************************
                            ;*                                           FUNCTION                                           *
                            ;************************************************************************************************
                            ;undefined FUN_80000b40()
          ;local_24      undefined4         -24                      ;XREF[2,0]:   80000bd0,80001010
          ;local_2c      undefined4         -2c                      ;XREF[2,0]:   80000ca8,80000f44
          ;local_30      undefined4         -30                      ;XREF[2,0]:   80000cd0,80000f4c
          ;local_34      undefined4         -34                      ;XREF[2,0]:   80000cf8,80000f58
          ;local_38      undefined4         -38                      ;XREF[2,0]:   80000d20,80000f60
          ;local_3c      undefined4         -3c                      ;XREF[2,0]:   80000d40,80000f6c
          ;local_40      undefined4         -40                      ;XREF[2,0]:   80000d6c,80000f74
          ;local_44      undefined4         -44                      ;XREF[2,0]:   80000d98,80000f80
          ;local_48      undefined4         -48                      ;XREF[2,0]:   80000db8,80000f88
          ;local_80      undefined4         -80                      ;XREF[1,0]:   80000c30
          ;local_2ac     undefined4        -2ac                      ;XREF[2,0]:   80000dc4,80000f90
          ;local_2b0     undefined4        -2b0                      ;XREF[3,0]:   80000c0c,80000c18,80000e20
ram:80000b40    004f2de9        stmdb       sp!,{r8 r9 r10 r11 lr}                  
ram:80000b44    f0002de9        stmdb       sp!,{r4 r5 r6 r7}                       
ram:80000b48    a3df4de2        sub         sp,sp,#0x28c                            
ram:80000b4c    0120a0e3        mov         r2,#0x1                                 
ram:80000b50    e71f8fe2        adr         r1=>s_UTX-1013.bin_80000ef4,0x80000ef4  ;= "UTX-1013.bin"
ram:80000b54    08008de2        add         r0,sp,#0x8                              
ram:80000b58    aa0d00eb        bl          FUN_80004208                            ;undefined FUN_80004208()
ram:80000b5c    000050e3        cmp         r0,#0x0                                 
ram:80000b60    1c00000a        beq         LAB_80000bd8                            
ram:80000b64    08008de2        add         r0,sp,#0x8                              
ram:80000b68    6d0d00eb        bl          FUN_80004124                            ;undefined FUN_80004124()
ram:80000b6c    0120a0e3        mov         r2,#0x1                                 
ram:80000b70    e31f8fe2        adr         r1=>s_FSI-1013.bin_80000f04,0x80000f04  ;= "FSI-1013.bin"
ram:80000b74    08008de2        add         r0,sp,#0x8                              
ram:80000b78    a20d00eb        bl          FUN_80004208                            ;undefined FUN_80004208()
ram:80000b7c    000050e3        cmp         r0,#0x0                                 
ram:80000b80    1800000a        beq         LAB_80000be8                            
ram:80000b84    08008de2        add         r0,sp,#0x8                              
ram:80000b88    650d00eb        bl          FUN_80004124                            ;undefined FUN_80004124()
ram:80000b8c    0120a0e3        mov         r2,#0x1                                 
ram:80000b90    df1f8fe2        adr         r1=>s_DAN-1013.bin_80000f14,0x80000f14  ;= "DAN-1013.bin"
ram:80000b94    08008de2        add         r0,sp,#0x8                              
ram:80000b98    9a0d00eb        bl          FUN_80004208                            ;undefined FUN_80004208()
ram:80000b9c    000050e3        cmp         r0,#0x0                                 
ram:80000ba0    0a01000a        beq         LAB_80000fd0                            
ram:80000ba4    08008de2        add         r0,sp,#0x8                              
ram:80000ba8    5d0d00eb        bl          FUN_80004124                            ;undefined FUN_80004124()
ram:80000bac    0120a0e3        mov         r2,#0x1                                 
ram:80000bb0    db1f8fe2        adr         r1=>s_YPK-1013.bin_80000f24,0x80000f24  ;= "YPK-1013.bin"
ram:80000bb4    08008de2        add         r0,sp,#0x8                              
ram:80000bb8    920d00eb        bl          FUN_80004208                            ;undefined FUN_80004208()
ram:80000bbc    000050e3        cmp         r0,#0x0                                 
ram:80000bc0    0601000a        beq         LAB_80000fe0                            
ram:80000bc4    08008de2        add         r0,sp,#0x8                              
ram:80000bc8    550d00eb        bl          FUN_80004124                            ;undefined FUN_80004124()
ram:80000bcc    a3df8de2        add         sp,sp,#0x28c                            
ram:80000bd0    f001bde8        ldmia       sp!,{r4 r5 r6 r7 r8}=>local_24          
ram:80000bd4    008ebde8        ldmia       sp!,{r9 r10 r11 pc}                     
                            LAB_80000bd8:                 ;XREF[1,0]:   80000b60
ram:80000bd8    0140a0e3        mov         r4,#0x1                                 
ram:80000bdc    231e8de2        add         r1,sp,#0x230                            
ram:80000be0    c30f8fe2        adr         r0=>s_UTX-1013.bin_80000ef4,0x80000ef4  ;= "UTX-1013.bin"
ram:80000be4    020000ea        b           LAB_80000bf4                            
                            LAB_80000be8:                 ;XREF[1,0]:   80000b80
ram:80000be8    0240a0e3        mov         r4,#0x2                                 
ram:80000bec    231e8de2        add         r1,sp,#0x230                            
ram:80000bf0    c30f8fe2        adr         r0=>s_FSI-1013.bin_80000f04,0x80000f04  ;= "FSI-1013.bin"
                            LAB_80000bf4:                 ;XREF[3,0]:   80000be4,80000fdc,80000fec
                                                          ; FWD[2,0]:   80000f14,800047bc
ram:80000bf4    f00e00eb        bl          FUN_800047bc                            ;= "DAN-1013.bin"
                                                                                    ;undefined FUN_800047bc()
ram:80000bf8    34639fe5        ldr         r6,[DAT_80000f34]                       ;= 0000FFFFh
ram:80000bfc    34239fe5        ldr         r2,[DAT_80000f38]                       ;= 0000018Dh
ram:80000c00    4030a0e3        mov         r3,#0x40                                
ram:80000c04    d010a0e3        mov         r1,#0xd0                                
ram:80000c08    ca00a0e3        mov         r0,#0xca                                
ram:80000c0c    00608de5        str         r6,[sp,#0x0]=>local_2b0                 
ram:80000c10    870300eb        bl          FUN_80001a34                            ;undefined FUN_80001a34(undefined par...
ram:80000c14    0000a0e3        mov         r0,#0x0                                 
ram:80000c18    00008de5        str         r0,[sp,#0x0]=>local_2b0                 
ram:80000c1c    18239fe5        ldr         r2,[DAT_80000f3c]                       ;= 00000189h
ram:80000c20    3c30a0e3        mov         r3,#0x3c                                
ram:80000c24    d210a0e3        mov         r1,#0xd2                                
ram:80000c28    cc00a0e3        mov         r0,#0xcc                                
ram:80000c2c    800300eb        bl          FUN_80001a34                            ;undefined FUN_80001a34(undefined par...
ram:80000c30    30729de5        ldr         r7,[sp,#local_80+0x2b0]                 
ram:80000c34    04139fe5        ldr         r1,[DAT_80000f40]                       ;= 80007A40h
ram:80000c38    0030a0e3        mov         r3,#0x0                                 
ram:80000c3c    0720a0e1        mov         r2,r7                                   
ram:80000c40    08008de2        add         r0,sp,#0x8                              
ram:80000c44    430e00eb        bl          FUN_80004558                            ;undefined FUN_80004558()
ram:80000c48    08008de2        add         r0,sp,#0x8                              
ram:80000c4c    340d00eb        bl          FUN_80004124                            ;undefined FUN_80004124()
ram:80000c50    e8529fe5        ldr         r5,[DAT_80000f40]                       ;= 80007A40h
ram:80000c54    ff18a0e3        mov         r1,#0xff0000                            
ram:80000c58    070085e0        add         r0,r5,r7                                
ram:80000c5c    23c050e5        ldrb        r12,[r0,#-0x23]                         
ram:80000c60    248050e5        ldrb        r8,[r0,#-0x24]                          
ram:80000c64    229050e5        ldrb        r9,[r0,#-0x22]                          
ram:80000c68    0cc801e0        and         r12,r1,r12, lsl #0x10                   
ram:80000c6c    08cc8ce1        orr         r12,r12,r8, lsl #0x18                   
ram:80000c70    ff3ca0e3        mov         r3,#0xff00                              
ram:80000c74    099403e0        and         r9,r3,r9, lsl #0x8                      
ram:80000c78    09b08ce1        orr         r11,r12,r9                              
ram:80000c7c    1f8050e5        ldrb        r8,[r0,#-0x1f]                          
ram:80000c80    20c050e5        ldrb        r12,[r0,#-0x20]                         
ram:80000c84    212050e5        ldrb        r2,[r0,#-0x21]                          
ram:80000c88    088801e0        and         r8,r1,r8, lsl #0x10                     
ram:80000c8c    0cac88e1        orr         r10,r8,r12, lsl #0x18                   
ram:80000c90    1e9050e5        ldrb        r9,[r0,#-0x1e]                          
ram:80000c94    1b8050e5        ldrb        r8,[r0,#-0x1b]                          
ram:80000c98    1cc050e5        ldrb        r12,[r0,#-0x1c]                         
ram:80000c9c    0b2082e1        orr         r2,r2,r11                               
ram:80000ca0    099403e0        and         r9,r3,r9, lsl #0x8                      
ram:80000ca4    09b08ae1        orr         r11,r10,r9                              
ram:80000ca8    84228de5        str         r2,[sp,#local_2c+0x2b0]                 
ram:80000cac    088801e0        and         r8,r1,r8, lsl #0x10                     
ram:80000cb0    1d2050e5        ldrb        r2,[r0,#-0x1d]                          
ram:80000cb4    0cac88e1        orr         r10,r8,r12, lsl #0x18                   
ram:80000cb8    1a9050e5        ldrb        r9,[r0,#-0x1a]                          
ram:80000cbc    178050e5        ldrb        r8,[r0,#-0x17]                          
ram:80000cc0    18c050e5        ldrb        r12,[r0,#-0x18]                         
ram:80000cc4    0b2082e1        orr         r2,r2,r11                               
ram:80000cc8    099403e0        and         r9,r3,r9, lsl #0x8                      
ram:80000ccc    09b08ae1        orr         r11,r10,r9                              
ram:80000cd0    80228de5        str         r2,[sp,#local_30+0x2b0]                 
ram:80000cd4    088801e0        and         r8,r1,r8, lsl #0x10                     
ram:80000cd8    192050e5        ldrb        r2,[r0,#-0x19]                          
ram:80000cdc    0cac88e1        orr         r10,r8,r12, lsl #0x18                   
ram:80000ce0    169050e5        ldrb        r9,[r0,#-0x16]                          
ram:80000ce4    138050e5        ldrb        r8,[r0,#-0x13]                          
ram:80000ce8    14c050e5        ldrb        r12,[r0,#-0x14]                         
ram:80000cec    0b2082e1        orr         r2,r2,r11                               
ram:80000cf0    099403e0        and         r9,r3,r9, lsl #0x8                      
ram:80000cf4    09b08ae1        orr         r11,r10,r9                              
ram:80000cf8    7c228de5        str         r2,[sp,#local_34+0x2b0]                 
ram:80000cfc    088801e0        and         r8,r1,r8, lsl #0x10                     
ram:80000d00    152050e5        ldrb        r2,[r0,#-0x15]                          
ram:80000d04    0cac88e1        orr         r10,r8,r12, lsl #0x18                   
ram:80000d08    129050e5        ldrb        r9,[r0,#-0x12]                          
ram:80000d0c    0f8050e5        ldrb        r8,[r0,#-0xf]                           
ram:80000d10    10c050e5        ldrb        r12,[r0,#-0x10]                         
ram:80000d14    0b2082e1        orr         r2,r2,r11                               
ram:80000d18    099403e0        and         r9,r3,r9, lsl #0x8                      
ram:80000d1c    09b08ae1        orr         r11,r10,r9                              
ram:80000d20    78228de5        str         r2,[sp,#local_38+0x2b0]                 
ram:80000d24    088801e0        and         r8,r1,r8, lsl #0x10                     
ram:80000d28    0cac88e1        orr         r10,r8,r12, lsl #0x18                   
ram:80000d2c    112050e5        ldrb        r2,[r0,#-0x11]                          
ram:80000d30    0b8050e5        ldrb        r8,[r0,#-0xb]                           
ram:80000d34    0e9050e5        ldrb        r9,[r0,#-0xe]                           
ram:80000d38    0cc050e5        ldrb        r12,[r0,#-0xc]                          
ram:80000d3c    0b2082e1        orr         r2,r2,r11                               
ram:80000d40    74228de5        str         r2,[sp,#local_3c+0x2b0]                 
ram:80000d44    099403e0        and         r9,r3,r9, lsl #0x8                      
ram:80000d48    0d2050e5        ldrb        r2,[r0,#-0xd]                           
ram:80000d4c    09a08ae1        orr         r10,r10,r9                              
ram:80000d50    088801e0        and         r8,r1,r8, lsl #0x10                     
ram:80000d54    0cbc88e1        orr         r11,r8,r12, lsl #0x18                   
ram:80000d58    0a9050e5        ldrb        r9,[r0,#-0xa]                           
ram:80000d5c    0a2082e1        orr         r2,r2,r10                               
ram:80000d60    078050e5        ldrb        r8,[r0,#-0x7]                           
ram:80000d64    08c050e5        ldrb        r12,[r0,#-0x8]                          
ram:80000d68    099403e0        and         r9,r3,r9, lsl #0x8                      
ram:80000d6c    70228de5        str         r2,[sp,#local_40+0x2b0]                 
ram:80000d70    09a08be1        orr         r10,r11,r9                              
ram:80000d74    092050e5        ldrb        r2,[r0,#-0x9]                           
ram:80000d78    069050e5        ldrb        r9,[r0,#-0x6]                           
ram:80000d7c    088801e0        and         r8,r1,r8, lsl #0x10                     
ram:80000d80    0cbc88e1        orr         r11,r8,r12, lsl #0x18                   
ram:80000d84    038050e5        ldrb        r8,[r0,#-0x3]                           
ram:80000d88    04c050e5        ldrb        r12,[r0,#-0x4]                          
ram:80000d8c    088801e0        and         r8,r1,r8, lsl #0x10                     
ram:80000d90    02108ae1        orr         r1,r10,r2                               
ram:80000d94    0c2c88e1        orr         r2,r8,r12, lsl #0x18                    
ram:80000d98    6c128de5        str         r1,[sp,#local_44+0x2b0]                 
ram:80000d9c    051050e5        ldrb        r1,[r0,#-0x5]                           
ram:80000da0    098403e0        and         r8,r3,r9, lsl #0x8                      
ram:80000da4    02c050e5        ldrb        r12,[r0,#-0x2]                          
ram:80000da8    0b8088e1        orr         r8,r8,r11                               
ram:80000dac    010050e5        ldrb        r0,[r0,#-0x1]                           
ram:80000db0    081081e1        orr         r1,r1,r8                                
ram:80000db4    0c3403e0        and         r3,r3,r12, lsl #0x8                     
ram:80000db8    68128de5        str         r1,[sp,#local_48+0x2b0]                 
ram:80000dbc    031082e1        orr         r1,r2,r3                                
ram:80000dc0    010080e1        orr         r0,r0,r1                                
ram:80000dc4    04008de5        str         r0,[sp,#local_2ac+0x2b0]                
ram:80000dc8    0c20a0e3        mov         r2,#0xc                                 
ram:80000dcc    051985e2        add         r1,r5,#0x14000                          
ram:80000dd0    920f8de2        add         r0,sp,#0x248                            
ram:80000dd4    5dfdffeb        bl          FUN_80000350                            ;undefined FUN_80000350()
ram:80000dd8    ff20a0e3        mov         r2,#0xff                                
ram:80000ddc    0c10a0e3        mov         r1,#0xc                                 
ram:80000de0    050985e2        add         r0,r5,#0x14000                          
ram:80000de4    a7fdffeb        bl          FUN_80000488                            ;undefined FUN_80000488()
ram:80000de8    0080a0e3        mov         r8,#0x0                                 
                            LAB_80000dec:                 ;XREF[1,0]:   80000e30
ram:80000dec    080868e0        rsb         r0,r8,r8, lsl #0x10                     
ram:80000df0    001085e0        add         r1,r5,r0                                
ram:80000df4    0620a0e1        mov         r2,r6                                   
ram:80000df8    130a80e2        add         r0,r0,#0x13000                          
ram:80000dfc    d10700eb        bl          FUN_80002d48                            ;undefined FUN_80002d48()
ram:80000e00    080188e0        add         r0,r8,r8, lsl #0x2                      
ram:80000e04    880180e0        add         r0,r0,r8, lsl #0x3                      
ram:80000e08    cf0080e2        add         r0,r0,#0xcf                             
ram:80000e0c    0008a0e1        mov         r0,r0, lsl #0x10                        
ram:80000e10    2008a0e1        mov         r0,r0, lsr #0x10                        
ram:80000e14    3630a0e3        mov         r3,#0x36                                
ram:80000e18    0a20a0e3        mov         r2,#0xa                                 
ram:80000e1c    d510a0e3        mov         r1,#0xd5                                
ram:80000e20    00608de5        str         r6,[sp,#0x0]=>local_2b0                 
ram:80000e24    020300eb        bl          FUN_80001a34                            ;undefined FUN_80001a34(undefined par...
ram:80000e28    018088e2        add         r8,r8,#0x1                              
ram:80000e2c    1e0058e3        cmp         r8,#0x1e                                
ram:80000e30    edffff3a        bcc         LAB_80000dec                            
ram:80000e34    04019fe5        ldr         r0,[DAT_80000f40]                       ;= 80007A40h
ram:80000e38    0c20a0e3        mov         r2,#0xc                                 
ram:80000e3c    921f8de2        add         r1,sp,#0x248                            
ram:80000e40    42fdffeb        bl          FUN_80000350                            ;undefined FUN_80000350()
ram:80000e44    f4109fe5        ldr         r1,[DAT_80000f40]                       ;= 80007A40h
ram:80000e48    0c30a0e3        mov         r3,#0xc                                 
ram:80000e4c    272aa0e3        mov         r2,#0x27000                             
ram:80000e50    0000a0e3        mov         r0,#0x0                                 
ram:80000e54    bf0700eb        bl          FUN_80002d58                            ;undefined FUN_80002d58()
ram:80000e58    e0109fe5        ldr         r1,[DAT_80000f40]                       ;= 80007A40h
ram:80000e5c    242047e2        sub         r2,r7,#0x24                             
ram:80000e60    130aa0e3        mov         r0,#0x13000                             
ram:80000e64    8b0700eb        bl          FUN_80002c98                            ;undefined FUN_80002c98()
ram:80000e68    0020a0e3        mov         r2,#0x0                                 
ram:80000e6c    48e057e2        subs        lr,r7,#0x48                             
ram:80000e70    02b0a0e1        mov         r11,r2                                  
ram:80000e74    02a0a0e1        mov         r10,r2                                  
ram:80000e78    0290a0e1        mov         r9,r2                                   
ram:80000e7c    0280a0e1        mov         r8,r2                                   
ram:80000e80    0270a0e1        mov         r7,r2                                   
ram:80000e84    0260a0e1        mov         r6,r2                                   
ram:80000e88    02c0a0e1        mov         r12,r2                                  
ram:80000e8c    0230a0e1        mov         r3,r2                                   
ram:80000e90    0200a0e1        mov         r0,r2                                   
ram:80000e94    1500000a        beq         LAB_80000ef0                            
                            LAB_80000e98:                 ;XREF[1,0]:   80000eec
ram:80000e98    a0109fe5        ldr         r1,[DAT_80000f40]                       ;= 80007A40h
                                                          ; FWD[2,0]:   80007a40,80007a41
ram:80000e9c    0010d1e7        ldrb        r1,[r1,r0]=>DAT_80007a40                
ram:80000ea0    800011e3        tst         r1,#0x80                                
ram:80000ea4    00b08b10        addne       r11,r11,r0                              
ram:80000ea8    400011e3        tst         r1,#0x40                                
ram:80000eac    00a08a10        addne       r10,r10,r0                              
ram:80000eb0    200011e3        tst         r1,#0x20                                
ram:80000eb4    00908910        addne       r9,r9,r0                                
ram:80000eb8    100011e3        tst         r1,#0x10                                
ram:80000ebc    00808810        addne       r8,r8,r0                                
ram:80000ec0    080011e3        tst         r1,#0x8                                 
ram:80000ec4    00708710        addne       r7,r7,r0                                
ram:80000ec8    040011e3        tst         r1,#0x4                                 
ram:80000ecc    00608610        addne       r6,r6,r0                                
ram:80000ed0    020011e3        tst         r1,#0x2                                 
ram:80000ed4    00c08c10        addne       r12,r12,r0                              
ram:80000ed8    010011e3        tst         r1,#0x1                                 
ram:80000edc    00308310        addne       r3,r3,r0                                
ram:80000ee0    010080e2        add         r0,r0,#0x1                              
ram:80000ee4    0e0050e1        cmp         r0,lr                                   
ram:80000ee8    012082e0        add         r2,r2,r1                                
ram:80000eec    e9ffff3a        bcc         LAB_80000e98                            
                            LAB_80000ef0:                 ;XREF[1,0]:   80000e94
ram:80000ef0    130000ea        b           LAB_80000f44                            
                            s_UTX-1013.bin_80000ef4:      ;XREF[3,0]:   80000b50,80000be0,80000fa0
ram:80000ef4    5554582d3...    ds          "UTX-1013.bin"                          
                            s_FSI-1013.bin_80000f04:      ;XREF[3,0]:   80000b70,80000bf0,80000fac
ram:80000f04    4653492d3...    ds          "FSI-1013.bin"                          
                            s_DAN-1013.bin_80000f14:      ;XREF[3,0]:   80000b90,80000bf4,80000fb8
ram:80000f14    44414e2d3...    ds          "DAN-1013.bin"                          
                            s_YPK-1013.bin_80000f24:      ;XREF[3,0]:   80000bb0,80000fc4,80000fe8
ram:80000f24    59504b2d3...    ds          "YPK-1013.bin"                          
ram:80000f31    00              ??          00h                                     
ram:80000f32    00              ??          00h                                     
ram:80000f33    00              ??          00h                                     
                            DAT_80000f34:                 ;XREF[1,0]:   80000bf8
ram:80000f34    ffff0000        undefined4  0000FFFFh                               
                            DAT_80000f38:                 ;XREF[1,0]:   80000bfc
ram:80000f38    8d010000        undefined4  0000018Dh                               
                            DAT_80000f3c:                 ;XREF[1,0]:   80000c1c
ram:80000f3c    89010000        undefined4  00000189h                               
                            DAT_80000f40:                 ;XREF[7,0]:   80000c34,80000c50,80000e34,80000e44
                                                          ;             80000e58,80000e98,80000ff8
ram:80000f40    407a0080        undefined4  80007A40h                               
                            LAB_80000f44:                 ;XREF[1,0]:   80000ef0
ram:80000f44    84029de5        ldr         r0,[sp,#local_2c+0x2b0]                 
ram:80000f48    000052e1        cmp         r2,r0                                   
ram:80000f4c    80029d05        ldreq       r0,[sp,#local_30+0x2b0]                 
ram:80000f50    00005b01        cmpeq       r11,r0                                  
ram:80000f54    2700001a        bne         LAB_80000ff8                            
ram:80000f58    7c029de5        ldr         r0,[sp,#local_34+0x2b0]                 
ram:80000f5c    00005ae1        cmp         r10,r0                                  
ram:80000f60    78029d05        ldreq       r0,[sp,#local_38+0x2b0]                 
ram:80000f64    00005901        cmpeq       r9,r0                                   
ram:80000f68    2200001a        bne         LAB_80000ff8                            
ram:80000f6c    74029de5        ldr         r0,[sp,#local_3c+0x2b0]                 
ram:80000f70    000058e1        cmp         r8,r0                                   
ram:80000f74    70029d05        ldreq       r0,[sp,#local_40+0x2b0]                 
ram:80000f78    00005701        cmpeq       r7,r0                                   
ram:80000f7c    1d00001a        bne         LAB_80000ff8                            
ram:80000f80    6c029de5        ldr         r0,[sp,#local_44+0x2b0]                 
ram:80000f84    000056e1        cmp         r6,r0                                   
ram:80000f88    68029d05        ldreq       r0,[sp,#local_48+0x2b0]                 
ram:80000f8c    00005c01        cmpeq       r12,r0                                  
ram:80000f90    04009d05        ldreq       r0,[sp,#local_2ac+0x2b0]                
ram:80000f94    00005301        cmpeq       r3,r0                                   
ram:80000f98    1600001a        bne         LAB_80000ff8                            
ram:80000f9c    010054e3        cmp         r4,#0x1                                 
ram:80000fa0    b4004f02        adreq       r0=>s_UTX-1013.bin_80000ef4,0x80000ef4  ;= "UTX-1013.bin"
ram:80000fa4    1100000a        beq         LAB_80000ff0                            
ram:80000fa8    020054e3        cmp         r4,#0x2                                 
ram:80000fac    b0004f02        adreq       r0=>s_FSI-1013.bin_80000f04,0x80000f04  ;= "FSI-1013.bin"
ram:80000fb0    0e00000a        beq         LAB_80000ff0                            
ram:80000fb4    030054e3        cmp         r4,#0x3                                 
ram:80000fb8    ac004f02        adreq       r0=>s_DAN-1013.bin_80000f14,0x80000f14  ;= "DAN-1013.bin"
ram:80000fbc    0b00000a        beq         LAB_80000ff0                            
ram:80000fc0    040054e3        cmp         r4,#0x4                                 
ram:80000fc4    a8004f02        adreq       r0=>s_YPK-1013.bin_80000f24,0x80000f24  ;= "YPK-1013.bin"
ram:80000fc8    0800000a        beq         LAB_80000ff0                            
ram:80000fcc    0d0000ea        b           LAB_80001008                            
                            LAB_80000fd0:                 ;XREF[1,0]:   80000ba0
ram:80000fd0    0340a0e3        mov         r4,#0x3                                 
ram:80000fd4    231e8de2        add         r1,sp,#0x230                            
ram:80000fd8    cc004fe2        adr         r0,0x80000f14                           
ram:80000fdc    04ffffea        b           LAB_80000bf4                            
                            LAB_80000fe0:                 ;XREF[1,0]:   80000bc0
ram:80000fe0    0440a0e3        mov         r4,#0x4                                 
ram:80000fe4    231e8de2        add         r1,sp,#0x230                            
ram:80000fe8    cc004fe2        adr         r0=>s_YPK-1013.bin_80000f24,0x80000f24  ;= "YPK-1013.bin"
ram:80000fec    00ffffea        b           LAB_80000bf4                            
                            LAB_80000ff0:                 ;XREF[4,0]:   80000fa4,80000fb0,80000fbc,80000fc8
ram:80000ff0    860e00eb        bl          FUN_80004a10                            ;undefined FUN_80004a10()
ram:80000ff4    030000ea        b           LAB_80001008                            
                            LAB_80000ff8:                 ;XREF[4,0]:   80000f54,80000f68,80000f7c,80000f98
ram:80000ff8    c0101fe5        ldr         r1=>DAT_80007a40,[DAT_80000f40]         ;= 80007A40h
ram:80000ffc    fa2fa0e3        mov         r2,#0x3e8                               
ram:80001000    270aa0e3        mov         r0,#0x27000                             
ram:80001004    4f0700eb        bl          FUN_80002d48                            ;undefined FUN_80002d48()
                            LAB_80001008:                 ;XREF[2,0]:   80000fcc,80000ff4
ram:80001008    df0800eb        bl          FUN_8000338c                            ;undefined FUN_8000338c()
ram:8000100c    a3df8de2        add         sp,sp,#0x28c                            
ram:80001010    f001bde8        ldmia       sp!,{r4 r5 r6 r7 r8}=>local_24          
ram:80001014    008ebde8        ldmia       sp!,{r9 r10 r11 pc}                     
                            ;************************************************************************************************
                            ;*                                           FUNCTION                                           *
                            ;************************************************************************************************
                            ;undefined FUN_80001018()
ram:80001018    70402de9        stmdb       sp!,{r4 r5 r6 lr}                       
ram:8000101c    084090e5        ldr         r4,[r0,#0x8]                            
ram:80001020    0050a0e1        mov         r5,r0                                   
ram:80001024    b4009fe5        ldr         r0,[DAT_800010e0]                       ;= 01C20064h
ram:80001028    001090e5        ldr         r1,[r0,#0x0]=>DAT_01c20064              
ram:8000102c    011a81e3        orr         r1,r1,#0x1000                           
ram:80001030    001080e5        str         r1,[r0,#0x0]=>DAT_01c20064              
ram:80001034    260e80e2        add         r0,r0,#0x260                            
ram:80001038    001090e5        ldr         r1,[r0,#0x0]=>DAT_01c202c4              
ram:8000103c    011a81e3        orr         r1,r1,#0x1000                           
ram:80001040    001080e5        str         r1,[r0,#0x0]=>DAT_01c202c4              
ram:80001044    0100a0e3        mov         r0,#0x1                                 
ram:80001048    250000eb        bl          FUN_800010e4                            ;undefined FUN_800010e4()
ram:8000104c    001894e5        ldr         r1,[r4,#0x800]                          
ram:80001050    020b84e2        add         r0,r4,#0x800                            
ram:80001054    011081e3        orr         r1,r1,#0x1                              
ram:80001058    001884e5        str         r1,[r4,#0x800]                          
ram:8000105c    b032d5e1        ldrh        r3,[r5,#0x20]                           
ram:80001060    1c2095e5        ldr         r2,[r5,#0x1c]                           
ram:80001064    012042e2        sub         r2,r2,#0x1                              
ram:80001068    013043e2        sub         r3,r3,#0x1                              
ram:8000106c    032882e1        orr         r2,r2,r3, lsl #0x10                     
ram:80001070    082884e5        str         r2,[r4,#0x808]                          
ram:80001074    b032d5e1        ldrh        r3,[r5,#0x20]                           
ram:80001078    1c2095e5        ldr         r2,[r5,#0x1c]                           
ram:8000107c    012042e2        sub         r2,r2,#0x1                              
ram:80001080    013043e2        sub         r3,r3,#0x1                              
ram:80001084    032882e1        orr         r2,r2,r3, lsl #0x10                     
ram:80001088    102884e5        str         r2,[r4,#0x810]                          
ram:8000108c    1c2095e5        ldr         r2,[r5,#0x1c]                           
ram:80001090    0222a0e1        mov         r2,r2, lsl #0x4                         
ram:80001094    402884e5        str         r2,[r4,#0x840]                          
ram:80001098    382095e5        ldr         r2,[r5,#0x38]                           
ram:8000109c    8221a0e1        mov         r2,r2, lsl #0x3                         
ram:800010a0    502884e5        str         r2,[r4,#0x850]                          
ram:800010a4    382095e5        ldr         r2,[r5,#0x38]                           
ram:800010a8    a22ea0e1        mov         r2,r2, lsr #0x1d                        
ram:800010ac    602884e5        str         r2,[r4,#0x860]                          
ram:800010b0    052ca0e3        mov         r2,#0x500                               
ram:800010b4    a02884e5        str         r2,[r4,#0x8a0]                          
ram:800010b8    001090e5        ldr         r1,[r0,#0x0]                            
ram:800010bc    011c81e3        orr         r1,r1,#0x100                            
ram:800010c0    001080e5        str         r1,[r0,#0x0]                            
ram:800010c4    701894e5        ldr         r1,[r4,#0x870]                          
ram:800010c8    011081e3        orr         r1,r1,#0x1                              
ram:800010cc    701884e5        str         r1,[r4,#0x870]                          
ram:800010d0    001090e5        ldr         r1,[r0,#0x0]                            
ram:800010d4    021081e3        orr         r1,r1,#0x2                              
ram:800010d8    001080e5        str         r1,[r0,#0x0]                            
ram:800010dc    7080bde8        ldmia       sp!,{r4 r5 r6 pc}                       
                            DAT_800010e0:                 ;XREF[1,0]:   80001024
ram:800010e0    6400c201        undefined4  01C20064h                               
                            ;************************************************************************************************
                            ;*                                           FUNCTION                                           *
                            ;************************************************************************************************
                            ;undefined FUN_800010e4()
          ;local_8       undefined4          -8                      ;XREF[3,0]:   800010f0,800010f8,80001104
                                                          ;XREF[3,0]:   80001048,8000344c,80003484
ram:800010e4    08402de9        stmdb       sp!,{r3 lr}                             
ram:800010e8    0010a0e1        mov         r1,r0                                   
ram:800010ec    0000a0e3        mov         r0,#0x0                                 
ram:800010f0    00008de5        str         r0,[sp,#0x0]=>local_8                   
ram:800010f4    8f0200eb        bl          FUN_80001b38                            ;undefined FUN_80001b38()
ram:800010f8    00008de5        str         r0,[sp,#0x0]=>local_8                   
ram:800010fc    0000a0e1        mov         r0,r0                                   
                            LAB_80001100:                 ;XREF[1,0]:   80001110
ram:80001100    8c0200eb        bl          FUN_80001b38                            ;undefined FUN_80001b38()
ram:80001104    00209de5        ldr         r2,[sp,#0x0]=>local_8                   
ram:80001108    020040e0        sub         r0,r0,r2                                
ram:8000110c    010050e1        cmp         r0,r1                                   
ram:80001110    faffff3a        bcc         LAB_80001100                            
ram:80001114    0880bde8        ldmia       sp!,{r3 pc}                             
                            ;************************************************************************************************
                            ;*                                           FUNCTION                                           *
                            ;************************************************************************************************
                            ;undefined FUN_80001118()
          ;local_18      undefined4         -18                      ;XREF[4,0]:   80001148,80001174,8000117c,80001180
          ;local_1c      undefined4         -1c                      ;XREF[4,0]:   80001154,8000115c,80001164,80001168
          ;local_20      undefined4         -20                      ;XREF[3,0]:   80001140,80001184,80001190
                                                          ;XREF[10,0]:  80001c54,80001c68,80001c94,8000258c
                                                          ;             80002598,800025b4,8000274c,80005cc8
                                                          ;             80005f3c,80006c1c
ram:80001118    f0402de9        stmdb       sp!,{r4 r5 r6 r7 lr}                    
ram:8000111c    0e002de9        stmdb       sp!,{r1 r2 r3}                          
ram:80001120    0040a0e1        mov         r4,r0                                   
ram:80001124    0400a0e1        mov         r0,r4                                   
ram:80001128    271900eb        bl          FUN_800075cc                            ;undefined FUN_800075cc()
ram:8000112c    0060a0e1        mov         r6,r0                                   
ram:80001130    60109fe5        ldr         r1,[DAT_80001198]                       ;= 40A00000h
ram:80001134    301900eb        bl          FUN_800075fc                            ;undefined FUN_800075fc()
ram:80001138    0050a0e1        mov         r5,r0                                   
ram:8000113c    0d1900eb        bl          FUN_80007578                            ;undefined FUN_80007578()
ram:80001140    00008de5        str         r0,[sp,#0x0]=>local_20                  
ram:80001144    0000a0e3        mov         r0,#0x0                                 
ram:80001148    08008de5        str         r0,[sp,#local_18+0x20]                  
ram:8000114c    0b0000ea        b           LAB_80001180                            
                            LAB_80001150:                 ;XREF[1,0]:   8000118c
ram:80001150    0000a0e3        mov         r0,#0x0                                 
ram:80001154    04008de5        str         r0,[sp,#local_1c+0x20]                  
ram:80001158    020000ea        b           LAB_80001168                            
                            LAB_8000115c:                 ;XREF[1,0]:   80001170
ram:8000115c    04009de5        ldr         r0,[sp,#local_1c+0x20]                  
ram:80001160    010080e2        add         r0,r0,#0x1                              
ram:80001164    04008de5        str         r0,[sp,#local_1c+0x20]                  
                            LAB_80001168:                 ;XREF[1,0]:   80001158
ram:80001168    04009de5        ldr         r0,[sp,#local_1c+0x20]                  
ram:8000116c    000050e3        cmp         r0,#0x0                                 
ram:80001170    f9ffff0a        beq         LAB_8000115c                            
ram:80001174    08009de5        ldr         r0,[sp,#local_18+0x20]                  
ram:80001178    010080e2        add         r0,r0,#0x1                              
ram:8000117c    08008de5        str         r0,[sp,#local_18+0x20]                  
                            LAB_80001180:                 ;XREF[1,0]:   8000114c
ram:80001180    08009de5        ldr         r0,[sp,#local_18+0x20]                  
ram:80001184    00109de5        ldr         r1,[sp,#0x0]=>local_20                  
ram:80001188    010050e1        cmp         r0,r1                                   
ram:8000118c    efffff3a        bcc         LAB_80001150                            
ram:80001190    3e00bde8        ldmia       sp!,{r1 r2 r3 r4 r5}=>local_20          
ram:80001194    c080bde8        ldmia       sp!,{r6 r7 pc}                          
                            DAT_80001198:                 ;XREF[1,0]:   80001130
ram:80001198    0000a040        undefined4  40A00000h                               
ram:8000119c    1e              ??          1Eh                                     
ram:8000119d    ff              ??          FFh                                     
ram:8000119e    2f              ??          2Fh    /                                
ram:8000119f    e1              ??          E1h                                     
ram:800011a0    80              ??          80h                                     
ram:800011a1    47              ??          47h    G                                
ram:800011a2    2d              ??          2Dh    -                                
ram:800011a3    e9              ??          E9h                                     
ram:800011a4    70              ??          70h    p                                
ram:800011a5    00              ??          00h                                     
ram:800011a6    2d              ??          2Dh    -                                
ram:800011a7    e9              ??          E9h                                     
ram:800011a8    04              ??          04h                                     
ram:800011a9    31              ??          31h    1                                
ram:800011aa    9f              ??          9Fh                                     
ram:800011ab    e5              ??          E5h                                     
ram:800011ac    f8              ??          F8h                                     
ram:800011ad    70              ??          70h    p                                
ram:800011ae    9f              ??          9Fh                                     
ram:800011af    e5              ??          E5h                                     
ram:800011b0    f8              ??          F8h                                     
ram:800011b1    50              ??          50h    P                                
ram:800011b2    9f              ??          9Fh                                     
ram:800011b3    e5              ??          E5h                                     
ram:800011b4    00              ??          00h                                     
ram:800011b5    80              ??          80h                                     
ram:800011b6    a0              ??          A0h                                     
ram:800011b7    e3              ??          E3h                                     
ram:800011b8    95              ??          95h                                     
ram:800011b9    99              ??          99h                                     
ram:800011ba    47              ??          47h    G                                
ram:800011bb    e2              ??          E2h                                     
ram:800011bc    08              ??          08h                                     
ram:800011bd    e0              ??          E0h                                     
ram:800011be    83              ??          83h                                     
ram:800011bf    e2              ??          E2h                                     
ram:800011c0    04              ??          04h                                     
ram:800011c1    30              ??          30h    0                                
ram:800011c2    85              ??          85h                                     
ram:800011c3    e5              ??          E5h                                     
ram:800011c4    80              ??          80h                                     
ram:800011c5    03              ??          03h                                     
ram:800011c6    8e              ??          8Eh                                     
ram:800011c7    e8              ??          E8h                                     
ram:800011c8    1c              ??          1Ch                                     
ram:800011c9    00              ??          00h                                     
ram:800011ca    83              ??          83h                                     
ram:800011cb    e5              ??          E5h                                     
ram:800011cc    20              ??          20h                                     
ram:800011cd    10              ??          10h                                     
ram:800011ce    83              ??          83h                                     
ram:800011cf    e5              ??          E5h                                     
ram:800011d0    10              ??          10h                                     
ram:800011d1    70              ??          70h    p                                
ram:800011d2    a0              ??          A0h                                     
ram:800011d3    e3              ??          E3h                                     
ram:800011d4    2c              ??          2Ch    ,                                
ram:800011d5    70              ??          70h    p                                
ram:800011d6    83              ??          83h                                     
ram:800011d7    e5              ??          E5h                                     
ram:800011d8    14              ??          14h                                     
ram:800011d9    00              ??          00h                                     
ram:800011da    a0              ??          A0h                                     
ram:800011db    e3              ??          E3h                                     
ram:800011dc    4c              ??          4Ch    L                                
ram:800011dd    00              ??          00h                                     
ram:800011de    83              ??          83h                                     
ram:800011df    e5              ??          E5h                                     
ram:800011e0    16              ??          16h                                     
ram:800011e1    10              ??          10h                                     
ram:800011e2    a0              ??          A0h                                     
ram:800011e3    e3              ??          E3h                                     
ram:800011e4    50              ??          50h    P                                
ram:800011e5    10              ??          10h                                     
ram:800011e6    83              ??          83h                                     
ram:800011e7    e5              ??          E5h                                     
ram:800011e8    08              ??          08h                                     
ram:800011e9    40              ??          40h    @                                
ram:800011ea    a0              ??          A0h                                     
ram:800011eb    e1              ??          E1h                                     
ram:800011ec    0a              ??          0Ah                                     
ram:800011ed    00              ??          00h                                     
ram:800011ee    a0              ??          A0h                                     
ram:800011ef    e3              ??          E3h                                     
ram:800011f0    58              ??          58h    X                                
ram:800011f1    00              ??          00h                                     
ram:800011f2    83              ??          83h                                     
ram:800011f3    e5              ??          E5h                                     
ram:800011f4    01              ??          01h                                     
ram:800011f5    60              ??          60h    `                                
ram:800011f6    a0              ??          A0h                                     
ram:800011f7    e3              ??          E3h                                     
ram:800011f8    5c              ??          5Ch    \                                
ram:800011f9    40              ??          40h    @                                
ram:800011fa    83              ??          83h                                     
ram:800011fb    e5              ??          E5h                                     
ram:800011fc    08              ??          08h                                     
ram:800011fd    a0              ??          A0h                                     
ram:800011fe    a0              ??          A0h                                     
ram:800011ff    e1              ??          E1h                                     
ram:80001200    17              ??          17h                                     
ram:80001201    70              ??          70h    p                                
ram:80001202    a0              ??          A0h                                     
ram:80001203    e3              ??          E3h                                     
ram:80001204    18              ??          18h                                     
ram:80001205    60              ??          60h    `                                
ram:80001206    83              ??          83h                                     
ram:80001207    e5              ??          E5h                                     
ram:80001208    d2              ??          D2h                                     
ram:80001209    80              ??          80h                                     
ram:8000120a    a0              ??          A0h                                     
ram:8000120b    e3              ??          E3h                                     
ram:8000120c    54              ??          54h    T                                
ram:8000120d    70              ??          70h    p                                
ram:8000120e    83              ??          83h                                     
ram:8000120f    e5              ??          E5h                                     
ram:80001210    2e              ??          2Eh    .                                
ram:80001211    90              ??          90h                                     
ram:80001212    a0              ??          A0h                                     
ram:80001213    e3              ??          E3h                                     
ram:80001214    44              ??          44h    D                                
ram:80001215    80              ??          80h                                     
ram:80001216    83              ??          83h                                     
ram:80001217    e5              ??          E5h                                     
ram:80001218    48              ??          48h    H                                
ram:80001219    90              ??          90h                                     
ram:8000121a    83              ??          83h                                     
ram:8000121b    e5              ??          E5h                                     
ram:8000121c    14              ??          14h                                     
ram:8000121d    a0              ??          A0h                                     
ram:8000121e    83              ??          83h                                     
ram:8000121f    e5              ??          E5h                                     
ram:80001220    60              ??          60h    `                                
ram:80001221    40              ??          40h    @                                
ram:80001222    83              ??          83h                                     
ram:80001223    e5              ??          E5h                                     
ram:80001224    64              ??          64h    d                                
ram:80001225    60              ??          60h    `                                
ram:80001226    83              ??          83h                                     
ram:80001227    e5              ??          E5h                                     
ram:80001228    02              ??          02h                                     
ram:80001229    10              ??          10h                                     
ram:8000122a    a0              ??          A0h                                     
ram:8000122b    e3              ??          E3h                                     
ram:8000122c    68              ??          68h    h                                
ram:8000122d    40              ??          40h    @                                
ram:8000122e    83              ??          83h                                     
ram:8000122f    e5              ??          E5h                                     
ram:80001230    30              ??          30h    0                                
ram:80001231    10              ??          10h                                     
ram:80001232    83              ??          83h                                     
ram:80001233    e5              ??          E5h                                     
ram:80001234    34              ??          34h    4                                
ram:80001235    40              ??          40h    @                                
ram:80001236    83              ??          83h                                     
ram:80001237    e5              ??          E5h                                     
ram:80001238    38              ??          38h    8                                
ram:80001239    20              ??          20h                                     
ram:8000123a    83              ??          83h                                     
ram:8000123b    e5              ??          E5h                                     
ram:8000123c    02              ??          02h                                     
ram:8000123d    cb              ??          CBh                                     
ram:8000123e    a0              ??          A0h                                     
ram:8000123f    e3              ??          E3h                                     
ram:80001240    3c              ??          3Ch    <                                
ram:80001241    40              ??          40h    @                                
ram:80001242    83              ??          83h                                     
ram:80001243    e5              ??          E5h                                     
ram:80001244    60              ??          60h    `                                
ram:80001245    00              ??          00h                                     
ram:80001246    9f              ??          9Fh                                     
ram:80001247    e5              ??          E5h                                     
ram:80001248    00              ??          00h                                     
ram:80001249    10              ??          10h                                     
ram:8000124a    a0              ??          A0h                                     
ram:8000124b    e3              ??          E3h                                     
ram:8000124c    0c              ??          0Ch                                     
ram:8000124d    10              ??          10h                                     
ram:8000124e    80              ??          80h                                     
ram:8000124f    e7              ??          E7h                                     
ram:80001250    04              ??          04h                                     
ram:80001251    c0              ??          C0h                                     
ram:80001252    8c              ??          8Ch                                     
ram:80001253    e2              ??          E2h                                     
ram:80001254    01              ??          01h                                     
ram:80001255    0a              ??          0Ah                                     
ram:80001256    5c              ??          5Ch    \                                
ram:80001257    e3              ??          E3h                                     
ram:80001258    f9              ??          F9h                                     
ram:80001259    ff              ??          FFh                                     
ram:8000125a    ff              ??          FFh                                     
ram:8000125b    ba              ??          BAh                                     
ram:8000125c    10              ??          10h                                     
ram:8000125d    00              ??          00h                                     
ram:8000125e    93              ??          93h                                     
ram:8000125f    e5              ??          E5h                                     
ram:80001260    00              ??          00h                                     
ram:80001261    40              ??          40h    @                                
ram:80001262    80              ??          80h                                     
ram:80001263    e5              ??          E5h                                     
ram:80001264    04              ??          04h                                     
ram:80001265    40              ??          40h    @                                
ram:80001266    80              ??          80h                                     
ram:80001267    e5              ??          E5h                                     
ram:80001268    44              ??          44h    D                                
ram:80001269    10              ??          10h                                     
ram:8000126a    90              ??          90h                                     
ram:8000126b    e5              ??          E5h                                     
ram:8000126c    0f              ??          0Fh                                     
ram:8000126d    22              ??          22h    "                                
ram:8000126e    c1              ??          C1h                                     
ram:8000126f    e3              ??          E3h                                     
ram:80001270    44              ??          44h    D                                
ram:80001271    20              ??          20h                                     
ram:80001272    80              ??          80h                                     
ram:80001273    e5              ??          E5h                                     
ram:80001274    00              ??          00h                                     
ram:80001275    20              ??          20h                                     
ram:80001276    e0              ??          E0h                                     
ram:80001277    e3              ??          E3h                                     
ram:80001278    8c              ??          8Ch                                     
ram:80001279    20              ??          20h                                     
ram:8000127a    80              ??          80h                                     
ram:8000127b    e5              ??          E5h                                     
ram:8000127c    f4              ??          F4h                                     
ram:8000127d    20              ??          20h                                     
ram:8000127e    80              ??          80h                                     
ram:8000127f    e5              ??          E5h                                     
ram:80001280    04              ??          04h                                     
ram:80001281    00              ??          00h                                     
ram:80001282    95              ??          95h                                     
ram:80001283    e5              ??          E5h                                     
ram:80001284    63              ??          63h    c                                
ram:80001285    ff              ??          FFh                                     
ram:80001286    ff              ??          FFh                                     
ram:80001287    eb              ??          EBh                                     
ram:80001288    04              ??          04h                                     
ram:80001289    00              ??          00h                                     
ram:8000128a    95              ??          95h                                     
ram:8000128b    e5              ??          E5h                                     
ram:8000128c    61              ??          61h    a                                
ram:8000128d    08              ??          08h                                     
ram:8000128e    00              ??          00h                                     
ram:8000128f    eb              ??          EBh                                     
ram:80001290    04              ??          04h                                     
ram:80001291    00              ??          00h                                     
ram:80001292    95              ??          95h                                     
ram:80001293    e5              ??          E5h                                     
ram:80001294    10              ??          10h                                     
ram:80001295    00              ??          00h                                     
ram:80001296    90              ??          90h                                     
ram:80001297    e5              ??          E5h                                     
ram:80001298    00              ??          00h                                     
ram:80001299    10              ??          10h                                     
ram:8000129a    90              ??          90h                                     
ram:8000129b    e5              ??          E5h                                     
ram:8000129c    02              ??          02h                                     
ram:8000129d    11              ??          11h                                     
ram:8000129e    81              ??          81h                                     
ram:8000129f    e3              ??          E3h                                     
ram:800012a0    00              ??          00h                                     
ram:800012a1    10              ??          10h                                     
ram:800012a2    80              ??          80h                                     
ram:800012a3    e5              ??          E5h                                     
ram:800012a4    f0              ??          F0h                                     
ram:800012a5    01              ??          01h                                     
ram:800012a6    bd              ??          BDh                                     
ram:800012a7    e8              ??          E8h                                     
ram:800012a8    00              ??          00h                                     
ram:800012a9    86              ??          86h                                     
ram:800012aa    bd              ??          BDh                                     
ram:800012ab    e8              ??          E8h                                     
ram:800012ac    00              ??          00h                                     
ram:800012ad    00              ??          00h                                     
ram:800012ae    e6              ??          E6h                                     
ram:800012af    01              ??          01h                                     
ram:800012b0    bc              ??          BCh                                     ;?  ->  800079bc
ram:800012b1    79              ??          79h    y                                
ram:800012b2    00              ??          00h                                     
ram:800012b3    80              ??          80h                                     
ram:800012b4    68              ??          68h    h                                
ram:800012b5    a2              ??          A2h                                     
ram:800012b6    43              ??          43h    C                                
ram:800012b7    80              ??          80h                                     
                            ;************************************************************************************************
                            ;*                                           FUNCTION                                           *
                            ;************************************************************************************************
                            ;undefined FUN_800012b8()
          ;local_8       undefined4          -8                      ;XREF[1,0]:   80001350
                                                          ;XREF[2,0]:   8000136c,8000140c
ram:800012b8    10402de9        stmdb       sp!,{r4 lr}                             
ram:800012bc    a0409fe5        ldr         r4,[DAT_80001364]                       ;= 01C20890h
ram:800012c0    0030a0e3        mov         r3,#0x0                                 
ram:800012c4    0320a0e1        mov         r2,r3                                   
ram:800012c8    0310a0e1        mov         r1,r3                                   
ram:800012cc    0400a0e1        mov         r0=>DAT_01c20890,r4                     
ram:800012d0    cd0000eb        bl          FUN_8000160c                            ;undefined FUN_8000160c()
ram:800012d4    0030a0e3        mov         r3,#0x0                                 
ram:800012d8    0320a0e1        mov         r2,r3                                   
ram:800012dc    0110a0e3        mov         r1,#0x1                                 
ram:800012e0    0400a0e1        mov         r0=>DAT_01c20890,r4                     
ram:800012e4    c80000eb        bl          FUN_8000160c                            ;undefined FUN_8000160c()
ram:800012e8    0030a0e3        mov         r3,#0x0                                 
ram:800012ec    0320a0e1        mov         r2,r3                                   
ram:800012f0    0210a0e3        mov         r1,#0x2                                 
ram:800012f4    0400a0e1        mov         r0=>DAT_01c20890,r4                     
ram:800012f8    c30000eb        bl          FUN_8000160c                            ;undefined FUN_8000160c()
ram:800012fc    0030a0e3        mov         r3,#0x0                                 
ram:80001300    0320a0e1        mov         r2,r3                                   
ram:80001304    0310a0e3        mov         r1,#0x3                                 
ram:80001308    0400a0e1        mov         r0=>DAT_01c20890,r4                     
ram:8000130c    be0000eb        bl          FUN_8000160c                            ;undefined FUN_8000160c()
ram:80001310    0030a0e3        mov         r3,#0x0                                 
ram:80001314    0320a0e1        mov         r2,r3                                   
ram:80001318    0410a0e3        mov         r1,#0x4                                 
ram:8000131c    0400a0e1        mov         r0=>DAT_01c20890,r4                     
ram:80001320    b90000eb        bl          FUN_8000160c                            ;undefined FUN_8000160c()
ram:80001324    0030a0e3        mov         r3,#0x0                                 
ram:80001328    0320a0e1        mov         r2,r3                                   
ram:8000132c    0510a0e3        mov         r1,#0x5                                 
ram:80001330    0400a0e1        mov         r0=>DAT_01c20890,r4                     
ram:80001334    b40000eb        bl          FUN_8000160c                            ;undefined FUN_8000160c()
ram:80001338    0030a0e3        mov         r3,#0x0                                 
ram:8000133c    0320a0e1        mov         r2,r3                                   
ram:80001340    0610a0e3        mov         r1,#0x6                                 
ram:80001344    0400a0e1        mov         r0=>DAT_01c20890,r4                     
ram:80001348    af0000eb        bl          FUN_8000160c                            ;undefined FUN_8000160c()
ram:8000134c    0400a0e1        mov         r0,r4                                   
ram:80001350    1040bde8        ldmia       sp!,{r4 lr}=>local_8                    
ram:80001354    0030a0e3        mov         r3,#0x0                                 
ram:80001358    0320a0e1        mov         r2,r3                                   
ram:8000135c    0710a0e3        mov         r1,#0x7                                 
ram:80001360    a90000ea        b           FUN_8000160c                            
                            DAT_80001364:                 ;XREF[1,0]:   800012bc
ram:80001364    9008c201        undefined4  01C20890h                               
                            ;************************************************************************************************
                            ;*                                           FUNCTION                                           *
                            ;************************************************************************************************
                            ;undefined FUN_80001368()
                                                          ;XREF[9,0]:   800025c8,800025dc,800025ec,800025fc
                                                          ;             8000260c,8000261c,8000262c,8000263c
                                                          ;             80002c24
ram:80001368    10402de9        stmdb       sp!,{r4 lr}                             
ram:8000136c    d1ffffeb        bl          FUN_800012b8                            ;undefined FUN_800012b8()
ram:80001370    3c409fe5        ldr         r4,[DAT_800013b4]                       ;= 01C20890h
ram:80001374    0910a0e3        mov         r1,#0x9                                 
ram:80001378    0400a0e1        mov         r0=>DAT_01c20890,r4                     
ram:8000137c    bb0000eb        bl          FUN_80001670                            ;undefined FUN_80001670()
ram:80001380    0a10a0e3        mov         r1,#0xa                                 
ram:80001384    0400a0e1        mov         r0=>DAT_01c20890,r4                     
ram:80001388    b80000eb        bl          FUN_80001670                            ;undefined FUN_80001670()
ram:8000138c    0810a0e3        mov         r1,#0x8                                 
ram:80001390    0400a0e1        mov         r0=>DAT_01c20890,r4                     
ram:80001394    b50000eb        bl          FUN_80001670                            ;undefined FUN_80001670()
ram:80001398    0810a0e3        mov         r1,#0x8                                 
ram:8000139c    0400a0e1        mov         r0=>DAT_01c20890,r4                     
ram:800013a0    b70000eb        bl          FUN_80001684                            ;undefined FUN_80001684()
ram:800013a4    100084e2        add         r0,r4,#0x10                             
ram:800013a8    000090e5        ldr         r0,[r0,#0x0]=>DAT_01c208a0              
ram:800013ac    ff0000e2        and         r0,r0,#0xff                             
ram:800013b0    1080bde8        ldmia       sp!,{r4 pc}                             
                            DAT_800013b4:                 ;XREF[1,0]:   80001370
ram:800013b4    9008c201        undefined4  01C20890h                               
                            ;************************************************************************************************
                            ;*                                           FUNCTION                                           *
                            ;************************************************************************************************
                            ;undefined FUN_800013b8()
          ;local_8       undefined4          -8                      ;XREF[1,0]:   80001408
ram:800013b8    10402de9        stmdb       sp!,{r4 lr}                             
ram:800013bc    4c409fe5        ldr         r4,[DAT_80001410]                       ;= 01C20890h
ram:800013c0    0030a0e3        mov         r3,#0x0                                 
ram:800013c4    0120a0e3        mov         r2,#0x1                                 
ram:800013c8    0910a0e3        mov         r1,#0x9                                 
ram:800013cc    0400a0e1        mov         r0=>DAT_01c20890,r4                     
ram:800013d0    8d0000eb        bl          FUN_8000160c                            ;undefined FUN_8000160c()
ram:800013d4    0030a0e3        mov         r3,#0x0                                 
ram:800013d8    0120a0e3        mov         r2,#0x1                                 
ram:800013dc    0a10a0e3        mov         r1,#0xa                                 
ram:800013e0    0400a0e1        mov         r0=>DAT_01c20890,r4                     
ram:800013e4    880000eb        bl          FUN_8000160c                            ;undefined FUN_8000160c()
ram:800013e8    0030a0e3        mov         r3,#0x0                                 
ram:800013ec    0120a0e3        mov         r2,#0x1                                 
ram:800013f0    0810a0e3        mov         r1,#0x8                                 
ram:800013f4    0400a0e1        mov         r0=>DAT_01c20890,r4                     
ram:800013f8    830000eb        bl          FUN_8000160c                            ;undefined FUN_8000160c()
ram:800013fc    0810a0e3        mov         r1,#0x8                                 
ram:80001400    0400a0e1        mov         r0=>DAT_01c20890,r4                     
ram:80001404    9e0000eb        bl          FUN_80001684                            ;undefined FUN_80001684()
ram:80001408    1040bde8        ldmia       sp!,{r4 lr}=>local_8                    
ram:8000140c    a9ffffea        b           FUN_800012b8                            
                            DAT_80001410:                 ;XREF[1,0]:   800013bc
ram:80001410    9008c201        undefined4  01C20890h                               
                            ;************************************************************************************************
                            ;*                                           FUNCTION                                           *
                            ;************************************************************************************************
                            ;undefined FUN_80001414()
          ;local_10      undefined4         -10                      ;XREF[1,0]:   80001500
                                                          ;XREF[7,0]:   80002b98,80002bac,80002bc0,80002bd4
                                                          ;             80002be8,80002bfc,80002c10
ram:80001414    70402de9        stmdb       sp!,{r4 r5 r6 lr}                       
ram:80001418    ec509fe5        ldr         r5,[DAT_8000150c]                       ;= 01C20890h
ram:8000141c    0040a0e1        mov         r4,r0                                   
ram:80001420    0030a0e3        mov         r3,#0x0                                 
ram:80001424    0120a0e3        mov         r2,#0x1                                 
ram:80001428    0310a0e1        mov         r1,r3                                   
ram:8000142c    0500a0e1        mov         r0,r5                                   
ram:80001430    750000eb        bl          FUN_8000160c                            ;undefined FUN_8000160c()
ram:80001434    0120a0e3        mov         r2,#0x1                                 
ram:80001438    0030a0e3        mov         r3,#0x0                                 
ram:8000143c    0210a0e1        mov         r1,r2                                   
ram:80001440    0500a0e1        mov         r0,r5                                   
ram:80001444    700000eb        bl          FUN_8000160c                            ;undefined FUN_8000160c()
ram:80001448    0030a0e3        mov         r3,#0x0                                 
ram:8000144c    0120a0e3        mov         r2,#0x1                                 
ram:80001450    0210a0e3        mov         r1,#0x2                                 
ram:80001454    0500a0e1        mov         r0,r5                                   
ram:80001458    6b0000eb        bl          FUN_8000160c                            ;undefined FUN_8000160c()
ram:8000145c    0030a0e3        mov         r3,#0x0                                 
ram:80001460    0120a0e3        mov         r2,#0x1                                 
ram:80001464    0310a0e3        mov         r1,#0x3                                 
ram:80001468    0500a0e1        mov         r0,r5                                   
ram:8000146c    660000eb        bl          FUN_8000160c                            ;undefined FUN_8000160c()
ram:80001470    0030a0e3        mov         r3,#0x0                                 
ram:80001474    0120a0e3        mov         r2,#0x1                                 
ram:80001478    0410a0e3        mov         r1,#0x4                                 
ram:8000147c    0500a0e1        mov         r0,r5                                   
ram:80001480    610000eb        bl          FUN_8000160c                            ;undefined FUN_8000160c()
ram:80001484    0030a0e3        mov         r3,#0x0                                 
ram:80001488    0120a0e3        mov         r2,#0x1                                 
ram:8000148c    0510a0e3        mov         r1,#0x5                                 
ram:80001490    0500a0e1        mov         r0,r5                                   
ram:80001494    5c0000eb        bl          FUN_8000160c                            ;undefined FUN_8000160c()
ram:80001498    0030a0e3        mov         r3,#0x0                                 
ram:8000149c    0120a0e3        mov         r2,#0x1                                 
ram:800014a0    0610a0e3        mov         r1,#0x6                                 
ram:800014a4    0500a0e1        mov         r0,r5                                   
ram:800014a8    570000eb        bl          FUN_8000160c                            ;undefined FUN_8000160c()
ram:800014ac    0030a0e3        mov         r3,#0x0                                 
ram:800014b0    0120a0e3        mov         r2,#0x1                                 
ram:800014b4    0710a0e3        mov         r1,#0x7                                 
ram:800014b8    0500a0e1        mov         r0,r5                                   
ram:800014bc    520000eb        bl          FUN_8000160c                            ;undefined FUN_8000160c()
ram:800014c0    0910a0e3        mov         r1,#0x9                                 
ram:800014c4    0500a0e1        mov         r0,r5                                   
ram:800014c8    6d0000eb        bl          FUN_80001684                            ;undefined FUN_80001684()
ram:800014cc    0a10a0e3        mov         r1,#0xa                                 
ram:800014d0    0500a0e1        mov         r0,r5                                   
ram:800014d4    650000eb        bl          FUN_80001670                            ;undefined FUN_80001670()
ram:800014d8    100085e2        add         r0,r5,#0x10                             
ram:800014dc    002090e5        ldr         r2,[r0,#0x0]=>DAT_01c208a0              
ram:800014e0    ff1004e2        and         r1,r4,#0xff                             
ram:800014e4    ff20c2e3        bic         r2,r2,#0xff                             
ram:800014e8    021081e1        orr         r1,r1,r2                                
ram:800014ec    001080e5        str         r1,[r0,#0x0]=>DAT_01c208a0              
ram:800014f0    0810a0e3        mov         r1,#0x8                                 
ram:800014f4    0500a0e1        mov         r0,r5                                   
ram:800014f8    5c0000eb        bl          FUN_80001670                            ;undefined FUN_80001670()
ram:800014fc    0500a0e1        mov         r0,r5                                   
ram:80001500    7040bde8        ldmia       sp!,{r4 r5 r6 lr}=>local_10             
ram:80001504    0810a0e3        mov         r1,#0x8                                 
ram:80001508    5d0000ea        b           FUN_80001684                            
                            DAT_8000150c:                 ;XREF[1,0]:   80001418
ram:8000150c    9008c201        undefined4  01C20890h                               
                            ;************************************************************************************************
                            ;*                                           FUNCTION                                           *
                            ;************************************************************************************************
                            ;undefined FUN_80001510()
          ;local_10      undefined4         -10                      ;XREF[1,0]:   800015fc
                                                          ;XREF[22,0]:  800025a4,800025ac,800025bc,800025c4
                                                          ;             800025d8,800025e8,800025f8,80002608
                                                          ;             80002618,80002628,80002638,80002b7c
                                                          ;             80002b84,80002b90,80002ba4,80002bb8
                                                          ;             80002bcc,80002be0,80002bf4,80002c08
                                                          ;             80002c18,80002c20
ram:80001510    70402de9        stmdb       sp!,{r4 r5 r6 lr}                       
ram:80001514    ec509fe5        ldr         r5,[DAT_80001608]                       ;= 01C20890h
ram:80001518    0040a0e1        mov         r4,r0                                   
ram:8000151c    0030a0e3        mov         r3,#0x0                                 
ram:80001520    0120a0e3        mov         r2,#0x1                                 
ram:80001524    0310a0e1        mov         r1,r3                                   
ram:80001528    0500a0e1        mov         r0,r5                                   
ram:8000152c    360000eb        bl          FUN_8000160c                            ;undefined FUN_8000160c()
ram:80001530    0120a0e3        mov         r2,#0x1                                 
ram:80001534    0030a0e3        mov         r3,#0x0                                 
ram:80001538    0210a0e1        mov         r1,r2                                   
ram:8000153c    0500a0e1        mov         r0,r5                                   
ram:80001540    310000eb        bl          FUN_8000160c                            ;undefined FUN_8000160c()
ram:80001544    0030a0e3        mov         r3,#0x0                                 
ram:80001548    0120a0e3        mov         r2,#0x1                                 
ram:8000154c    0210a0e3        mov         r1,#0x2                                 
ram:80001550    0500a0e1        mov         r0,r5                                   
ram:80001554    2c0000eb        bl          FUN_8000160c                            ;undefined FUN_8000160c()
ram:80001558    0030a0e3        mov         r3,#0x0                                 
ram:8000155c    0120a0e3        mov         r2,#0x1                                 
ram:80001560    0310a0e3        mov         r1,#0x3                                 
ram:80001564    0500a0e1        mov         r0,r5                                   
ram:80001568    270000eb        bl          FUN_8000160c                            ;undefined FUN_8000160c()
ram:8000156c    0030a0e3        mov         r3,#0x0                                 
ram:80001570    0120a0e3        mov         r2,#0x1                                 
ram:80001574    0410a0e3        mov         r1,#0x4                                 
ram:80001578    0500a0e1        mov         r0,r5                                   
ram:8000157c    220000eb        bl          FUN_8000160c                            ;undefined FUN_8000160c()
ram:80001580    0030a0e3        mov         r3,#0x0                                 
ram:80001584    0120a0e3        mov         r2,#0x1                                 
ram:80001588    0510a0e3        mov         r1,#0x5                                 
ram:8000158c    0500a0e1        mov         r0,r5                                   
ram:80001590    1d0000eb        bl          FUN_8000160c                            ;undefined FUN_8000160c()
ram:80001594    0030a0e3        mov         r3,#0x0                                 
ram:80001598    0120a0e3        mov         r2,#0x1                                 
ram:8000159c    0610a0e3        mov         r1,#0x6                                 
ram:800015a0    0500a0e1        mov         r0,r5                                   
ram:800015a4    180000eb        bl          FUN_8000160c                            ;undefined FUN_8000160c()
ram:800015a8    0030a0e3        mov         r3,#0x0                                 
ram:800015ac    0120a0e3        mov         r2,#0x1                                 
ram:800015b0    0710a0e3        mov         r1,#0x7                                 
ram:800015b4    0500a0e1        mov         r0,r5                                   
ram:800015b8    130000eb        bl          FUN_8000160c                            ;undefined FUN_8000160c()
ram:800015bc    0910a0e3        mov         r1,#0x9                                 
ram:800015c0    0500a0e1        mov         r0,r5                                   
ram:800015c4    2e0000eb        bl          FUN_80001684                            ;undefined FUN_80001684()
ram:800015c8    0a10a0e3        mov         r1,#0xa                                 
ram:800015cc    0500a0e1        mov         r0,r5                                   
ram:800015d0    2b0000eb        bl          FUN_80001684                            ;undefined FUN_80001684()
ram:800015d4    100085e2        add         r0,r5,#0x10                             
ram:800015d8    002090e5        ldr         r2,[r0,#0x0]=>DAT_01c208a0              
ram:800015dc    ff1004e2        and         r1,r4,#0xff                             
ram:800015e0    ff20c2e3        bic         r2,r2,#0xff                             
ram:800015e4    021081e1        orr         r1,r1,r2                                
ram:800015e8    001080e5        str         r1,[r0,#0x0]=>DAT_01c208a0              
ram:800015ec    0810a0e3        mov         r1,#0x8                                 
ram:800015f0    0500a0e1        mov         r0,r5                                   
ram:800015f4    1d0000eb        bl          FUN_80001670                            ;undefined FUN_80001670()
ram:800015f8    0500a0e1        mov         r0,r5                                   
ram:800015fc    7040bde8        ldmia       sp!,{r4 r5 r6 lr}=>local_10             
ram:80001600    0810a0e3        mov         r1,#0x8                                 
ram:80001604    1e0000ea        b           FUN_80001684                            
                            DAT_80001608:                 ;XREF[1,0]:   80001514
ram:80001608    9008c201        undefined4  01C20890h                               
                            ;************************************************************************************************
                            ;*                                           FUNCTION                                           *
                            ;************************************************************************************************
                            ;undefined FUN_8000160c()
          ;local_8       undefined4          -8                      ;XREF[2,0]:   80001658,80001668
                                                          ;XREF[29,0]:  800012d0,800012e4,800012f8,8000130c
                                                          ;             80001320,80001334,80001348,80001360
                                                          ;             800013d0,800013e4,800013f8,80001430
                                                          ;             80001444,80001458,8000146c,80001480
                                                          ;             80001494,800014a8,800014bc,8000152c
                                                          ;             80001540,80001554,80001568,8000157c
                                                          ;             80001590,800015a4,800015b8,80001ba4
                                                          ;             80001bc8
ram:8000160c    813ea0e1        mov         r3,r1, lsl #0x1d                        
ram:80001610    30002de9        stmdb       sp!,{r4 r5}                             
ram:80001614    a111a0e1        mov         r1,r1, lsr #0x3                         
ram:80001618    015190e7        ldr         r5,[r0,r1,lsl #0x2]=>DAT_01c20890       
ram:8000161c    a33da0e1        mov         r3,r3, lsr #0x1b                        
ram:80001620    0f40a0e3        mov         r4,#0xf                                 
ram:80001624    000052e3        cmp         r2,#0x0                                 
ram:80001628    1443c5e1        bic         r4,r5,r4, lsl r3                        
ram:8000162c    01c0a0e3        mov         r12,#0x1                                
ram:80001630    014180e7        str         r4,[r0,r1,lsl #0x2]=>DAT_01c20890       
ram:80001634    01219007        ldreq       r2,[r0,r1,lsl #0x2]=>DAT_01c20890       
ram:80001638    1cc3a0e1        mov         r12,r12, lsl r3                         
ram:8000163c    0c20c201        biceq       r2,r2,r12                               
ram:80001640    0700000a        beq         LAB_80001664                            
ram:80001644    010052e3        cmp         r2,#0x1                                 
ram:80001648    01219007        ldreq       r2,[r0,r1,lsl #0x2]=>DAT_01c20890       
ram:8000164c    0c208201        orreq       r2,r2,r12                               
ram:80001650    01218007        streq       r2,[r0,r1,lsl #0x2]=>DAT_01c20890       
ram:80001654    01c19017        ldrne       r12,[r0,r1,lsl #0x2]=>DAT_01c20890      
ram:80001658    3000bd08        ldmiaeq     sp!,{r4 r5}=>local_8                    
ram:8000165c    12238c11        orrne       r2,r12,r2, lsl r3                       
ram:80001660    1eff2f01        bxeq        lr                                      
                            LAB_80001664:                 ;XREF[1,0]:   80001640
ram:80001664    012180e7        str         r2,[r0,r1,lsl #0x2]=>DAT_01c20890       
ram:80001668    3000bde8        ldmia       sp!,{r4 r5}=>local_8                    
ram:8000166c    1eff2fe1        bx          lr                                      
                            ;************************************************************************************************
                            ;*                                           FUNCTION                                           *
                            ;************************************************************************************************
                            ;undefined FUN_80001670()
                                                          ;XREF[6,0]:   8000137c,80001388,80001394,800014d4
                                                          ;             800014f8,800015f4
ram:80001670    102090e5        ldr         r2,[r0,#0x10]                           
ram:80001674    0130a0e3        mov         r3,#0x1                                 
ram:80001678    1311c2e1        bic         r1,r2,r3, lsl r1                        
ram:8000167c    101080e5        str         r1,[r0,#0x10]                           
ram:80001680    1eff2fe1        bx          lr                                      
                            ;************************************************************************************************
                            ;*                                           FUNCTION                                           *
                            ;************************************************************************************************
                            ;undefined FUN_80001684()
                                                          ;XREF[7,0]:   800013a0,80001404,800014c8,80001508
                                                          ;             800015c4,800015d0,80001604
ram:80001684    102090e5        ldr         r2,[r0,#0x10]=>DAT_01c208a0             
ram:80001688    0130a0e3        mov         r3,#0x1                                 
ram:8000168c    131182e1        orr         r1,r2,r3, lsl r1                        
ram:80001690    101080e5        str         r1,[r0,#0x10]=>DAT_01c208a0             
ram:80001694    1eff2fe1        bx          lr                                      
                            ;************************************************************************************************
                            ;*                                           FUNCTION                                           *
                            ;************************************************************************************************
                            ;undefined FUN_80001698()
          ;local_18      undefined4         -18                      ;XREF[2,0]:   8000169c,80001830
                                                          ;XREF[1,0]:   80002198
ram:80001698    e0412de9        stmdb       sp!,{r5 r6 r7 r8 lr}                    
ram:8000169c    04402de5        str         r4,[sp,#local_18+0x14]!                 
ram:800016a0    98819fe5        ldr         r8,[PTR_DAT_80001840]                   ;= 800079c8
ram:800016a4    0960a0e3        mov         r6,#0x9                                 
ram:800016a8    04c098e5        ldr         r12,[r8,#0x4]=>DAT_800079cc             
ram:800016ac    0730a0e3        mov         r3,#0x7                                 
ram:800016b0    b060c1e1        strh        r6,[r1,#0x0]                            
ram:800016b4    0240a0e1        mov         r4,r2                                   
ram:800016b8    043081e5        str         r3,[r1,#0x4]                            
ram:800016bc    0150a0e1        mov         r5,r1                                   
ram:800016c0    0070a0e1        mov         r7,r0                                   
ram:800016c4    0020a0e3        mov         r2,#0x0                                 
ram:800016c8    08c081e5        str         r12,[r1,#0x8]                           
ram:800016cc    421400eb        bl          FUN_800067dc                            ;undefined FUN_800067dc()
ram:800016d0    6c619fe5        ldr         r6,[DAT_80001844]                       ;= 80442040h
ram:800016d4    180095e5        ldr         r0,[r5,#0x18]                           
ram:800016d8    000086e5        str         r0,[r6,#0x0]=>DAT_80442040              
ram:800016dc    141095e5        ldr         r1,[r5,#0x14]                           
ram:800016e0    030110e3        tst         r0,#0xc0000000                          
ram:800016e4    041086e5        str         r1,[r6,#0x4]=>DAT_80442044              
ram:800016e8    100095e5        ldr         r0,[r5,#0x10]                           
ram:800016ec    080086e5        str         r0,[r6,#0x8]=>DAT_80442048              
ram:800016f0    0c2095e5        ldr         r2,[r5,#0xc]                            
ram:800016f4    0c2086e5        str         r2,[r6,#0xc]=>DAT_8044204c              
ram:800016f8    00209815        ldrne       r2,[r8,#0x0]=>DAT_800079c8              
ram:800016fc    03005213        cmpne       r2,#0x3                                 
ram:80001700    0900000a        beq         LAB_8000172c                            
ram:80001704    011da0e1        mov         r1,r1, lsl #0x1a                        
ram:80001708    2115a0e1        mov         r1,r1, lsr #0xa                         
ram:8000170c    200881e1        orr         r0,r1,r0, lsr #0x10                     
ram:80001710    8004a0e1        mov         r0,r0, lsl #0x9                         
ram:80001714    020c80e2        add         r0,r0,#0x200                            
ram:80001718    8010a0e1        mov         r1,r0, lsl #0x1                         
ram:8000171c    080084e5        str         r0,[r4,#0x8]                            
ram:80001720    0100a0e1        mov         r0,r1                                   
ram:80001724    041084e5        str         r1,[r4,#0x4]                            
ram:80001728    0d0000ea        b           LAB_80001764                            
                            LAB_8000172c:                 ;XREF[1,0]:   80001700
ram:8000172c    012ba0e1        mov         r2,r1, lsl #0x16                        
ram:80001730    22caa0e1        mov         r12,r2, lsr #0x14                       
ram:80001734    0037a0e1        mov         r3,r0, lsl #0xe                         
ram:80001738    0126a0e1        mov         r2,r1, lsl #0xc                         
ram:8000173c    a31ea0e1        mov         r1,r3, lsr #0x1d                        
ram:80001740    200f8ce1        orr         r0,r12,r0, lsr #0x1e                    
ram:80001744    013080e2        add         r3,r0,#0x1                              
ram:80001748    021081e2        add         r1,r1,#0x2                              
ram:8000174c    1311a0e1        mov         r1,r3, lsl r1                           
ram:80001750    220ea0e1        mov         r0,r2, lsr #0x1c                        
ram:80001754    1100a0e1        mov         r0,r1, lsl r0                           
ram:80001758    2015a0e1        mov         r1,r0, lsr #0xa                         
ram:8000175c    a004a0e1        mov         r0,r0, lsr #0x9                         
ram:80001760    030084e9        stmib       r4,{ r0 r1 }                            
                            LAB_80001764:                 ;XREF[1,0]:   80001728
ram:80001764    0c0088e5        str         r0,[r8,#0xc]=>DAT_800079d4              
ram:80001768    021ca0e3        mov         r1,#0x200                               
ram:8000176c    0c1084e5        str         r1,[r4,#0xc]                            
ram:80001770    0700a0e1        mov         r0,r7                                   
ram:80001774    04c098e5        ldr         r12,[r8,#0x4]=>DAT_800079cc             
ram:80001778    0a70a0e3        mov         r7,#0xa                                 
ram:8000177c    0730a0e3        mov         r3,#0x7                                 
ram:80001780    b070c5e1        strh        r7,[r5,#0x0]                            
ram:80001784    043085e5        str         r3,[r5,#0x4]                            
ram:80001788    0510a0e1        mov         r1,r5                                   
ram:8000178c    0020a0e3        mov         r2,#0x0                                 
ram:80001790    08c085e5        str         r12,[r5,#0x8]                           
ram:80001794    101400eb        bl          FUN_800067dc                            ;undefined FUN_800067dc()
ram:80001798    181095e5        ldr         r1,[r5,#0x18]                           
ram:8000179c    a0009fe5        ldr         r0,[DAT_80001844]                       ;= 80442040h
ram:800017a0    001086e5        str         r1,[r6,#0x0]=>DAT_80442040              
ram:800017a4    142095e5        ldr         r2,[r5,#0x14]                           
ram:800017a8    211ca0e1        mov         r1,r1, lsr #0x18                        
ram:800017ac    042086e5        str         r2,[r6,#0x4]=>DAT_80442044              
ram:800017b0    102095e5        ldr         r2,[r5,#0x10]                           
ram:800017b4    082086e5        str         r2,[r6,#0x8]=>DAT_80442048              
ram:800017b8    0c2095e5        ldr         r2,[r5,#0xc]                            
ram:800017bc    0c2086e5        str         r2,[r6,#0xc]=>DAT_8044204c              
ram:800017c0    1010c4e5        strb        r1,[r4,#0x10]                           
ram:800017c4    0410d0e5        ldrb        r1,[r0,#0x4]=>DAT_80442044              
ram:800017c8    3010c4e5        strb        r1,[r4,#0x30]                           
ram:800017cc    0510d0e5        ldrb        r1,[r0,#0x5]=>DAT_80442045              
ram:800017d0    3110c4e5        strb        r1,[r4,#0x31]                           
ram:800017d4    0610d0e5        ldrb        r1,[r0,#0x6]=>DAT_80442046              
ram:800017d8    3210c4e5        strb        r1,[r4,#0x32]                           
ram:800017dc    0710d0e5        ldrb        r1,[r0,#0x7]=>DAT_80442047              
ram:800017e0    3310c4e5        strb        r1,[r4,#0x33]                           
ram:800017e4    0810d0e5        ldrb        r1,[r0,#0x8]=>DAT_80442048              
ram:800017e8    3410c4e5        strb        r1,[r4,#0x34]                           
ram:800017ec    1310d0e5        ldrb        r1,[r0,#0x13]=>DAT_80442053             
ram:800017f0    5010c4e5        strb        r1,[r4,#0x50]                           
ram:800017f4    1410d0e5        ldrb        r1,[r0,#0x14]=>DAT_80442054             
ram:800017f8    5110c4e5        strb        r1,[r4,#0x51]                           
ram:800017fc    1510d0e5        ldrb        r1,[r0,#0x15]=>DAT_80442055             
ram:80001800    5210c4e5        strb        r1,[r4,#0x52]                           
ram:80001804    1600d0e5        ldrb        r0,[r0,#0x16]=>DAT_80442056             
ram:80001808    5300c4e5        strb        r0,[r4,#0x53]                           
ram:8000180c    34008fe2        adr         r0=>s_SD_info_pr...,0x80001848          ;= "SD_info print...\r\n"
ram:80001810    111600eb        bl          FUN_8000705c                            ;undefined FUN_8000705c()
ram:80001814    081094e5        ldr         r1,[r4,#0x8]                            
ram:80001818    3c008fe2        adr         r0=>s_SD_info->d...,0x8000185c          ;= "SD_info->diskSize=[%d]\r\n"
ram:8000181c    0e1600eb        bl          FUN_8000705c                            ;undefined FUN_8000705c()
ram:80001820    041094e5        ldr         r1,[r4,#0x4]                            
ram:80001824    4c008fe2        adr         r0=>s_SD_info->t...,0x80001878          ;= "SD_info->totalSectorN=[%d]\r\n"
ram:80001828    0b1600eb        bl          FUN_8000705c                            ;undefined FUN_8000705c()
ram:8000182c    0c1094e5        ldr         r1,[r4,#0xc]                            
ram:80001830    f001bde8        ldmia       sp!,{r4 r5 r6 r7 r8}=>local_18          
ram:80001834    04e09de4        ldr         lr,[sp],#0x4                            
ram:80001838    58008fe2        adr         r0,0x80001898                           
ram:8000183c    061600ea        b           FUN_8000705c                            
                            PTR_DAT_80001840:             ;XREF[1,0]:   800016a0
ram:80001840    c8790080        addr        DAT_800079c8                            
                            DAT_80001844:                 ;XREF[2,0]:   800016d0,8000179c
ram:80001844    40204480        undefined4  80442040h                               
                            s_SD_info_print..._80001848:  ;XREF[1,0]:   8000180c
ram:80001848    53445f696...    ds          "SD_info print...\r\n"                  
                            s_SD_info->diskSize=[%d]_80...;XREF[1,0]:   80001818
ram:8000185c    53445f696...    ds          "SD_info->diskSize=[%d]\r\n"            
                            s_SD_info->totalSectorN=[%d...;XREF[1,0]:   80001824
ram:80001878    53445f696...    ds          "SD_info->totalSectorN=[%d]\r\n"        
                            s_SD_info->sectorSize=[%d]_...;XREF[3,9]:   8000705c,80007074,80007088,80007088
                                                          ;             8000709c,800070b8,800070b8,800070d4
                                                          ;             80007118,80007504,80007504,80007504
ram:80001898    53445f696...    ds          "SD_info->sectorSize=[%d]\r\n"          
                            ;************************************************************************************************
                            ;*                                           FUNCTION                                           *
                            ;************************************************************************************************
                            ;undefined FUN_800018b4()
          ;local_8       undefined4          -8                      ;XREF[1,0]:   80001934
          ;local_c       undefined4          -c                      ;XREF[2,0]:   800018d0,800018ec
          ;local_10      undefined4         -10                      ;XREF[5,0]:   800018c8,800018d4,800018e0,800018f0,800018fc
                                                          ;XREF[1,0]:   800009dc
ram:800018b4    10402de9        stmdb       sp!,{r4 lr}                             
ram:800018b8    0000a0e3        mov         r0,#0x0                                 
ram:800018bc    78209fe5        ldr         r2,[DAT_8000193c]                       ;= 01C20410h
ram:800018c0    08d04de2        sub         sp,sp,#0x8                              
ram:800018c4    0010a0e1        mov         r1,r0                                   
ram:800018c8    f000cde1        strd        r0,r1,[sp,#0x0]=>local_10               
ram:800018cc    001092e5        ldr         r1,[r2,#0x0]=>DAT_01c20410              
ram:800018d0    04008de5        str         r0,[sp,#local_c+0x10]                   
ram:800018d4    00108de5        str         r1,[sp,#0x0]=>local_10                  
ram:800018d8    041082e2        add         r1,r2,#0x4                              
ram:800018dc    001091e5        ldr         r1,[r1,#0x0]=>DAT_01c20414              
ram:800018e0    00c09de5        ldr         r12,[sp,#0x0]=>local_10                 
ram:800018e4    001081e1        orr         r1,r1,r0                                
ram:800018e8    00c08ce1        orr         r12,r12,r0                              
ram:800018ec    04108de5        str         r1,[sp,#local_c+0x10]                   
ram:800018f0    00c08de5        str         r12,[sp,#0x0]=>local_10                 
ram:800018f4    000082e5        str         r0,[r2,#0x0]=>DAT_01c20410              
ram:800018f8    0140a0e3        mov         r4,#0x1                                 
                            LAB_800018fc:                 ;XREF[1,0]:   8000191c
ram:800018fc    d000cde1        ldrd        r0,r1,[sp,#0x0]=>local_10               
ram:80001900    0420a0e1        mov         r2,r4                                   
ram:80001904    66faffeb        bl          FUN_800002a4                            ;undefined FUN_800002a4()
ram:80001908    0000e0e1        mvn         r0,r0                                   
ram:8000190c    010010e3        tst         r0,#0x1                                 
ram:80001910    0400000a        beq         LAB_80001928                            
ram:80001914    014084e2        add         r4,r4,#0x1                              
ram:80001918    400054e3        cmp         r4,#0x40                                
ram:8000191c    f6ffffba        blt         LAB_800018fc                            
ram:80001920    08d08de2        add         sp,sp,#0x8                              
ram:80001924    1080bde8        ldmia       sp!,{r4 pc}                             
                            LAB_80001928:                 ;XREF[1,0]:   80001910
ram:80001928    10009fe5        ldr         r0,[PTR_DAT_80001940]                   ;= 80007874
ram:8000192c    040190e7        ldr         r0,[r0,r4,lsl #0x2]=>DAT_80007878       
ram:80001930    08d08de2        add         sp,sp,#0x8                              
ram:80001934    1040bde8        ldmia       sp!,{r4 lr}=>local_8                    
ram:80001938    10ff2fe1        bx          r0                                      
                            DAT_8000193c:                 ;XREF[1,0]:   800018bc
ram:8000193c    1004c201        undefined4  01C20410h                               
                            PTR_DAT_80001940:             ;XREF[1,0]:   80001928
ram:80001940    74780080        addr        DAT_80007874                            
                            ;************************************************************************************************
                            ;*                                           FUNCTION                                           *
                            ;************************************************************************************************
                            ;undefined FUN_80001944()
          ;local_10      undefined4         -10                      ;XREF[1,0]:   800019f4
                                                          ;XREF[1,0]:   80003224
ram:80001944    f0002de9        stmdb       sp!,{r4 r5 r6 r7}                       
ram:80001948    ac509fe5        ldr         r5,[PTR_DAT_800019fc]                   ;= 80007870
ram:8000194c    0140a0e3        mov         r4,#0x1                                 
ram:80001950    0060d5e5        ldrb        r6,[r5,#0x0]=>DAT_80007870              ;= 01h
ram:80001954    000056e3        cmp         r6,#0x0                                 
ram:80001958    0040c505        strbeq      r4,[r5,#0x0]=>DAT_80007870              ;= 01h
ram:8000195c    080050e3        cmp         r0,#0x8                                 
                            switchD:                      ; FWD[4,0]:   80001968,80001988,80001998,800019a4
ram:80001960    00f19f37        ldrcc       pc,[pc,r0,lsl #0x2]=>->switchD_800019...;= 80001988
ram:80001964    0e0000ea        b           switchD_80001960::caseD_8               
                            switchdataD_80001968:         ;XREF[1,0]:   80001960
ram:80001968    88190080        addr        switchD_80001960::caseD_0               
ram:8000196c    98190080        addr        switchD_80001960::caseD_1               
ram:80001970    98190080        addr        switchD_80001960::caseD_1               
ram:80001974    98190080        addr        switchD_80001960::caseD_1               
ram:80001978    98190080        addr        switchD_80001960::caseD_1               
ram:8000197c    98190080        addr        switchD_80001960::caseD_1               
ram:80001980    98190080        addr        switchD_80001960::caseD_1               
ram:80001984    98190080        addr        switchD_80001960::caseD_1               
                            caseD_0:                      ;XREF[2,0]:   80001960,80001968
ram:80001988    70c09fe5        ldr         r12,[PTR_DAT_80001a00]                  ;= 80007918
ram:8000198c    01019ce7        ldr         r0,[r12,r1,lsl #0x2]=>DAT_80007918      
ram:80001990    01218ce7        str         r2,[r12,r1,lsl #0x2]=>DAT_80007918      
ram:80001994    020000ea        b           switchD_80001960::caseD_8               
                            caseD_2:                      ;XREF[8,0]:   80001960,8000196c,80001970,80001974
                            caseD_3:                      ;             80001978,8000197c,80001980,80001984
                            caseD_4:                      
                            caseD_5:                      
                            caseD_6:                      
                            caseD_7:                      
                            caseD_1:                      
ram:80001998    64c09fe5        ldr         r12,[PTR_DAT_80001a04]                  ;= 80007874
ram:8000199c    01019ce7        ldr         r0,[r12,r1,lsl #0x2]=>DAT_80007874      
ram:800019a0    01218ce7        str         r2,[r12,r1,lsl #0x2]=>DAT_80007874      
                            caseD_8:                      ;XREF[3,0]:   80001960,80001964,80001994
ram:800019a4    81c181e0        add         r12,r1,r1, lsl #0x3                     
ram:800019a8    58209fe5        ldr         r2,[DAT_80001a08]                       ;= 01C20460h
ram:800019ac    81c38ce0        add         r12,r12,r1, lsl #0x7                    
ram:800019b0    acc5a0e1        mov         r12,r12, lsr #0xb                       
ram:800019b4    0cc182e0        add         r12,r2,r12, lsl #0x2                    
ram:800019b8    00209ce5        ldr         r2,[r12,#0x0]                           
ram:800019bc    48609fe5        ldr         r6,[DAT_80001a0c]                       ;= 88888889h
ram:800019c0    967185e0        umull       r7,r5,r6,r1                             
ram:800019c4    a551a0e1        mov         r5,r5, lsr #0x3                         
ram:800019c8    055245e0        sub         r5,r5,r5, lsl #0x4                      
ram:800019cc    015085e0        add         r5,r5,r1                                
ram:800019d0    8550a0e1        mov         r5,r5, lsl #0x1                         
ram:800019d4    132582e1        orr         r2,r2,r3, lsl r5                        
ram:800019d8    00208ce5        str         r2,[r12,#0x0]                           
ram:800019dc    2c209fe5        ldr         r2,[DAT_80001a10]                       ;= 01C20420h
ram:800019e0    a132a0e1        mov         r3,r1, lsr #0x5                         
ram:800019e4    0331b2e7        ldr         r3,[r2,r3,lsl #0x2]!                    
ram:800019e8    1f1001e2        and         r1,r1,#0x1f                             
ram:800019ec    141183e1        orr         r1,r3,r4, lsl r1                        
ram:800019f0    001082e5        str         r1,[r2,#0x0]                            
ram:800019f4    f000bde8        ldmia       sp!,{r4 r5 r6 r7}=>local_10             
ram:800019f8    1eff2fe1        bx          lr                                      
                            PTR_DAT_800019fc:             ;XREF[1,0]:   80001948
ram:800019fc    70780080        addr        DAT_80007870                            ;= 01h
                            PTR_DAT_80001a00:             ;XREF[1,0]:   80001988
ram:80001a00    18790080        addr        DAT_80007918                            
                            PTR_DAT_80001a04:             ;XREF[1,0]:   80001998
ram:80001a04    74780080        addr        DAT_80007874                            
                            DAT_80001a08:                 ;XREF[1,0]:   800019a8
ram:80001a08    6004c201        undefined4  01C20460h                               
                            DAT_80001a0c:                 ;XREF[1,0]:   800019bc
ram:80001a0c    89888888        undefined4  88888889h                               
                            DAT_80001a10:                 ;XREF[1,0]:   800019dc
ram:80001a10    2004c201        undefined4  01C20420h                               
ram:80001a14    10              ??          10h                                     
ram:80001a15    40              ??          40h    @                                
ram:80001a16    2d              ??          2Dh    -                                
ram:80001a17    e9              ??          E9h                                     
ram:80001a18    38              ??          38h    8                                
ram:80001a19    00              ??          00h                                     
ram:80001a1a    a0              ??          A0h                                     
ram:80001a1b    e3              ??          E3h                                     
ram:80001a1c    bb              ??          BBh                                     
ram:80001a1d    fe              ??          FEh                                     
ram:80001a1e    ff              ??          FFh                                     
ram:80001a1f    eb              ??          EBh                                     
ram:80001a20    00              ??          00h                                     
ram:80001a21    00              ??          00h                                     
ram:80001a22    a0              ??          A0h                                     
ram:80001a23    e3              ??          E3h                                     
ram:80001a24    7a              ??          7Ah    z                                
ram:80001a25    fe              ??          FEh                                     
ram:80001a26    ff              ??          FFh                                     
ram:80001a27    eb              ??          EBh                                     
ram:80001a28    10              ??          10h                                     
ram:80001a29    40              ??          40h    @                                
ram:80001a2a    bd              ??          BDh                                     
ram:80001a2b    e8              ??          E8h                                     
ram:80001a2c    00              ??          00h                                     
ram:80001a2d    00              ??          00h                                     
ram:80001a2e    a0              ??          A0h                                     
ram:80001a2f    e3              ??          E3h                                     
ram:80001a30    77              ??          77h    w                                
ram:80001a31    fe              ??          FEh                                     
ram:80001a32    ff              ??          FFh                                     
ram:80001a33    ea              ??          EAh                                     
                            ;************************************************************************************************
                            ;*                                           FUNCTION                                           *
                            ;************************************************************************************************
                            ;undefined FUN_80001a34(undefined param_1, undefined param_2, undefined param_3, undefined param_4, undefined4 param_5)
          ;param_1       undefined           r0                      
          ;param_2       undefined           r1                      
          ;param_3       undefined           r2                      
          ;param_4       undefined           r3                      
          ;param_5       undefined4           0                      ;XREF[1,0]:   80001a54
          ;local_20      undefined4         -20                      ;XREF[1,0]:   80001a5c
                                                          ;XREF[3,0]:   80000c10,80000c2c,80000e24
ram:80001a34    80472de9        stmdb       sp!,{r7 r8 r9 r10 lr}                   
ram:80001a38    70002de9        stmdb       sp!,{r4 r5 r6}                          
ram:80001a3c    0060a0e1        mov         r6,param_1                              
ram:80001a40    010053e2        subs        param_1,param_4,#0x1                    
ram:80001a44    0290a0e1        mov         r9,param_3                              
ram:80001a48    322ea0e3        mov         param_3,#0x320                          
ram:80001a4c    910204e0        mul         r4,param_2,param_3                      
ram:80001a50    0058a0e1        mov         r5,param_1, lsl #0x10                   
ram:80001a54    20809de5        ldr         r8,[sp,#param_5+0x20]                   
ram:80001a58    2558a0e1        mov         r5,r5, lsr #0x10                        
ram:80001a5c    f001bd38        ldmiacc     sp!,{r4 r5 r6 r7 r8}=>local_20          
ram:80001a60    34709f25        ldrcs       r7,[PTR_DAT_80001a9c]                   ;= 800079bc
ram:80001a64    0086bd38        ldmiacc     sp!,{r9 r10 pc}                         
                            LAB_80001a68:                 ;XREF[1,0]:   80001a90
ram:80001a68    000097e5        ldr         param_1,[r7,#0x0]                       
ram:80001a6c    0920a0e1        mov         param_3,r9                              
ram:80001a70    840080e0        add         param_1,param_1,r4, lsl #0x1            
ram:80001a74    860080e0        add         param_1,param_1,r6, lsl #0x1            
ram:80001a78    0810a0e1        mov         param_2,r8                              
ram:80001a7c    23fafffa        blx         FUN_80000310                            ;undefined FUN_80000310()
ram:80001a80    010055e2        subs        param_1,r5,#0x1                         
ram:80001a84    0058a0e1        mov         r5,param_1, lsl #0x10                   
ram:80001a88    2558a0e1        mov         r5,r5, lsr #0x10                        
ram:80001a8c    324e84e2        add         r4,r4,#0x320                            
ram:80001a90    f4ffff2a        bcs         LAB_80001a68                            
ram:80001a94    f001bde8        ldmia       sp!,{r4 r5 r6 r7 r8}                    
ram:80001a98    0086bde8        ldmia       sp!,{r9 r10 pc}                         
                            PTR_DAT_80001a9c:             ;XREF[1,0]:   80001a60
ram:80001a9c    bc790080        addr        DAT_800079bc                            
ram:80001aa0    30              ??          30h    0                                
ram:80001aa1    00              ??          00h                                     
ram:80001aa2    9f              ??          9Fh                                     
ram:80001aa3    e5              ??          E5h                                     
ram:80001aa4    10              ??          10h                                     
ram:80001aa5    40              ??          40h    @                                
ram:80001aa6    2d              ??          2Dh    -                                
ram:80001aa7    e9              ??          E9h                                     
ram:80001aa8    02              ??          02h                                     
ram:80001aa9    10              ??          10h                                     
ram:80001aaa    d0              ??          D0h                                     
ram:80001aab    e5              ??          E5h                                     
ram:80001aac    10              ??          10h                                     
ram:80001aad    00              ??          00h                                     
ram:80001aae    a0              ??          A0h                                     
ram:80001aaf    e3              ??          E3h                                     
ram:80001ab0    aa              ??          AAh                                     
ram:80001ab1    02              ??          02h                                     
ram:80001ab2    00              ??          00h                                     
ram:80001ab3    eb              ??          EBh                                     
ram:80001ab4    00              ??          00h                                     
ram:80001ab5    48              ??          48h    H                                
ram:80001ab6    a0              ??          A0h                                     
ram:80001ab7    e1              ??          E1h                                     
ram:80001ab8    24              ??          24h    $                                
ram:80001ab9    48              ??          48h    H                                
ram:80001aba    a0              ??          A0h                                     
ram:80001abb    e1              ??          E1h                                     
ram:80001abc    38              ??          38h    8                                
ram:80001abd    00              ??          00h                                     
ram:80001abe    a0              ??          A0h                                     
ram:80001abf    e3              ??          E3h                                     
ram:80001ac0    92              ??          92h                                     
ram:80001ac1    fe              ??          FEh                                     
ram:80001ac2    ff              ??          FFh                                     
ram:80001ac3    eb              ??          EBh                                     
ram:80001ac4    24              ??          24h    $                                
ram:80001ac5    04              ??          04h                                     
ram:80001ac6    a0              ??          A0h                                     
ram:80001ac7    e1              ??          E1h                                     
ram:80001ac8    51              ??          51h    Q                                
ram:80001ac9    fe              ??          FEh                                     
ram:80001aca    ff              ??          FFh                                     
ram:80001acb    eb              ??          EBh                                     
ram:80001acc    04              ??          04h                                     
ram:80001acd    00              ??          00h                                     
ram:80001ace    a0              ??          A0h                                     
ram:80001acf    e1              ??          E1h                                     
ram:80001ad0    10              ??          10h                                     
ram:80001ad1    40              ??          40h    @                                
ram:80001ad2    bd              ??          BDh                                     
ram:80001ad3    e8              ??          E8h                                     
ram:80001ad4    4e              ??          4Eh    N                                
ram:80001ad5    fe              ??          FEh                                     
ram:80001ad6    ff              ??          FFh                                     
ram:80001ad7    ea              ??          EAh                                     
ram:80001ad8    40              ??          40h    @                                
ram:80001ad9    7a              ??          7Ah    z                                
ram:80001ada    20              ??          20h                                     
ram:80001adb    80              ??          80h                                     
ram:80001adc    70              ??          70h    p                                
ram:80001add    40              ??          40h    @                                
ram:80001ade    2d              ??          2Dh    -                                
ram:80001adf    e9              ??          E9h                                     
ram:80001ae0    44              ??          44h    D                                
ram:80001ae1    00              ??          00h                                     
ram:80001ae2    9f              ??          9Fh                                     
ram:80001ae3    e5              ??          E5h                                     
ram:80001ae4    44              ??          44h    D                                
ram:80001ae5    10              ??          10h                                     
ram:80001ae6    9f              ??          9Fh                                     
ram:80001ae7    e5              ??          E5h                                     
ram:80001ae8    44              ??          44h    D                                
ram:80001ae9    50              ??          50h    P                                
ram:80001aea    9f              ??          9Fh                                     
ram:80001aeb    e5              ??          E5h                                     
ram:80001aec    00              ??          00h                                     
ram:80001aed    40              ??          40h    @                                
ram:80001aee    a0              ??          A0h                                     
ram:80001aef    e3              ??          E3h                                     
ram:80001af0    00              ??          00h                                     
ram:80001af1    00              ??          00h                                     
ram:80001af2    81              ??          81h                                     
ram:80001af3    e5              ??          E5h                                     
ram:80001af4    00              ??          00h                                     
ram:80001af5    30              ??          30h    0                                
ram:80001af6    a0              ??          A0h                                     
ram:80001af7    e3              ??          E3h                                     
ram:80001af8    02              ??          02h                                     
ram:80001af9    20              ??          20h                                     
ram:80001afa    a0              ??          A0h                                     
ram:80001afb    e3              ??          E3h                                     
ram:80001afc    04              ??          04h                                     
ram:80001afd    10              ??          10h                                     
ram:80001afe    a0              ??          A0h                                     
ram:80001aff    e1              ??          E1h                                     
ram:80001b00    05              ??          05h                                     
ram:80001b01    00              ??          00h                                     
ram:80001b02    a0              ??          A0h                                     
ram:80001b03    e1              ??          E1h                                     
ram:80001b04    c0              ??          C0h                                     
ram:80001b05    fe              ??          FEh                                     
ram:80001b06    ff              ??          FFh                                     
ram:80001b07    eb              ??          EBh                                     
ram:80001b08    01              ??          01h                                     
ram:80001b09    40              ??          40h    @                                
ram:80001b0a    84              ??          84h                                     
ram:80001b0b    e2              ??          E2h                                     
ram:80001b0c    15              ??          15h                                     
ram:80001b0d    00              ??          00h                                     
ram:80001b0e    54              ??          54h    T                                
ram:80001b0f    e3              ??          E3h                                     
ram:80001b10    f7              ??          F7h                                     
ram:80001b11    ff              ??          FFh                                     
ram:80001b12    ff              ??          FFh                                     
ram:80001b13    da              ??          DAh                                     
ram:80001b14    70              ??          70h    p                                
ram:80001b15    40              ??          40h    @                                
ram:80001b16    bd              ??          BDh                                     
ram:80001b17    e8              ??          E8h                                     
ram:80001b18    0c              ??          0Ch                                     
ram:80001b19    30              ??          30h    0                                
ram:80001b1a    9f              ??          9Fh                                     
ram:80001b1b    e5              ??          E5h                                     
ram:80001b1c    1e              ??          1Eh                                     
ram:80001b1d    1e              ??          1Eh                                     
ram:80001b1e    a0              ??          A0h                                     
ram:80001b1f    e3              ??          E3h                                     
ram:80001b20    00              ??          00h                                     
ram:80001b21    20              ??          20h                                     
ram:80001b22    83              ??          83h                                     
ram:80001b23    e2              ??          E2h                                     
ram:80001b24    32              ??          32h    2                                
ram:80001b25    0e              ??          0Eh                                     
ram:80001b26    a0              ??          A0h                                     
ram:80001b27    e3              ??          E3h                                     
ram:80001b28    9c              ??          9Ch                                     
ram:80001b29    fd              ??          FDh                                     
ram:80001b2a    ff              ??          FFh                                     
ram:80001b2b    ea              ??          EAh                                     
ram:80001b2c    50              ??          50h    P                                
ram:80001b2d    7a              ??          7Ah    z                                
ram:80001b2e    20              ??          20h                                     
ram:80001b2f    80              ??          80h                                     
ram:80001b30    bc              ??          BCh                                     ;?  ->  800079bc
ram:80001b31    79              ??          79h    y                                
ram:80001b32    00              ??          00h                                     
ram:80001b33    80              ??          80h                                     
ram:80001b34    6c              ??          6Ch    l                                
ram:80001b35    08              ??          08h                                     
ram:80001b36    c2              ??          C2h                                     
ram:80001b37    01              ??          01h                                     
                            ;************************************************************************************************
                            ;*                                           FUNCTION                                           *
                            ;************************************************************************************************
                            ;undefined FUN_80001b38()
                                                          ;XREF[2,0]:   800010f4,80001100
ram:80001b38    04009fe5        ldr         r0,[PTR_DAT_80001b44]                   ;= 800079c4
ram:80001b3c    000090e5        ldr         r0,[r0,#0x0]=>DAT_800079c4              
ram:80001b40    1eff2fe1        bx          lr                                      
                            PTR_DAT_80001b44:             ;XREF[1,0]:   80001b38
ram:80001b44    c4790080        addr        DAT_800079c4                            
                            ;************************************************************************************************
                            ;*                                           FUNCTION                                           *
                            ;************************************************************************************************
                            ;undefined FUN_80001b48()
          ;local_24      undefined4         -24                      ;XREF[4,0]:   80001dfc,80001f68,80002024,800021b0
          ;local_28      undefined4         -28                      ;XREF[9,0]:   80001e5c,80001eb0,80001ebc,80001f04,80001f5c
                                                                     ;             80001fc8,80001ff8,80002058,800020ac
          ;local_2c      undefined4         -2c                      ;XREF[1,0]:   80001f10
          ;local_30      undefined4         -30                      ;XREF[1,0]:   80001f1c
          ;local_34      undefined4         -34                      ;XREF[1,0]:   80001f24
          ;local_38      undefined4         -38                      ;XREF[16,0]:  80001d40,80001d74,80001da4,80001dd0,80001e28
                                                                     ;             80001e54,80001e80,80001ea8,80001f50,80001f84
                                                                     ;             80001fb8,80001ff0,80002050,8000207c,800020a4
                                                                     ;             80002174
          ;local_3c      undefined4         -3c                      ;XREF[16,0]:  80001d44,80001d60,80001da8,80001dd4,80001e2c
                                                                     ;             80001e44,80001e84,80001e98,80001f4c,80001f88
                                                                     ;             80001fb4,80001fdc,8000203c,80002080,80002094
                                                                     ;             80002170
          ;local_40      undefined2         -40                      ;XREF[17,0]:  80001d3c,80001d70,80001da0,80001dcc,80001e24
                                                                     ;             80001e38,80001e7c,80001e94,80001eec,80001f48
                                                                     ;             80001f80,80001fb0,80001fec,8000204c,80002078
                                                                     ;             80002090,8000216c
                                                          ;XREF[1,0]:   80003ea0
ram:80001b48    004f2de9        stmdb       sp!,{r8 r9 r10 r11 lr}                  
ram:80001b4c    f0002de9        stmdb       sp!,{r4 r5 r6 r7}                       
ram:80001b50    6c659fe5        ldr         r6,[DAT_800020c4]                       ;= 01C0F000h
ram:80001b54    0040b0e1        movs        r4,r0                                   
ram:80001b58    1cd04de2        sub         sp,sp,#0x1c                             
ram:80001b5c    017a86e2        add         r7,r6,#0x1000                           
ram:80001b60    0680a001        moveq       r8,r6                                   
ram:80001b64    0200000a        beq         LAB_80001b74                            
ram:80001b68    010054e3        cmp         r4,#0x1                                 
ram:80001b6c    0780a001        moveq       r8,r7                                   
ram:80001b70    0080a013        movne       r8,#0x0                                 
                            LAB_80001b74:                 ;XREF[1,0]:   80001b64
ram:80001b74    000054e3        cmp         r4,#0x0                                 
ram:80001b78    48959f05        ldreq       r9,[DAT_800020c8]                       ;= 01C208B4h
ram:80001b7c    0050a0e3        mov         r5,#0x0                                 
ram:80001b80    0300000a        beq         LAB_80001b94                            
ram:80001b84    010054e3        cmp         r4,#0x1                                 
ram:80001b88    3c959f05        ldreq       r9,[DAT_800020cc]                       ;= 01C20848h
ram:80001b8c    0900000a        beq         LAB_80001bb8                            
ram:80001b90    100000ea        b           LAB_80001bd8                            
                            LAB_80001b94:                 ;XREF[2,0]:   80001b80,80001bb0
ram:80001b94    0030a0e3        mov         r3,#0x0                                 
ram:80001b98    0220a0e3        mov         r2,#0x2                                 
ram:80001b9c    0510a0e1        mov         r1,r5                                   
ram:80001ba0    0900a0e1        mov         r0,r9                                   
ram:80001ba4    98feffeb        bl          FUN_8000160c                            ;undefined FUN_8000160c()
ram:80001ba8    015085e2        add         r5,r5,#0x1                              
ram:80001bac    060055e3        cmp         r5,#0x6                                 
ram:80001bb0    f7ffffba        blt         LAB_80001b94                            
ram:80001bb4    070000ea        b           LAB_80001bd8                            
                            LAB_80001bb8:                 ;XREF[2,0]:   80001b8c,80001bd4
ram:80001bb8    0030a0e3        mov         r3,#0x0                                 
ram:80001bbc    0320a0e3        mov         r2,#0x3                                 
ram:80001bc0    0510a0e1        mov         r1,r5                                   
ram:80001bc4    0900a0e1        mov         r0,r9                                   
ram:80001bc8    8ffeffeb        bl          FUN_8000160c                            ;undefined FUN_8000160c()
ram:80001bcc    015085e2        add         r5,r5,#0x1                              
ram:80001bd0    030055e3        cmp         r5,#0x3                                 
ram:80001bd4    f7ffffba        blt         LAB_80001bb8                            
                            LAB_80001bd8:                 ;XREF[2,0]:   80001b90,80001bb4
ram:80001bd8    f0249fe5        ldr         r2,[DAT_800020d0]                       ;= 01C20060h
ram:80001bdc    000092e5        ldr         r0,[r2,#0x0]=>DAT_01c20060              
ram:80001be0    0190a0e3        mov         r9,#0x1                                 
ram:80001be4    081084e2        add         r1,r4,#0x8                              
ram:80001be8    1911a0e1        mov         r1,r9, lsl r1                           
ram:80001bec    010080e1        orr         r0,r0,r1                                
ram:80001bf0    000082e5        str         r0,[r2,#0x0]=>DAT_01c20060              
ram:80001bf4    260e82e2        add         r0,r2,#0x260                            
ram:80001bf8    002090e5        ldr         r2,[r0,#0x0]=>DAT_01c202c0              
ram:80001bfc    021081e1        orr         r1,r1,r2                                
ram:80001c00    001080e5        str         r1,[r0,#0x0]=>DAT_01c202c0              
ram:80001c04    0900a0e1        mov         r0,r9                                   
ram:80001c08    870700eb        bl          FUN_80003a2c                            ;undefined FUN_80003a2c()
ram:80001c0c    c0149fe5        ldr         r1,[DAT_800020d4]                       ;= 00061A80h
ram:80001c10    0400a0e1        mov         r0,r4                                   
ram:80001c14    7b0f00eb        bl          FUN_80005a08                            ;undefined FUN_80005a08()
ram:80001c18    000054e3        cmp         r4,#0x0                                 
ram:80001c1c    06b0a001        moveq       r11,r6                                  
ram:80001c20    0200000a        beq         LAB_80001c30                            
ram:80001c24    010054e3        cmp         r4,#0x1                                 
ram:80001c28    07b0a001        moveq       r11,r7                                  
ram:80001c2c    00b0a013        movne       r11,#0x0                                
                            LAB_80001c30:                 ;XREF[1,0]:   80001c20
ram:80001c30    78009be5        ldr         r0,[r11,#0x78]                          
ram:80001c34    0050a0e3        mov         r5,#0x0                                 
ram:80001c38    020080e3        orr         r0,r0,#0x2                              
ram:80001c3c    78008be5        str         r0,[r11,#0x78]                          
ram:80001c40    78009be5        ldr         r0,[r11,#0x78]                          
ram:80001c44    0200c0e3        bic         r0,r0,#0x2                              
ram:80001c48    78008be5        str         r0,[r11,#0x78]                          
ram:80001c4c    84a49fe5        ldr         r10,[DAT_800020d8]                      ;= 00001388h
ram:80001c50    0a00a0e1        mov         r0,r10                                  
ram:80001c54    2ffdffeb        bl          FUN_80001118                            ;undefined FUN_80001118()
ram:80001c58    78009be5        ldr         r0,[r11,#0x78]                          
ram:80001c5c    020080e3        orr         r0,r0,#0x2                              
ram:80001c60    78008be5        str         r0,[r11,#0x78]                          
ram:80001c64    0a00a0e1        mov         r0,r10                                  
ram:80001c68    2afdffeb        bl          FUN_80001118                            ;undefined FUN_80001118()
ram:80001c6c    000054e3        cmp         r4,#0x0                                 
ram:80001c70    0600a001        moveq       r0,r6                                   
ram:80001c74    0200000a        beq         LAB_80001c84                            
ram:80001c78    010054e3        cmp         r4,#0x1                                 
ram:80001c7c    0700a001        moveq       r0,r7                                   
ram:80001c80    0000a013        movne       r0,#0x0                                 
                            LAB_80001c84:                 ;XREF[1,0]:   80001c74
ram:80001c84    001090e5        ldr         r1,[r0,#0x0]                            
ram:80001c88    071081e3        orr         r1,r1,#0x7                              
ram:80001c8c    001080e5        str         r1,[r0,#0x0]                            
ram:80001c90    0a00a0e1        mov         r0,r10                                  
ram:80001c94    1ffdffeb        bl          FUN_80001118                            ;undefined FUN_80001118()
ram:80001c98    000054e3        cmp         r4,#0x0                                 
ram:80001c9c    0600a001        moveq       r0,r6                                   
ram:80001ca0    0200000a        beq         LAB_80001cb0                            
ram:80001ca4    010054e3        cmp         r4,#0x1                                 
ram:80001ca8    0700a001        moveq       r0,r7                                   
ram:80001cac    0000a013        movne       r0,#0x0                                 
                            LAB_80001cb0:                 ;XREF[1,0]:   80001ca0
ram:80001cb0    001090e5        ldr         r1,[r0,#0x0]                            
ram:80001cb4    011cc1e3        bic         r1,r1,#0x100                            
ram:80001cb8    001080e5        str         r1,[r0,#0x0]                            
ram:80001cbc    000054e3        cmp         r4,#0x0                                 
ram:80001cc0    0600a001        moveq       r0,r6                                   
ram:80001cc4    0200000a        beq         LAB_80001cd4                            
ram:80001cc8    010054e3        cmp         r4,#0x1                                 
ram:80001ccc    0700a001        moveq       r0,r7                                   
ram:80001cd0    0000a013        movne       r0,#0x0                                 
                            LAB_80001cd4:                 ;XREF[1,0]:   80001cc4
ram:80001cd4    041090e5        ldr         r1,[r0,#0x4]                            
ram:80001cd8    021881e3        orr         r1,r1,#0x20000                          
ram:80001cdc    041080e5        str         r1,[r0,#0x4]                            
ram:80001ce0    000054e3        cmp         r4,#0x0                                 
ram:80001ce4    0600a001        moveq       r0,r6                                   
ram:80001ce8    0200000a        beq         LAB_80001cf8                            
ram:80001cec    010054e3        cmp         r4,#0x1                                 
ram:80001cf0    0700a001        moveq       r0,r7                                   
ram:80001cf4    0000a013        movne       r0,#0x0                                 
                            LAB_80001cf8:                 ;XREF[1,0]:   80001ce8
ram:80001cf8    0c5080e5        str         r5,[r0,#0xc]                            
ram:80001cfc    0000e0e3        mvn         r0,#0x0                                 
ram:80001d00    080088e5        str         r0,[r8,#0x8]                            
ram:80001d04    0400b0e1        movs        r0,r4                                   
ram:80001d08    0200000a        beq         LAB_80001d18                            
ram:80001d0c    010050e3        cmp         r0,#0x1                                 
ram:80001d10    0760a001        moveq       r6,r7                                   
ram:80001d14    0060a013        movne       r6,#0x0                                 
                            LAB_80001d18:                 ;XREF[1,0]:   80001d08
ram:80001d18    041096e5        ldr         r1,[r6,#offset DAT_01c0f004 &0xff]      
ram:80001d1c    011881e3        orr         r1,r1,#0x10000                          
ram:80001d20    041086e5        str         r1,[r6,#offset DAT_01c0f004 &0xff]      
ram:80001d24    701000eb        bl          FUN_80005eec                            ;undefined FUN_80005eec()
ram:80001d28    3200a0e3        mov         r0,#0x32                                
ram:80001d2c    3e0700eb        bl          FUN_80003a2c                            ;undefined FUN_80003a2c()
ram:80001d30    0020a0e3        mov         r2,#0x0                                 
ram:80001d34    0d10a0e1        mov         r1,sp                                   
ram:80001d38    0400a0e1        mov         r0,r4                                   
ram:80001d3c    b020cde1        strh        r2,[sp,#0x0]=>local_40                  
ram:80001d40    08208de5        str         r2,[sp,#local_38+0x40]                  
ram:80001d44    04208de5        str         r2,[sp,#local_3c+0x40]                  
ram:80001d48    a31200eb        bl          FUN_800067dc                            ;undefined FUN_800067dc()
ram:80001d4c    7d0fa0e3        mov         r0,#0x1f4                               
ram:80001d50    350700eb        bl          FUN_80003a2c                            ;undefined FUN_80003a2c()
ram:80001d54    80c39fe5        ldr         r12,[DAT_800020dc]                      ;= 00000155h
ram:80001d58    0500a0e3        mov         r0,#0x5                                 
ram:80001d5c    0830a0e3        mov         r3,#0x8                                 
ram:80001d60    04008de5        str         r0,[sp,#local_3c+0x40]                  
ram:80001d64    0d10a0e1        mov         r1,sp                                   
ram:80001d68    0020a0e3        mov         r2,#0x0                                 
ram:80001d6c    0400a0e1        mov         r0,r4                                   
ram:80001d70    b030cde1        strh        r3,[sp,#0x0]=>local_40                  
ram:80001d74    08c08de5        str         r12,[sp,#local_38+0x40]                 
ram:80001d78    971200eb        bl          FUN_800067dc                            ;undefined FUN_800067dc()
ram:80001d7c    5c739fe5        ldr         r7,[PTR_DAT_800020e0]                   ;= 800079c8
ram:80001d80    000050e3        cmp         r0,#0x0                                 
ram:80001d84    0260a0e3        mov         r6,#0x2                                 
ram:80001d88    1e00000a        beq         LAB_80001e08                            
ram:80001d8c    350e8fe2        adr         r0=>s_SD1.1..._800020e4,0x800020e4      ;= "SD1.1...\r\n"
ram:80001d90    b11400eb        bl          FUN_8000705c                            ;undefined FUN_8000705c()
ram:80001d94    0020a0e3        mov         r2,#0x0                                 
ram:80001d98    0d10a0e1        mov         r1,sp                                   
ram:80001d9c    0400a0e1        mov         r0,r4                                   
ram:80001da0    b020cde1        strh        r2,[sp,#0x0]=>local_40                  
ram:80001da4    08208de5        str         r2,[sp,#local_38+0x40]                  
ram:80001da8    04208de5        str         r2,[sp,#local_3c+0x40]                  
ram:80001dac    8a1200eb        bl          FUN_800067dc                            ;undefined FUN_800067dc()
ram:80001db0    7d0fa0e3        mov         r0,#0x1f4                               
ram:80001db4    1c0700eb        bl          FUN_80003a2c                            ;undefined FUN_80003a2c()
ram:80001db8    0020a0e3        mov         r2,#0x0                                 
ram:80001dbc    3780a0e3        mov         r8,#0x37                                
ram:80001dc0    0530a0e3        mov         r3,#0x5                                 
ram:80001dc4    0d10a0e1        mov         r1,sp                                   
ram:80001dc8    0400a0e1        mov         r0,r4                                   
ram:80001dcc    b080cde1        strh        r8,[sp,#0x0]=>local_40                  
ram:80001dd0    08208de5        str         r2,[sp,#local_38+0x40]                  
ram:80001dd4    04308de5        str         r3,[sp,#local_3c+0x40]                  
ram:80001dd8    7f1200eb        bl          FUN_800067dc                            ;undefined FUN_800067dc()
ram:80001ddc    980050e3        cmp         r0,#0x98                                
ram:80001de0    6300000a        beq         LAB_80001f74                            
ram:80001de4    000050e3        cmp         r0,#0x0                                 
ram:80001de8    9000000a        beq         LAB_80002030                            
ram:80001dec    bf0f8fe2        adr         r0=>s_Init_Error_!!_800020f0,0x800020f0 ;= "Init Error !!\n"
ram:80001df0    005087e5        str         r5,[r7,#0x0]=>DAT_800079c8              
ram:80001df4    981400eb        bl          FUN_8000705c                            ;undefined FUN_8000705c()
ram:80001df8    1cd08de2        add         sp,sp,#0x1c                             
ram:80001dfc    f001bde8        ldmia       sp!,{r4 r5 r6 r7 r8}=>local_24          
ram:80001e00    0000e0e3        mvn         r0,#0x0                                 
ram:80001e04    008ebde8        ldmia       sp!,{r9 r10 r11 pc}                     
                            LAB_80001e08:                 ;XREF[1,0]:   80001d88
ram:80001e08    2f0e8fe2        adr         r0=>s_SD2.0..._80002100,0x80002100      ;= "SD2.0...\r\n"
ram:80001e0c    921400eb        bl          FUN_8000705c                            ;undefined FUN_8000705c()
ram:80001e10    0020a0e3        mov         r2,#0x0                                 
ram:80001e14    3750a0e3        mov         r5,#0x37                                
ram:80001e18    0530a0e3        mov         r3,#0x5                                 
ram:80001e1c    0d10a0e1        mov         r1,sp                                   
ram:80001e20    0400a0e1        mov         r0,r4                                   
ram:80001e24    b050cde1        strh        r5,[sp,#0x0]=>local_40                  
ram:80001e28    08208de5        str         r2,[sp,#local_38+0x40]                  
ram:80001e2c    04308de5        str         r3,[sp,#local_3c+0x40]                  
ram:80001e30    691200eb        bl          FUN_800067dc                            ;undefined FUN_800067dc()
ram:80001e34    2920a0e3        mov         r2,#0x29                                
ram:80001e38    b020cde1        strh        r2,[sp,#0x0]=>local_40                  
ram:80001e3c    c8529fe5        ldr         r5,[DAT_8000210c]                       
ram:80001e40    0720a0e3        mov         r2,#0x7                                 
ram:80001e44    04208de5        str         r2,[sp,#local_3c+0x40]                  
ram:80001e48    0d10a0e1        mov         r1,sp                                   
ram:80001e4c    0400a0e1        mov         r0,r4                                   
ram:80001e50    0020a0e3        mov         r2,#0x0                                 
ram:80001e54    08508de5        str         r5,[sp,#local_38+0x40]                  
ram:80001e58    5f1200eb        bl          FUN_800067dc                            ;undefined FUN_800067dc()
ram:80001e5c    18009de5        ldr         r0,[sp,#local_28+0x40]                  
ram:80001e60    020110e3        tst         r0,#0x80000000                          
ram:80001e64    1400001a        bne         LAB_80001ebc                            
                            LAB_80001e68:                 ;XREF[1,0]:   80001eb8
ram:80001e68    0020a0e3        mov         r2,#0x0                                 
ram:80001e6c    3780a0e3        mov         r8,#0x37                                
ram:80001e70    0530a0e3        mov         r3,#0x5                                 
ram:80001e74    0d10a0e1        mov         r1,sp                                   
ram:80001e78    0400a0e1        mov         r0,r4                                   
ram:80001e7c    b080cde1        strh        r8,[sp,#0x0]=>local_40                  
ram:80001e80    08208de5        str         r2,[sp,#local_38+0x40]                  
ram:80001e84    04308de5        str         r3,[sp,#local_3c+0x40]                  
ram:80001e88    531200eb        bl          FUN_800067dc                            ;undefined FUN_800067dc()
ram:80001e8c    2910a0e3        mov         r1,#0x29                                
ram:80001e90    0700a0e3        mov         r0,#0x7                                 
ram:80001e94    b010cde1        strh        r1,[sp,#0x0]=>local_40                  
ram:80001e98    04008de5        str         r0,[sp,#local_3c+0x40]                  
ram:80001e9c    0d10a0e1        mov         r1,sp                                   
ram:80001ea0    0020a0e3        mov         r2,#0x0                                 
ram:80001ea4    0400a0e1        mov         r0,r4                                   
ram:80001ea8    08508de5        str         r5,[sp,#local_38+0x40]                  
ram:80001eac    4a1200eb        bl          FUN_800067dc                            ;undefined FUN_800067dc()
ram:80001eb0    18009de5        ldr         r0,[sp,#local_28+0x40]                  
ram:80001eb4    020110e3        tst         r0,#0x80000000                          
ram:80001eb8    eaffff0a        beq         LAB_80001e68                            
                            LAB_80001ebc:                 ;XREF[1,0]:   80001e64
ram:80001ebc    18009de5        ldr         r0,[sp,#local_28+0x40]                  
ram:80001ec0    010110e3        tst         r0,#0x40000000                          
ram:80001ec4    910f8f12        adrne       r0,0x80002110                           
ram:80001ec8    00908715        strne       r9,[r7,#0x0]=>DAT_800079c8              
ram:80001ecc    7900000a        beq         LAB_800020b8                            
                            LAB_80001ed0:                 ;XREF[2,0]:   80002010,800020c0
                                                          ; FWD[2,0]:   8000212c,8000705c
ram:80001ed0    611400eb        bl          FUN_8000705c                            ;= "TYPE_MMC...\r\n"
                                                                                    ;undefined FUN_8000705c()
ram:80001ed4    000097e5        ldr         r0,[r7,#0x0]=>DAT_800079c8              
ram:80001ed8    000050e3        cmp         r0,#0x0                                 
ram:80001edc    aa00000a        beq         LAB_8000218c                            
ram:80001ee0    0230a0e3        mov         r3,#0x2                                 
ram:80001ee4    0020a0e3        mov         r2,#0x0                                 
ram:80001ee8    0700a0e3        mov         r0,#0x7                                 
ram:80001eec    b030cde1        strh        r3,[sp,#0x0]=>local_40                  
ram:80001ef0    05008de9        stmib       sp,{ r0 r2 }                            
ram:80001ef4    0d10a0e1        mov         r1,sp                                   
ram:80001ef8    0400a0e1        mov         r0,r4                                   
ram:80001efc    361200eb        bl          FUN_800067dc                            ;undefined FUN_800067dc()
ram:80001f00    1c029fe5        ldr         r0,[DAT_80002124]                       ;= 80441070h
ram:80001f04    18109de5        ldr         r1,[sp,#local_28+0x40]                  
ram:80001f08    0020a0e3        mov         r2,#0x0                                 
ram:80001f0c    001080e5        str         r1,[r0,#0x0]=>DAT_80441070              
ram:80001f10    14109de5        ldr         r1,[sp,#local_2c+0x40]                  
ram:80001f14    0350a0e3        mov         r5,#0x3                                 
ram:80001f18    041080e5        str         r1,[r0,#0x4]=>DAT_80441074              
ram:80001f1c    10109de5        ldr         r1,[sp,#local_30+0x40]                  
ram:80001f20    081080e5        str         r1,[r0,#0x8]=>DAT_80441078              
ram:80001f24    0c109de5        ldr         r1,[sp,#local_34+0x40]                  
ram:80001f28    0c1080e5        str         r1,[r0,#0xc]=>DAT_8044107c              
ram:80001f2c    000097e5        ldr         r0,[r7,#0x0]=>DAT_800079c8              
ram:80001f30    0d10a0e1        mov         r1,sp                                   
ram:80001f34    030050e3        cmp         r0,#0x3                                 
ram:80001f38    0400a0e1        mov         r0,r4                                   
ram:80001f3c    8800000a        beq         LAB_80002164                            
ram:80001f40    00c0a0e3        mov         r12,#0x0                                
ram:80001f44    0730a0e3        mov         r3,#0x7                                 
ram:80001f48    b050cde1        strh        r5,[sp,#0x0]=>local_40                  
ram:80001f4c    04308de5        str         r3,[sp,#local_3c+0x40]                  
ram:80001f50    08c08de5        str         r12,[sp,#local_38+0x40]                 
ram:80001f54    201200eb        bl          FUN_800067dc                            ;undefined FUN_800067dc()
ram:80001f58    000050e3        cmp         r0,#0x0                                 
ram:80001f5c    18009d05        ldreq       r0,[sp,#local_28+0x40]                  
ram:80001f60    8800000a        beq         LAB_80002188                            
                            LAB_80001f64:                 ;XREF[1,0]:   80002184
ram:80001f64    1cd08de2        add         sp,sp,#0x1c                             
ram:80001f68    f001bde8        ldmia       sp!,{r4 r5 r6 r7 r8}=>local_24          
ram:80001f6c    0000e0e3        mvn         r0,#0x0                                 
ram:80001f70    008ebde8        ldmia       sp!,{r9 r10 r11 pc}                     
                            LAB_80001f74:                 ;XREF[1,0]:   80001de0
ram:80001f74    0020a0e3        mov         r2,#0x0                                 
ram:80001f78    0d10a0e1        mov         r1,sp                                   
ram:80001f7c    0400a0e1        mov         r0,r4                                   
ram:80001f80    b020cde1        strh        r2,[sp,#0x0]=>local_40                  
ram:80001f84    08208de5        str         r2,[sp,#local_38+0x40]                  
ram:80001f88    04208de5        str         r2,[sp,#local_3c+0x40]                  
ram:80001f8c    121200eb        bl          FUN_800067dc                            ;undefined FUN_800067dc()
ram:80001f90    0100a0e3        mov         r0,#0x1                                 
ram:80001f94    a40600eb        bl          FUN_80003a2c                            ;undefined FUN_80003a2c()
ram:80001f98    88619fe5        ldr         r6,[DAT_80002128]                       ;= 80FF8000h
ram:80001f9c    01c0a0e3        mov         r12,#0x1                                
ram:80001fa0    0530a0e3        mov         r3,#0x5                                 
ram:80001fa4    0d10a0e1        mov         r1,sp                                   
ram:80001fa8    0400a0e1        mov         r0,r4                                   
ram:80001fac    0020a0e3        mov         r2,#0x0                                 
ram:80001fb0    b0c0cde1        strh        r12,[sp,#0x0]=>local_40                 
ram:80001fb4    04308de5        str         r3,[sp,#local_3c+0x40]                  
ram:80001fb8    08608de5        str         r6,[sp,#local_38+0x40]                  
ram:80001fbc    061200eb        bl          FUN_800067dc                            ;undefined FUN_800067dc()
ram:80001fc0    980050e3        cmp         r0,#0x98                                
ram:80001fc4    1200000a        beq         LAB_80002014                            
ram:80001fc8    18009de5        ldr         r0,[sp,#local_28+0x40]                  
ram:80001fcc    020110e3        tst         r0,#0x80000000                          
ram:80001fd0    0b00001a        bne         LAB_80002004                            
                            LAB_80001fd4:                 ;XREF[1,0]:   80002000
ram:80001fd4    0500a0e3        mov         r0,#0x5                                 
ram:80001fd8    0130a0e3        mov         r3,#0x1                                 
ram:80001fdc    04008de5        str         r0,[sp,#local_3c+0x40]                  
ram:80001fe0    0d10a0e1        mov         r1,sp                                   
ram:80001fe4    0020a0e3        mov         r2,#0x0                                 
ram:80001fe8    0400a0e1        mov         r0,r4                                   
ram:80001fec    b030cde1        strh        r3,[sp,#0x0]=>local_40                  
ram:80001ff0    08608de5        str         r6,[sp,#local_38+0x40]                  
ram:80001ff4    f81100eb        bl          FUN_800067dc                            ;undefined FUN_800067dc()
ram:80001ff8    18009de5        ldr         r0,[sp,#local_28+0x40]                  
ram:80001ffc    020110e3        tst         r0,#0x80000000                          
ram:80002000    f3ffff0a        beq         LAB_80001fd4                            
                            LAB_80002004:                 ;XREF[1,0]:   80001fd0
ram:80002004    0300a0e3        mov         r0,#0x3                                 
ram:80002008    000087e5        str         r0,[r7,#0x0]=>DAT_800079c8              
ram:8000200c    460f8fe2        adr         r0,0x8000212c                           
ram:80002010    aeffffea        b           LAB_80001ed0                            
                            LAB_80002014:                 ;XREF[1,0]:   80001fc4
ram:80002014    120e8fe2        adr         r0=>s_ERR_DEVICE..._8000213c,0x8000213c ;= "ERR_DEVICE...\r\n"
ram:80002018    005087e5        str         r5,[r7,#0x0]=>DAT_800079c8              
ram:8000201c    0e1400eb        bl          FUN_8000705c                            ;undefined FUN_8000705c()
ram:80002020    1cd08de2        add         sp,sp,#0x1c                             
ram:80002024    f001bde8        ldmia       sp!,{r4 r5 r6 r7 r8}=>local_24          
ram:80002028    0000e0e3        mvn         r0,#0x0                                 
ram:8000202c    008ebde8        ldmia       sp!,{r9 r10 r11 pc}                     
                            LAB_80002030:                 ;XREF[1,0]:   80001de8
ram:80002030    14519fe5        ldr         r5,[DAT_8000214c]                       ;= 00FF8000h
ram:80002034    0700a0e3        mov         r0,#0x7                                 
ram:80002038    2930a0e3        mov         r3,#0x29                                
ram:8000203c    04008de5        str         r0,[sp,#local_3c+0x40]                  
ram:80002040    0d10a0e1        mov         r1,sp                                   
ram:80002044    0020a0e3        mov         r2,#0x0                                 
ram:80002048    0400a0e1        mov         r0,r4                                   
ram:8000204c    b030cde1        strh        r3,[sp,#0x0]=>local_40                  
ram:80002050    08508de5        str         r5,[sp,#local_38+0x40]                  
ram:80002054    e01100eb        bl          FUN_800067dc                            ;undefined FUN_800067dc()
ram:80002058    18009de5        ldr         r0,[sp,#local_28+0x40]                  
ram:8000205c    020110e3        tst         r0,#0x80000000                          
ram:80002060    1400001a        bne         LAB_800020b8                            
                            LAB_80002064:                 ;XREF[1,0]:   800020b4
ram:80002064    0020a0e3        mov         r2,#0x0                                 
ram:80002068    3730a0e3        mov         r3,#0x37                                
ram:8000206c    0580a0e3        mov         r8,#0x5                                 
ram:80002070    0d10a0e1        mov         r1,sp                                   
ram:80002074    0400a0e1        mov         r0,r4                                   
ram:80002078    b030cde1        strh        r3,[sp,#0x0]=>local_40                  
ram:8000207c    08208de5        str         r2,[sp,#local_38+0x40]                  
ram:80002080    04808de5        str         r8,[sp,#local_3c+0x40]                  
ram:80002084    d41100eb        bl          FUN_800067dc                            ;undefined FUN_800067dc()
ram:80002088    2900a0e3        mov         r0,#0x29                                
ram:8000208c    0710a0e3        mov         r1,#0x7                                 
ram:80002090    b000cde1        strh        r0,[sp,#0x0]=>local_40                  
ram:80002094    04108de5        str         r1,[sp,#local_3c+0x40]                  
ram:80002098    0d10a0e1        mov         r1,sp                                   
ram:8000209c    0020a0e3        mov         r2,#0x0                                 
ram:800020a0    0400a0e1        mov         r0,r4                                   
ram:800020a4    08508de5        str         r5,[sp,#local_38+0x40]                  
ram:800020a8    cb1100eb        bl          FUN_800067dc                            ;undefined FUN_800067dc()
ram:800020ac    18009de5        ldr         r0,[sp,#local_28+0x40]                  
ram:800020b0    020110e3        tst         r0,#0x80000000                          
ram:800020b4    eaffff0a        beq         LAB_80002064                            
                            LAB_800020b8:                 ;XREF[2,0]:   80001ecc,80002060
ram:800020b8    90008fe2        adr         r0=>s_TYPE_SD_LOW..._80002150,0x80002150;= "TYPE_SD_LOW...\r\n"
ram:800020bc    006087e5        str         r6,[r7,#0x0]=>DAT_800079c8              
ram:800020c0    82ffffea        b           LAB_80001ed0                            
                            DAT_800020c4:                 ;XREF[1,0]:   80001b50
ram:800020c4    00f0c001        undefined4  01C0F000h                               
                            DAT_800020c8:                 ;XREF[1,0]:   80001b78
ram:800020c8    b408c201        undefined4  01C208B4h                               
                            DAT_800020cc:                 ;XREF[1,0]:   80001b88
ram:800020cc    4808c201        undefined4  01C20848h                               
                            DAT_800020d0:                 ;XREF[1,0]:   80001bd8
ram:800020d0    6000c201        undefined4  01C20060h                               
                            DAT_800020d4:                 ;XREF[1,0]:   80001c0c
ram:800020d4    801a0600        undefined4  00061A80h                               
                            DAT_800020d8:                 ;XREF[1,0]:   80001c4c
ram:800020d8    88130000        undefined4  00001388h                               
                            DAT_800020dc:                 ;XREF[1,0]:   80001d54
ram:800020dc    55010000        undefined4  00000155h                               
                            PTR_DAT_800020e0:             ;XREF[1,0]:   80001d7c
ram:800020e0    c8790080        addr        DAT_800079c8                            
                            s_SD1.1..._800020e4:          ;XREF[1,0]:   80001d8c
ram:800020e4    5344312e3...    ds          "SD1.1...\r\n"                          
ram:800020ef    00              ??          00h                                     
                            s_Init_Error_!!_800020f0:     ;XREF[1,0]:   80001dec
ram:800020f0    496e69742...    ds          "Init Error !!\n"                       
                            s_SD2.0..._80002100:          ;XREF[1,0]:   80001e08
ram:80002100    5344322e3...    ds          "SD2.0...\r\n"                          
ram:8000210b    00              ??          00h                                     
                            DAT_8000210c:                 ;XREF[1,0]:   80001e3c
ram:8000210c    00              ??          00h                                     
ram:8000210d    80              ??          80h                                     
ram:8000210e    ff              ??          FFh                                     
ram:8000210f    405459504...    ds          "@TYPE_SD_HIGH...\r\n"                  
                            DAT_80002124:                 ;XREF[1,0]:   80001f00
ram:80002124    70104480        undefined4  80441070h                               
                            DAT_80002128:                 ;XREF[1,0]:   80001f98
ram:80002128    0080ff80        undefined4  80FF8000h                               
                            s_TYPE_MMC..._8000212c:       ;XREF[1,0]:   80001ed0
ram:8000212c    545950455...    ds          "TYPE_MMC...\r\n"                       
                            s_ERR_DEVICE..._8000213c:     ;XREF[1,0]:   80002014
ram:8000213c    4552525f4...    ds          "ERR_DEVICE...\r\n"                     
                            DAT_8000214c:                 ;XREF[1,0]:   80002030
ram:8000214c    0080ff00        undefined4  00FF8000h                               
                            s_TYPE_SD_LOW..._80002150:    ;XREF[1,0]:   800020b8
ram:80002150    545950455...    ds          "TYPE_SD_LOW...\r\n"                    
                            LAB_80002164:                 ;XREF[1,0]:   80001f3c
ram:80002164    01c8a0e3        mov         r12,#0x10000                            
ram:80002168    0730a0e3        mov         r3,#0x7                                 
ram:8000216c    b050cde1        strh        r5,[sp,#0x0]=>local_40                  
ram:80002170    04308de5        str         r3,[sp,#local_3c+0x40]                  
ram:80002174    08c08de5        str         r12,[sp,#local_38+0x40]                 
ram:80002178    971100eb        bl          FUN_800067dc                            ;undefined FUN_800067dc()
ram:8000217c    000050e3        cmp         r0,#0x0                                 
ram:80002180    0108a003        moveq       r0,#0x10000                             
ram:80002184    76ffff1a        bne         LAB_80001f64                            
                            LAB_80002188:                 ;XREF[1,0]:   80001f60
ram:80002188    040087e5        str         r0,[r7,#0x4]=>DAT_800079cc              
                            LAB_8000218c:                 ;XREF[1,0]:   80001edc
ram:8000218c    28209fe5        ldr         r2,[DAT_800021bc]                       ;= 80441000h
ram:80002190    0d10a0e1        mov         r1,sp                                   
ram:80002194    0400a0e1        mov         r0,r4                                   
ram:80002198    3efdffeb        bl          FUN_80001698                            ;undefined FUN_80001698()
ram:8000219c    0120a0e3        mov         r2,#0x1                                 
ram:800021a0    0d10a0e1        mov         r1,sp                                   
ram:800021a4    0400a0e1        mov         r0,r4                                   
ram:800021a8    260300eb        bl          FUN_80002e48                            ;undefined FUN_80002e48()
ram:800021ac    1cd08de2        add         sp,sp,#0x1c                             
ram:800021b0    f001bde8        ldmia       sp!,{r4 r5 r6 r7 r8}=>local_24          
ram:800021b4    0000a0e3        mov         r0,#0x0                                 
ram:800021b8    008ebde8        ldmia       sp!,{r9 r10 r11 pc}                     
                            DAT_800021bc:                 ;XREF[1,0]:   8000218c
ram:800021bc    00104480        undefined4  80441000h                               
                            ;************************************************************************************************
                            ;*                                           FUNCTION                                           *
                            ;************************************************************************************************
                            ;undefined FUN_800021c0()
          ;local_1c      undefined4         -1c                      ;XREF[3,0]:   8000220c,80002238,80002250
          ;local_48      undefined4         -48                      ;XREF[1,0]:   80002298
          ;local_4c      undefined4         -4c                      ;XREF[1,0]:   8000229c
          ;local_50      undefined2         -50                      ;XREF[1,0]:   80002280
                                                          ;XREF[2,0]:   80003fd0,80004020
ram:800021c0    c0432de9        stmdb       sp!,{r6 r7 r8 r9 lr}                    
ram:800021c4    30002de9        stmdb       sp!,{r4 r5}                             
ram:800021c8    5c919fe5        ldr         r9,[PTR_DAT_8000232c]                   ;= 800079c8
ram:800021cc    0250a0e1        mov         r5,r2                                   
ram:800021d0    0040a0e1        mov         r4,r0                                   
ram:800021d4    0c2099e5        ldr         r2,[r9,#0xc]=>DAT_800079d4              
ram:800021d8    0380a0e1        mov         r8,r3                                   
ram:800021dc    050081e0        add         r0,r1,r5                                
ram:800021e0    013040e2        sub         r3,r0,#0x1                              
ram:800021e4    020053e1        cmp         r3,r2                                   
ram:800021e8    34d04de2        sub         sp,sp,#0x34                             
ram:800021ec    0900009a        bls         LAB_80002218                            
ram:800021f0    38019fe5        ldr         r0=>s_ERROR:_Fai...,[PTR_s_ERROR:_Fai...;= "ERROR: Fail to access invalid sec...
                                                                                    ;= 800077ac
ram:800021f4    0310a0e1        mov         r1,r3                                   
ram:800021f8    971300eb        bl          FUN_8000705c                            ;undefined FUN_8000705c()
ram:800021fc    30019fe5        ldr         r0=>s__The_max_v...,[PTR_s__The_max_v...;= "       The max valid sector numbe...
                                                                                    ;= 80005290
ram:80002200    0c1099e5        ldr         r1,[r9,#0xc]=>DAT_800079d4              
ram:80002204    941300eb        bl          FUN_8000705c                            ;undefined FUN_8000705c()
ram:80002208    34d08de2        add         sp,sp,#0x34                             
ram:8000220c    f001bde8        ldmia       sp!,{r4 r5 r6 r7 r8}=>local_1c          
ram:80002210    20019fe5        ldr         r0,[DAT_80002338]                       ;= FFFCA9A3h
ram:80002214    0082bde8        ldmia       sp!,{r9 pc}                             
                            LAB_80002218:                 ;XREF[1,0]:   800021ec
ram:80002218    000058e3        cmp         r8,#0x0                                 
ram:8000221c    0800000a        beq         LAB_80002244                            
ram:80002220    030018e3        tst         r8,#0x3                                 
ram:80002224    0c00000a        beq         LAB_8000225c                            
ram:80002228    0810a0e1        mov         r1,r8                                   
ram:8000222c    420f8fe2        adr         r0=>s_SD_Read_Ad...,0x8000233c          ;= "SD_Read Addr Align Err[%08x] ...\...
ram:80002230    891300eb        bl          FUN_8000705c                            ;undefined FUN_8000705c()
ram:80002234    34d08de2        add         sp,sp,#0x34                             
ram:80002238    f001bde8        ldmia       sp!,{r4 r5 r6 r7 r8}=>local_1c          
ram:8000223c    1c019fe5        ldr         r0,[DAT_80002360]                       ;= FFF8C2EFh
ram:80002240    0082bde8        ldmia       sp!,{r9 pc}                             
                            LAB_80002244:                 ;XREF[1,0]:   8000221c
ram:80002244    460f8fe2        adr         r0=>s_ERROR:_fmi...,0x80002364          ;= "ERROR: fmiSD_Read_in(): uBufcnt c...
ram:80002248    831300eb        bl          FUN_8000705c                            ;undefined FUN_8000705c()
ram:8000224c    34d08de2        add         sp,sp,#0x34                             
ram:80002250    f001bde8        ldmia       sp!,{r4 r5 r6 r7 r8}=>local_1c          
ram:80002254    38019fe5        ldr         r0,[DAT_80002394]                       ;= FFF4A025h
ram:80002258    0082bde8        ldmia       sp!,{r9 pc}                             
                            LAB_8000225c:                 ;XREF[1,0]:   80002224
ram:8000225c    000099e5        ldr         r0,[r9,#0x0]=>DAT_800079c8              
ram:80002260    049099e5        ldr         r9,[r9,#0x4]=>DAT_800079cc              
ram:80002264    010050e3        cmp         r0,#0x1                                 
ram:80002268    8164a011        movne       r6,r1, lsl #0x9                         
ram:8000226c    0160a001        moveq       r6,r1                                   
ram:80002270    010055e3        cmp         r5,#0x1                                 
ram:80002274    0720a0e3        mov         r2,#0x7                                 
ram:80002278    0030a0e3        mov         r3,#0x0                                 
ram:8000227c    0dc0a0e3        mov         r12,#0xd                                
ram:80002280    b020cde1        strh        r2,[sp,#0x0]=>local_50                  
ram:80002284    1170a003        moveq       r7,#0x11                                
ram:80002288    1270a013        movne       r7,#0x12                                
ram:8000228c    0d10a0e1        mov         r1,sp                                   
ram:80002290    0400a0e1        mov         r0,r4                                   
ram:80002294    0320a0e1        mov         r2,r3                                   
ram:80002298    08908de5        str         r9,[sp,#local_48+0x50]                  
ram:8000229c    04c08de5        str         r12,[sp,#local_4c+0x50]                 
ram:800022a0    4d1100eb        bl          FUN_800067dc                            ;undefined FUN_800067dc()
ram:800022a4    000050e3        cmp         r0,#0x0                                 
ram:800022a8    34d08d12        addne       sp,sp,#0x34                             
ram:800022ac    f001bd18        ldmiane     sp!,{r4 r5 r6 r7 r8}                    
ram:800022b0    0082bd18        ldmiane     sp!,{r9 pc}                             
ram:800022b4    020ca0e3        mov         r0,#0x200                               
ram:800022b8    0110a0e3        mov         r1,#0x1                                 
ram:800022bc    2c008de5        str         r0,[sp,#0x2c]                           
ram:800022c0    0d30a0e3        mov         r3,#0xd                                 
ram:800022c4    24108de5        str         r1,[sp,#0x24]                           
ram:800022c8    28508de5        str         r5,[sp,#0x28]                           
ram:800022cc    0d10a0e1        mov         r1,sp                                   
ram:800022d0    20208de2        add         r2,sp,#0x20                             
ram:800022d4    0400a0e1        mov         r0,r4                                   
ram:800022d8    20808de5        str         r8,[sp,#0x20]                           
ram:800022dc    b070cde1        strh        r7,[sp,#0x0]                            
ram:800022e0    04308de5        str         r3,[sp,#0x4]                            
ram:800022e4    08608de5        str         r6,[sp,#0x8]                            
ram:800022e8    3b1100eb        bl          FUN_800067dc                            ;undefined FUN_800067dc()
ram:800022ec    000050e3        cmp         r0,#0x0                                 
ram:800022f0    34d08d12        addne       sp,sp,#0x34                             
ram:800022f4    f001bd18        ldmiane     sp!,{r4 r5 r6 r7 r8}                    
ram:800022f8    0082bd18        ldmiane     sp!,{r9 pc}                             
ram:800022fc    0020a0e3        mov         r2,#0x0                                 
ram:80002300    07c0a0e3        mov         r12,#0x7                                
ram:80002304    0d10a0e1        mov         r1,sp                                   
ram:80002308    0400a0e1        mov         r0,r4                                   
ram:8000230c    b0c0cde1        strh        r12,[sp,#0x0]                           
ram:80002310    08208de5        str         r2,[sp,#0x8]                            
ram:80002314    04208de5        str         r2,[sp,#0x4]                            
ram:80002318    2f1100eb        bl          FUN_800067dc                            ;undefined FUN_800067dc()
ram:8000231c    34d08de2        add         sp,sp,#0x34                             
ram:80002320    f001bde8        ldmia       sp!,{r4 r5 r6 r7 r8}                    
ram:80002324    0000a0e3        mov         r0,#0x0                                 
ram:80002328    0082bde8        ldmia       sp!,{r9 pc}                             
                            PTR_DAT_8000232c:             ;XREF[1,0]:   800021c8
ram:8000232c    c8790080        addr        DAT_800079c8                            
                            PTR_s_ERROR:_Fail_to_access...;XREF[1,0]:   800021f0
ram:80002330    ac770080        addr        s_ERROR:_Fail_to_access_invalid_se_80...;= "ERROR: Fail to access invalid sec...
                            PTR_s__The_max_valid_sector...;XREF[1,0]:   800021fc
ram:80002334    90520080        addr        s__The_max_valid_sector_number_for_80...;= "       The max valid sector numbe...
                            DAT_80002338:                 ;XREF[1,0]:   80002210
ram:80002338    a3a9fcff        undefined4  FFFCA9A3h                               
                            s_SD_Read_Addr_Align_Err[%0...;XREF[1,0]:   8000222c
ram:8000233c    53445f526...    ds          "SD_Read Addr Align Err[%08x] ...\r\n"  
                            DAT_80002360:                 ;XREF[1,0]:   8000223c
ram:80002360    efc2f8ff        undefined4  FFF8C2EFh                               
                            s_ERROR:_fmiSD_Read_in():_u...;XREF[1,0]:   80002244
ram:80002364    4552524f5...    ds          "ERROR: fmiSD_Read_in(): uBufcnt cann...
                            DAT_80002394:                 ;XREF[1,0]:   80002254
ram:80002394    25a0f4ff        undefined4  FFF4A025h                               
                            ;************************************************************************************************
                            ;*                                           FUNCTION                                           *
                            ;************************************************************************************************
                            ;undefined FUN_80002398()
          ;local_1c      undefined4         -1c                      ;XREF[3,0]:   800023e4,8000240c,80002424
          ;local_48      undefined4         -48                      ;XREF[1,0]:   8000246c
          ;local_4c      undefined4         -4c                      ;XREF[1,0]:   80002470
          ;local_50      undefined2         -50                      ;XREF[1,0]:   80002454
                                                          ;XREF[2,0]:   800040b8,800040f0
ram:80002398    c0432de9        stmdb       sp!,{r6 r7 r8 r9 lr}                    
ram:8000239c    30002de9        stmdb       sp!,{r4 r5}                             
ram:800023a0    58819fe5        ldr         r8,[PTR_DAT_80002500]                   ;= 800079c8
ram:800023a4    0250a0e1        mov         r5,r2                                   
ram:800023a8    0040a0e1        mov         r4,r0                                   
ram:800023ac    0c2098e5        ldr         r2,[r8,#0xc]=>DAT_800079d4              
ram:800023b0    0390a0e1        mov         r9,r3                                   
ram:800023b4    050081e0        add         r0,r1,r5                                
ram:800023b8    013040e2        sub         r3,r0,#0x1                              
ram:800023bc    020053e1        cmp         r3,r2                                   
ram:800023c0    34d04de2        sub         sp,sp,#0x34                             
ram:800023c4    0900009a        bls         LAB_800023f0                            
ram:800023c8    34019fe5        ldr         r0=>s_ERROR:_Fai...,[PTR_s_ERROR:_Fai...;= "ERROR: Fail to access invalid sec...
                                                                                    ;= 800077ac
ram:800023cc    0310a0e1        mov         r1,r3                                   
ram:800023d0    211300eb        bl          FUN_8000705c                            ;undefined FUN_8000705c()
ram:800023d4    2c019fe5        ldr         r0=>s__The_max_v...,[PTR_s__The_max_v...;= "       The max valid sector numbe...
                                                                                    ;= 80005290
ram:800023d8    0c1098e5        ldr         r1,[r8,#0xc]=>DAT_800079d4              
ram:800023dc    1e1300eb        bl          FUN_8000705c                            ;undefined FUN_8000705c()
ram:800023e0    34d08de2        add         sp,sp,#0x34                             
ram:800023e4    f001bde8        ldmia       sp!,{r4 r5 r6 r7 r8}=>local_1c          
ram:800023e8    1c019fe5        ldr         r0,[DAT_8000250c]                       ;= FFFCA9A3h
ram:800023ec    0082bde8        ldmia       sp!,{r9 pc}                             
                            LAB_800023f0:                 ;XREF[1,0]:   800023c4
ram:800023f0    000059e3        cmp         r9,#0x0                                 
ram:800023f4    0700000a        beq         LAB_80002418                            
ram:800023f8    030019e3        tst         r9,#0x3                                 
ram:800023fc    0b00000a        beq         LAB_80002430                            
ram:80002400    420f8fe2        adr         r0=>s_Addr_Align...,0x80002510          ;= "Addr Align Err ...\r\n"
ram:80002404    141300eb        bl          FUN_8000705c                            ;undefined FUN_8000705c()
ram:80002408    34d08de2        add         sp,sp,#0x34                             
ram:8000240c    f001bde8        ldmia       sp!,{r4 r5 r6 r7 r8}=>local_1c          
ram:80002410    10019fe5        ldr         r0,[DAT_80002528]                       ;= FFF8C2EFh
ram:80002414    0082bde8        ldmia       sp!,{r9 pc}                             
                            LAB_80002418:                 ;XREF[1,0]:   800023f4
ram:80002418    430f8fe2        adr         r0=>s_ERROR:_fmi...,0x8000252c          ;= "ERROR: fmiSD_Read_in(): uBufcnt c...
ram:8000241c    0e1300eb        bl          FUN_8000705c                            ;undefined FUN_8000705c()
ram:80002420    34d08de2        add         sp,sp,#0x34                             
ram:80002424    f001bde8        ldmia       sp!,{r4 r5 r6 r7 r8}=>local_1c          
ram:80002428    2c019fe5        ldr         r0,[DAT_8000255c]                       ;= FFF4A025h
ram:8000242c    0082bde8        ldmia       sp!,{r9 pc}                             
                            LAB_80002430:                 ;XREF[1,0]:   800023fc
ram:80002430    000098e5        ldr         r0,[r8,#0x0]=>DAT_800079c8              
ram:80002434    048098e5        ldr         r8,[r8,#0x4]=>DAT_800079cc              
ram:80002438    010050e3        cmp         r0,#0x1                                 
ram:8000243c    8164a011        movne       r6,r1, lsl #0x9                         
ram:80002440    0160a001        moveq       r6,r1                                   
ram:80002444    010055e3        cmp         r5,#0x1                                 
ram:80002448    0720a0e3        mov         r2,#0x7                                 
ram:8000244c    0030a0e3        mov         r3,#0x0                                 
ram:80002450    0dc0a0e3        mov         r12,#0xd                                
ram:80002454    b020cde1        strh        r2,[sp,#0x0]=>local_50                  
ram:80002458    1870a003        moveq       r7,#0x18                                
ram:8000245c    1970a013        movne       r7,#0x19                                
ram:80002460    0d10a0e1        mov         r1,sp                                   
ram:80002464    0400a0e1        mov         r0,r4                                   
ram:80002468    0320a0e1        mov         r2,r3                                   
ram:8000246c    08808de5        str         r8,[sp,#local_48+0x50]                  
ram:80002470    04c08de5        str         r12,[sp,#local_4c+0x50]                 
ram:80002474    d81000eb        bl          FUN_800067dc                            ;undefined FUN_800067dc()
ram:80002478    000050e3        cmp         r0,#0x0                                 
ram:8000247c    34d08d12        addne       sp,sp,#0x34                             
ram:80002480    f001bd18        ldmiane     sp!,{r4 r5 r6 r7 r8}                    
ram:80002484    0082bd18        ldmiane     sp!,{r9 pc}                             
ram:80002488    020ca0e3        mov         r0,#0x200                               
ram:8000248c    0210a0e3        mov         r1,#0x2                                 
ram:80002490    2c008de5        str         r0,[sp,#0x2c]                           
ram:80002494    0d30a0e3        mov         r3,#0xd                                 
ram:80002498    24108de5        str         r1,[sp,#0x24]                           
ram:8000249c    28508de5        str         r5,[sp,#0x28]                           
ram:800024a0    0d10a0e1        mov         r1,sp                                   
ram:800024a4    20208de2        add         r2,sp,#0x20                             
ram:800024a8    0400a0e1        mov         r0,r4                                   
ram:800024ac    20908de5        str         r9,[sp,#0x20]                           
ram:800024b0    b070cde1        strh        r7,[sp,#0x0]                            
ram:800024b4    04308de5        str         r3,[sp,#0x4]                            
ram:800024b8    08608de5        str         r6,[sp,#0x8]                            
ram:800024bc    c61000eb        bl          FUN_800067dc                            ;undefined FUN_800067dc()
ram:800024c0    000050e3        cmp         r0,#0x0                                 
ram:800024c4    34d08d12        addne       sp,sp,#0x34                             
ram:800024c8    f001bd18        ldmiane     sp!,{r4 r5 r6 r7 r8}                    
ram:800024cc    0082bd18        ldmiane     sp!,{r9 pc}                             
ram:800024d0    0020a0e3        mov         r2,#0x0                                 
ram:800024d4    07c0a0e3        mov         r12,#0x7                                
ram:800024d8    0d10a0e1        mov         r1,sp                                   
ram:800024dc    0400a0e1        mov         r0,r4                                   
ram:800024e0    b0c0cde1        strh        r12,[sp,#0x0]                           
ram:800024e4    08208de5        str         r2,[sp,#0x8]                            
ram:800024e8    04208de5        str         r2,[sp,#0x4]                            
ram:800024ec    ba1000eb        bl          FUN_800067dc                            ;undefined FUN_800067dc()
ram:800024f0    34d08de2        add         sp,sp,#0x34                             
ram:800024f4    f001bde8        ldmia       sp!,{r4 r5 r6 r7 r8}                    
ram:800024f8    0000a0e3        mov         r0,#0x0                                 
ram:800024fc    0082bde8        ldmia       sp!,{r9 pc}                             
                            PTR_DAT_80002500:             ;XREF[1,0]:   800023a0
ram:80002500    c8790080        addr        DAT_800079c8                            
                            PTR_s_ERROR:_Fail_to_access...;XREF[1,0]:   800023c8
ram:80002504    ac770080        addr        s_ERROR:_Fail_to_access_invalid_se_80...;= "ERROR: Fail to access invalid sec...
                            PTR_s__The_max_valid_sector...;XREF[1,0]:   800023d4
ram:80002508    90520080        addr        s__The_max_valid_sector_number_for_80...;= "       The max valid sector numbe...
                            DAT_8000250c:                 ;XREF[1,0]:   800023e8
ram:8000250c    a3a9fcff        undefined4  FFFCA9A3h                               
                            s_Addr_Align_Err_..._80002510:;XREF[1,0]:   80002400
ram:80002510    416464722...    ds          "Addr Align Err ...\r\n"                
                            DAT_80002528:                 ;XREF[1,0]:   80002410
ram:80002528    efc2f8ff        undefined4  FFF8C2EFh                               
                            s_ERROR:_fmiSD_Read_in():_u...;XREF[1,0]:   80002418
ram:8000252c    4552524f5...    ds          "ERROR: fmiSD_Read_in(): uBufcnt cann...
                            DAT_8000255c:                 ;XREF[1,0]:   80002428
ram:8000255c    25a0f4ff        undefined4  FFF4A025h                               
                            ;************************************************************************************************
                            ;*                                           FUNCTION                                           *
                            ;************************************************************************************************
                            ;undefined FUN_80002560()
          ;local_14      undefined4         -14                      ;XREF[1,0]:   8000276c
          ;local_28      undefined4         -28                      ;XREF[1,0]:   80002768
          ;local_30      undefined4         -30                      ;XREF[1,0]:   8000257c
ram:80002560    005e2de9        stmdb       sp!,{r9 r10 r11 r12 lr}                 
ram:80002564    f0012de9        stmdb       sp!,{r4 r5 r6 r7 r8}                    
ram:80002568    04829fe5        ldr         r8,[PTR_DAT_80002774]                   ;= 80007864
ram:8000256c    04629fe5        ldr         r6,[PTR_DAT_80002778]                   ;= 800079dc
ram:80002570    03002de9        stmdb       sp!,{r0 r1}                             
ram:80002574    01b0a0e1        mov         r11,r1                                  
ram:80002578    0070a0e3        mov         r7,#0x0                                 
                            LAB_8000257c:                 ;XREF[1,0]:   8000275c
ram:8000257c    00009de5        ldr         r0,[sp,#0x0]=>local_30                  
ram:80002580    0b10a0e1        mov         r1,r11                                  
ram:80002584    3d0100eb        bl          FUN_80002a80                            ;undefined FUN_80002a80()
ram:80002588    7d0fa0e3        mov         r0,#0x1f4                               
ram:8000258c    e1faffeb        bl          FUN_80001118                            ;undefined FUN_80001118()
ram:80002590    0050a0e3        mov         r5,#0x0                                 
                            LAB_80002594:                 ;XREF[1,0]:   80002744
ram:80002594    6400a0e3        mov         r0,#0x64                                
ram:80002598    defaffeb        bl          FUN_80001118                            ;undefined FUN_80001118()
ram:8000259c    d4419fe5        ldr         r4,[PTR_DAT_80002778]                   ;= 800079dc
ram:800025a0    6400a0e3        mov         r0,#0x64                                
ram:800025a4    d9fbffeb        bl          FUN_80001510                            ;undefined FUN_80001510()
ram:800025a8    6400a0e3        mov         r0,#0x64                                
ram:800025ac    d7fbffeb        bl          FUN_80001510                            ;undefined FUN_80001510()
ram:800025b0    1400a0e3        mov         r0,#0x14                                
ram:800025b4    d7faffeb        bl          FUN_80001118                            ;undefined FUN_80001118()
ram:800025b8    6600a0e3        mov         r0,#0x66                                
ram:800025bc    d3fbffeb        bl          FUN_80001510                            ;undefined FUN_80001510()
                            LAB_800025c0:                 ;XREF[1,0]:   800025d0
ram:800025c0    6700a0e3        mov         r0,#0x67                                
ram:800025c4    d1fbffeb        bl          FUN_80001510                            ;undefined FUN_80001510()
ram:800025c8    66fbffeb        bl          FUN_80001368                            ;undefined FUN_80001368()
ram:800025cc    010010e3        tst         r0,#0x1                                 
ram:800025d0    faffff0a        beq         LAB_800025c0                            
ram:800025d4    6800a0e3        mov         r0,#0x68                                
ram:800025d8    ccfbffeb        bl          FUN_80001510                            ;undefined FUN_80001510()
ram:800025dc    61fbffeb        bl          FUN_80001368                            ;undefined FUN_80001368()
ram:800025e0    0000c4e5        strb        r0,[r4,#0x0]=>DAT_800079dc              
ram:800025e4    6900a0e3        mov         r0,#0x69                                
ram:800025e8    c8fbffeb        bl          FUN_80001510                            ;undefined FUN_80001510()
ram:800025ec    5dfbffeb        bl          FUN_80001368                            ;undefined FUN_80001368()
ram:800025f0    0100c4e5        strb        r0,[r4,#0x1]=>DAT_800079dd              
ram:800025f4    6a00a0e3        mov         r0,#0x6a                                
ram:800025f8    c4fbffeb        bl          FUN_80001510                            ;undefined FUN_80001510()
ram:800025fc    59fbffeb        bl          FUN_80001368                            ;undefined FUN_80001368()
ram:80002600    0200c4e5        strb        r0,[r4,#0x2]=>DAT_800079de              
ram:80002604    6b00a0e3        mov         r0,#0x6b                                
ram:80002608    c0fbffeb        bl          FUN_80001510                            ;undefined FUN_80001510()
ram:8000260c    55fbffeb        bl          FUN_80001368                            ;undefined FUN_80001368()
ram:80002610    0300c4e5        strb        r0,[r4,#0x3]=>DAT_800079df              
ram:80002614    6c00a0e3        mov         r0,#0x6c                                
ram:80002618    bcfbffeb        bl          FUN_80001510                            ;undefined FUN_80001510()
ram:8000261c    51fbffeb        bl          FUN_80001368                            ;undefined FUN_80001368()
ram:80002620    0400c4e5        strb        r0,[r4,#0x4]=>DAT_800079e0              
ram:80002624    6d00a0e3        mov         r0,#0x6d                                
ram:80002628    b8fbffeb        bl          FUN_80001510                            ;undefined FUN_80001510()
ram:8000262c    4dfbffeb        bl          FUN_80001368                            ;undefined FUN_80001368()
ram:80002630    0500c4e5        strb        r0,[r4,#0x5]=>DAT_800079e1              
ram:80002634    6e00a0e3        mov         r0,#0x6e                                
ram:80002638    b4fbffeb        bl          FUN_80001510                            ;undefined FUN_80001510()
ram:8000263c    49fbffeb        bl          FUN_80001368                            ;undefined FUN_80001368()
ram:80002640    0600c4e5        strb        r0,[r4,#0x6]=>DAT_800079e2              
ram:80002644    4c0000eb        bl          FUN_8000277c                            ;undefined FUN_8000277c()
ram:80002648    0000d6e5        ldrb        r0,[r6,#0x0]=>DAT_800079dc              
ram:8000264c    0000c8e5        strb        r0,[r8,#0x0]=>DAT_80007864              ;= 01h
ram:80002650    0100d6e5        ldrb        r0,[r6,#0x1]=>DAT_800079dd              
ram:80002654    550050e3        cmp         r0,#0x55                                
ram:80002658    0640d605        ldrbeq      r4,[r6,#0x6]=>DAT_800079e2              
ram:8000265c    0900000a        beq         LAB_80002688                            
ram:80002660    0100d6e5        ldrb        r0,[r6,#0x1]=>DAT_800079dd              
ram:80002664    5a0050e3        cmp         r0,#0x5a                                
ram:80002668    2000000a        beq         LAB_800026f0                            
ram:8000266c    0100d6e5        ldrb        r0,[r6,#0x1]=>DAT_800079dd              
ram:80002670    a50050e3        cmp         r0,#0xa5                                
ram:80002674    2100000a        beq         LAB_80002700                            
ram:80002678    0100d6e5        ldrb        r0,[r6,#0x1]=>DAT_800079dd              
ram:8000267c    aa0050e3        cmp         r0,#0xaa                                
ram:80002680    0040a013        movne       r4,#0x0                                 
ram:80002684    2300000a        beq         LAB_80002718                            
                            LAB_80002688:                 ;XREF[4,0]:   8000265c,800026fc,80002714,80002734
ram:80002688    0110d6e5        ldrb        r1,[r6,#0x1]=>DAT_800079dd              
ram:8000268c    0100a0e3        mov         r0,#0x1                                 
ram:80002690    550051e3        cmp         r1,#0x55                                
ram:80002694    5a005113        cmpne       r1,#0x5a                                
ram:80002698    0200000a        beq         LAB_800026a8                            
ram:8000269c    a50051e3        cmp         r1,#0xa5                                
ram:800026a0    aa005113        cmpne       r1,#0xaa                                
ram:800026a4    0000a013        movne       r0,#0x0                                 
                            LAB_800026a8:                 ;XREF[1,0]:   80002698
ram:800026a8    0010d6e5        ldrb        r1,[r6,#0x0]=>DAT_800079dc              
ram:800026ac    0120d6e5        ldrb        r2,[r6,#0x1]=>DAT_800079dd              
ram:800026b0    0330d6e5        ldrb        r3,[r6,#0x3]=>DAT_800079df              
ram:800026b4    04c0d6e5        ldrb        r12,[r6,#0x4]=>DAT_800079e0             
ram:800026b8    0590d6e5        ldrb        r9,[r6,#0x5]=>DAT_800079e1              
ram:800026bc    06a0d6e5        ldrb        r10,[r6,#0x6]=>DAT_800079e2             
ram:800026c0    021081e0        add         r1,r1,r2                                
ram:800026c4    0220d6e5        ldrb        r2,[r6,#0x2]=>DAT_800079de              
ram:800026c8    0c3083e0        add         r3,r3,r12                               
ram:800026cc    031081e0        add         r1,r1,r3                                
ram:800026d0    091081e0        add         r1,r1,r9                                
ram:800026d4    0a1081e0        add         r1,r1,r10                               
ram:800026d8    ff1001e2        and         r1,r1,#0xff                             
ram:800026dc    020051e1        cmp         r1,r2                                   
ram:800026e0    1400001a        bne         LAB_80002738                            
ram:800026e4    000050e3        cmp         r0,#0x0                                 
ram:800026e8    1c00001a        bne         LAB_80002760                            
ram:800026ec    110000ea        b           LAB_80002738                            
                            LAB_800026f0:                 ;XREF[1,0]:   80002668
ram:800026f0    0500d6e5        ldrb        r0,[r6,#0x5]=>DAT_800079e1              
ram:800026f4    0610d6e5        ldrb        r1,[r6,#0x6]=>DAT_800079e2              
ram:800026f8    004481e1        orr         r4,r1,r0, lsl #0x8                      
ram:800026fc    e1ffffea        b           LAB_80002688                            
                            LAB_80002700:                 ;XREF[1,0]:   80002674
ram:80002700    0400d6e5        ldrb        r0,[r6,#0x4]=>DAT_800079e0              
ram:80002704    0510d6e5        ldrb        r1,[r6,#0x5]=>DAT_800079e1              
ram:80002708    0620d6e5        ldrb        r2,[r6,#0x6]=>DAT_800079e2              
ram:8000270c    000481e1        orr         r0,r1,r0, lsl #0x8                      
ram:80002710    004482e1        orr         r4,r2,r0, lsl #0x8                      
ram:80002714    dbffffea        b           LAB_80002688                            
                            LAB_80002718:                 ;XREF[1,0]:   80002684
ram:80002718    0300d6e5        ldrb        r0,[r6,#0x3]=>DAT_800079df              
ram:8000271c    0420d6e5        ldrb        r2,[r6,#0x4]=>DAT_800079e0              
ram:80002720    0510d6e5        ldrb        r1,[r6,#0x5]=>DAT_800079e1              
ram:80002724    0630d6e5        ldrb        r3,[r6,#0x6]=>DAT_800079e2              
ram:80002728    000482e1        orr         r0,r2,r0, lsl #0x8                      
ram:8000272c    000481e1        orr         r0,r1,r0, lsl #0x8                      
ram:80002730    004483e1        orr         r4,r3,r0, lsl #0x8                      
ram:80002734    d3ffffea        b           LAB_80002688                            
                            LAB_80002738:                 ;XREF[2,0]:   800026e0,800026ec
ram:80002738    010085e2        add         r0,r5,#0x1                              
ram:8000273c    ff5000e2        and         r5,r0,#0xff                             
ram:80002740    320055e3        cmp         r5,#0x32                                
ram:80002744    92ffff3a        bcc         LAB_80002594                            
ram:80002748    0a00a0e3        mov         r0,#0xa                                 
ram:8000274c    71faffeb        bl          FUN_80001118                            ;undefined FUN_80001118()
ram:80002750    010087e2        add         r0,r7,#0x1                              
ram:80002754    ff7000e2        and         r7,r0,#0xff                             
ram:80002758    060057e3        cmp         r7,#0x6                                 
ram:8000275c    86ffff3a        bcc         LAB_8000257c                            
                            LAB_80002760:                 ;XREF[1,0]:   800026e8
ram:80002760    0400a0e1        mov         r0,r4                                   
ram:80002764    08d08de2        add         sp,sp,#0x8                              
ram:80002768    f001bde8        ldmia       sp!,{r4 r5 r6 r7 r8}=>local_28          
ram:8000276c    001ebde8        ldmia       sp!,{r9 r10 r11 r12}=>local_14          
ram:80002770    04f09de4        ldr         pc,[sp],#0x4                            
                            PTR_DAT_80002774:             ;XREF[1,0]:   80002568
ram:80002774    64780080        addr        DAT_80007864                            ;= 01h
                            PTR_DAT_80002778:             ;XREF[2,0]:   8000256c,8000259c
ram:80002778    dc790080        addr        DAT_800079dc                            
                            ;************************************************************************************************
                            ;*                                           FUNCTION                                           *
                            ;************************************************************************************************
                            ;undefined FUN_8000277c()
          ;local_c       undefined4          -c                      ;XREF[1,0]:   800028d8
          ;local_20      undefined4         -20                      ;XREF[1,0]:   800028d4
                                                          ;XREF[1,0]:   80002644
ram:8000277c    800f2de9        stmdb       sp!,{r7 r8 r9 r10 r11}                  
ram:80002780    70002de9        stmdb       sp!,{r4 r5 r6}                          
ram:80002784    54219fe5        ldr         r2,[PTR_DAT_800028e0]                   ;= 800079dc
ram:80002788    8030a0e3        mov         r3,#0x80                                
ram:8000278c    0010d2e5        ldrb        r1,[r2,#0x0]=>DAT_800079dc              
ram:80002790    40c0a0e3        mov         r12,#0x40                               
ram:80002794    0100a0e3        mov         r0,#0x1                                 
ram:80002798    2040a0e3        mov         r4,#0x20                                
ram:8000279c    0080d2e5        ldrb        r8,[r2,#0x0]=>DAT_800079dc              
ram:800027a0    0110e0e1        mvn         r1,r1                                   
ram:800027a4    1050a0e3        mov         r5,#0x10                                
ram:800027a8    0890e0e1        mvn         r9,r8                                   
ram:800027ac    0860a0e3        mov         r6,#0x8                                 
ram:800027b0    0470a0e3        mov         r7,#0x4                                 
ram:800027b4    ff1001e2        and         r1,r1,#0xff                             
ram:800027b8    0280a0e3        mov         r8,#0x2                                 
ram:800027bc    0090c2e5        strb        r9,[r2,#0x0]=>DAT_800079dc              
ram:800027c0    0090a0e1        mov         r9,r0                                   
                            LAB_800027c4:                 ;XREF[1,0]:   800028d0
ram:800027c4    800011e3        tst         r1,#0x80                                
ram:800027c8    0500000a        beq         LAB_800027e4                            
ram:800027cc    00a0d2e7        ldrb        r10,[r2,r0]=>DAT_800079dd               
ram:800027d0    00b0d2e7        ldrb        r11,[r2,r0]=>DAT_800079dd               
ram:800027d4    0aa0c3e1        bic         r10,r3,r10                              
ram:800027d8    7fb00be2        and         r11,r11,#0x7f                           
ram:800027dc    0ba08ae1        orr         r10,r10,r11                             
ram:800027e0    00a0c2e7        strb        r10,[r2,r0]=>DAT_800079dd               
                            LAB_800027e4:                 ;XREF[1,0]:   800027c8
ram:800027e4    400011e3        tst         r1,#0x40                                
ram:800027e8    0500000a        beq         LAB_80002804                            
ram:800027ec    00a0d2e7        ldrb        r10,[r2,r0]=>DAT_800079dd               
ram:800027f0    00b0d2e7        ldrb        r11,[r2,r0]=>DAT_800079dd               
ram:800027f4    0aa0cce1        bic         r10,r12,r10                             
ram:800027f8    bfb00be2        and         r11,r11,#0xbf                           
ram:800027fc    0ba08ae1        orr         r10,r10,r11                             
ram:80002800    00a0c2e7        strb        r10,[r2,r0]=>DAT_800079dd               
                            LAB_80002804:                 ;XREF[1,0]:   800027e8
ram:80002804    200011e3        tst         r1,#0x20                                
ram:80002808    0500000a        beq         LAB_80002824                            
ram:8000280c    00a0d2e7        ldrb        r10,[r2,r0]=>DAT_800079dd               
ram:80002810    00b0d2e7        ldrb        r11,[r2,r0]=>DAT_800079dd               
ram:80002814    0aa0c4e1        bic         r10,r4,r10                              
ram:80002818    dfb00be2        and         r11,r11,#0xdf                           
ram:8000281c    0ba08ae1        orr         r10,r10,r11                             
ram:80002820    00a0c2e7        strb        r10,[r2,r0]=>DAT_800079dd               
                            LAB_80002824:                 ;XREF[1,0]:   80002808
ram:80002824    100011e3        tst         r1,#0x10                                
ram:80002828    0500000a        beq         LAB_80002844                            
ram:8000282c    00a0d2e7        ldrb        r10,[r2,r0]=>DAT_800079dd               
ram:80002830    00b0d2e7        ldrb        r11,[r2,r0]=>DAT_800079dd               
ram:80002834    0aa0c5e1        bic         r10,r5,r10                              
ram:80002838    efb00be2        and         r11,r11,#0xef                           
ram:8000283c    0ba08ae1        orr         r10,r10,r11                             
ram:80002840    00a0c2e7        strb        r10,[r2,r0]=>DAT_800079dd               
                            LAB_80002844:                 ;XREF[1,0]:   80002828
ram:80002844    080011e3        tst         r1,#0x8                                 
ram:80002848    0500000a        beq         LAB_80002864                            
ram:8000284c    00a0d2e7        ldrb        r10,[r2,r0]=>DAT_800079dd               
ram:80002850    00b0d2e7        ldrb        r11,[r2,r0]=>DAT_800079dd               
ram:80002854    0aa0c6e1        bic         r10,r6,r10                              
ram:80002858    f7b00be2        and         r11,r11,#0xf7                           
ram:8000285c    0ba08ae1        orr         r10,r10,r11                             
ram:80002860    00a0c2e7        strb        r10,[r2,r0]=>DAT_800079dd               
                            LAB_80002864:                 ;XREF[1,0]:   80002848
ram:80002864    040011e3        tst         r1,#0x4                                 
ram:80002868    0500000a        beq         LAB_80002884                            
ram:8000286c    00a0d2e7        ldrb        r10,[r2,r0]=>DAT_800079dd               
ram:80002870    00b0d2e7        ldrb        r11,[r2,r0]=>DAT_800079dd               
ram:80002874    0aa0c7e1        bic         r10,r7,r10                              
ram:80002878    fbb00be2        and         r11,r11,#0xfb                           
ram:8000287c    0ba08ae1        orr         r10,r10,r11                             
ram:80002880    00a0c2e7        strb        r10,[r2,r0]=>DAT_800079dd               
                            LAB_80002884:                 ;XREF[1,0]:   80002868
ram:80002884    020011e3        tst         r1,#0x2                                 
ram:80002888    0500000a        beq         LAB_800028a4                            
ram:8000288c    00a0d2e7        ldrb        r10,[r2,r0]=>DAT_800079dd               
ram:80002890    00b0d2e7        ldrb        r11,[r2,r0]=>DAT_800079dd               
ram:80002894    0aa0c8e1        bic         r10,r8,r10                              
ram:80002898    fdb00be2        and         r11,r11,#0xfd                           
ram:8000289c    0ba08ae1        orr         r10,r10,r11                             
ram:800028a0    00a0c2e7        strb        r10,[r2,r0]=>DAT_800079dd               
                            LAB_800028a4:                 ;XREF[1,0]:   80002888
ram:800028a4    010011e3        tst         r1,#0x1                                 
ram:800028a8    0500000a        beq         LAB_800028c4                            
ram:800028ac    00a0d2e7        ldrb        r10,[r2,r0]=>DAT_800079dd               
ram:800028b0    00b0d2e7        ldrb        r11,[r2,r0]=>DAT_800079dd               
ram:800028b4    0aa0c9e1        bic         r10,r9,r10                              
ram:800028b8    feb00be2        and         r11,r11,#0xfe                           
ram:800028bc    0ba08ae1        orr         r10,r10,r11                             
ram:800028c0    00a0c2e7        strb        r10,[r2,r0]=>DAT_800079dd               
                            LAB_800028c4:                 ;XREF[1,0]:   800028a8
ram:800028c4    010080e2        add         r0,r0,#0x1                              
ram:800028c8    ff0000e2        and         r0,r0,#0xff                             
ram:800028cc    070050e3        cmp         r0,#0x7                                 
ram:800028d0    bbffff3a        bcc         LAB_800027c4                            
ram:800028d4    f001bde8        ldmia       sp!,{r4 r5 r6 r7 r8}=>local_20          
ram:800028d8    000ebde8        ldmia       sp!,{r9 r10 r11}=>local_c               
ram:800028dc    1eff2fe1        bx          lr                                      
                            PTR_DAT_800028e0:             ;XREF[1,0]:   80002784
ram:800028e0    dc790080        addr        DAT_800079dc                            
                            ;************************************************************************************************
                            ;*                                           FUNCTION                                           *
                            ;************************************************************************************************
                            ;undefined FUN_800028e4()
          ;local_c       undefined4          -c                      ;XREF[1,0]:   80002a74
          ;local_20      undefined4         -20                      ;XREF[1,0]:   80002a70
                                                          ;XREF[1,0]:   80002b44
ram:800028e4    800f2de9        stmdb       sp!,{r7 r8 r9 r10 r11}                  
ram:800028e8    70002de9        stmdb       sp!,{r4 r5 r6}                          
ram:800028ec    88219fe5        ldr         r2,[PTR_DAT_80002a7c]                   ;= 800079dc
ram:800028f0    8030a0e3        mov         r3,#0x80                                
ram:800028f4    0010d2e5        ldrb        r1,[r2,#0x0]=>DAT_800079dc              
ram:800028f8    40c0a0e3        mov         r12,#0x40                               
ram:800028fc    0100a0e3        mov         r0,#0x1                                 
ram:80002900    2040a0e3        mov         r4,#0x20                                
ram:80002904    1050a0e3        mov         r5,#0x10                                
ram:80002908    0860a0e3        mov         r6,#0x8                                 
ram:8000290c    0470a0e3        mov         r7,#0x4                                 
ram:80002910    0280a0e3        mov         r8,#0x2                                 
ram:80002914    0090a0e1        mov         r9,r0                                   
                            LAB_80002918:                 ;XREF[1,0]:   80002a24
ram:80002918    800011e3        tst         r1,#0x80                                
ram:8000291c    0500000a        beq         LAB_80002938                            
ram:80002920    00a0d2e7        ldrb        r10,[r2,r0]=>DAT_800079dd               
ram:80002924    00b0d2e7        ldrb        r11,[r2,r0]=>DAT_800079dd               
ram:80002928    0aa0c3e1        bic         r10,r3,r10                              
ram:8000292c    7fb00be2        and         r11,r11,#0x7f                           
ram:80002930    0ba08ae1        orr         r10,r10,r11                             
ram:80002934    00a0c2e7        strb        r10,[r2,r0]=>DAT_800079dd               
                            LAB_80002938:                 ;XREF[1,0]:   8000291c
ram:80002938    400011e3        tst         r1,#0x40                                
ram:8000293c    0500000a        beq         LAB_80002958                            
ram:80002940    00a0d2e7        ldrb        r10,[r2,r0]=>DAT_800079dd               
ram:80002944    00b0d2e7        ldrb        r11,[r2,r0]=>DAT_800079dd               
ram:80002948    0aa0cce1        bic         r10,r12,r10                             
ram:8000294c    bfb00be2        and         r11,r11,#0xbf                           
ram:80002950    0ba08ae1        orr         r10,r10,r11                             
ram:80002954    00a0c2e7        strb        r10,[r2,r0]=>DAT_800079dd               
                            LAB_80002958:                 ;XREF[1,0]:   8000293c
ram:80002958    200011e3        tst         r1,#0x20                                
ram:8000295c    0500000a        beq         LAB_80002978                            
ram:80002960    00a0d2e7        ldrb        r10,[r2,r0]=>DAT_800079dd               
ram:80002964    00b0d2e7        ldrb        r11,[r2,r0]=>DAT_800079dd               
ram:80002968    0aa0c4e1        bic         r10,r4,r10                              
ram:8000296c    dfb00be2        and         r11,r11,#0xdf                           
ram:80002970    0ba08ae1        orr         r10,r10,r11                             
ram:80002974    00a0c2e7        strb        r10,[r2,r0]=>DAT_800079dd               
                            LAB_80002978:                 ;XREF[1,0]:   8000295c
ram:80002978    100011e3        tst         r1,#0x10                                
ram:8000297c    0500000a        beq         LAB_80002998                            
ram:80002980    00a0d2e7        ldrb        r10,[r2,r0]=>DAT_800079dd               
ram:80002984    00b0d2e7        ldrb        r11,[r2,r0]=>DAT_800079dd               
ram:80002988    0aa0c5e1        bic         r10,r5,r10                              
ram:8000298c    efb00be2        and         r11,r11,#0xef                           
ram:80002990    0ba08ae1        orr         r10,r10,r11                             
ram:80002994    00a0c2e7        strb        r10,[r2,r0]=>DAT_800079dd               
                            LAB_80002998:                 ;XREF[1,0]:   8000297c
ram:80002998    080011e3        tst         r1,#0x8                                 
ram:8000299c    0500000a        beq         LAB_800029b8                            
ram:800029a0    00a0d2e7        ldrb        r10,[r2,r0]=>DAT_800079dd               
ram:800029a4    00b0d2e7        ldrb        r11,[r2,r0]=>DAT_800079dd               
ram:800029a8    0aa0c6e1        bic         r10,r6,r10                              
ram:800029ac    f7b00be2        and         r11,r11,#0xf7                           
ram:800029b0    0ba08ae1        orr         r10,r10,r11                             
ram:800029b4    00a0c2e7        strb        r10,[r2,r0]=>DAT_800079dd               
                            LAB_800029b8:                 ;XREF[1,0]:   8000299c
ram:800029b8    040011e3        tst         r1,#0x4                                 
ram:800029bc    0500000a        beq         LAB_800029d8                            
ram:800029c0    00a0d2e7        ldrb        r10,[r2,r0]=>DAT_800079dd               
ram:800029c4    00b0d2e7        ldrb        r11,[r2,r0]=>DAT_800079dd               
ram:800029c8    0aa0c7e1        bic         r10,r7,r10                              
ram:800029cc    fbb00be2        and         r11,r11,#0xfb                           
ram:800029d0    0ba08ae1        orr         r10,r10,r11                             
ram:800029d4    00a0c2e7        strb        r10,[r2,r0]=>DAT_800079dd               
                            LAB_800029d8:                 ;XREF[1,0]:   800029bc
ram:800029d8    020011e3        tst         r1,#0x2                                 
ram:800029dc    0500000a        beq         LAB_800029f8                            
ram:800029e0    00a0d2e7        ldrb        r10,[r2,r0]=>DAT_800079dd               
ram:800029e4    00b0d2e7        ldrb        r11,[r2,r0]=>DAT_800079dd               
ram:800029e8    0aa0c8e1        bic         r10,r8,r10                              
ram:800029ec    fdb00be2        and         r11,r11,#0xfd                           
ram:800029f0    0ba08ae1        orr         r10,r10,r11                             
ram:800029f4    00a0c2e7        strb        r10,[r2,r0]=>DAT_800079dd               
                            LAB_800029f8:                 ;XREF[1,0]:   800029dc
ram:800029f8    010011e3        tst         r1,#0x1                                 
ram:800029fc    0500000a        beq         LAB_80002a18                            
ram:80002a00    00a0d2e7        ldrb        r10,[r2,r0]=>DAT_800079dd               
ram:80002a04    00b0d2e7        ldrb        r11,[r2,r0]=>DAT_800079dd               
ram:80002a08    0aa0c9e1        bic         r10,r9,r10                              
ram:80002a0c    feb00be2        and         r11,r11,#0xfe                           
ram:80002a10    0ba08ae1        orr         r10,r10,r11                             
ram:80002a14    00a0c2e7        strb        r10,[r2,r0]=>DAT_800079dd               
                            LAB_80002a18:                 ;XREF[1,0]:   800029fc
ram:80002a18    010080e2        add         r0,r0,#0x1                              
ram:80002a1c    ff0000e2        and         r0,r0,#0xff                             
ram:80002a20    070050e3        cmp         r0,#0x7                                 
ram:80002a24    bbffff3a        bcc         LAB_80002918                            
ram:80002a28    040011e3        tst         r1,#0x4                                 
ram:80002a2c    0000a0e3        mov         r0,#0x0                                 
ram:80002a30    8000a013        movne       r0,#0x80                                
ram:80002a34    100011e3        tst         r1,#0x10                                
ram:80002a38    40008013        orrne       r0,r0,#0x40                             
ram:80002a3c    010011e3        tst         r1,#0x1                                 
ram:80002a40    20008013        orrne       r0,r0,#0x20                             
ram:80002a44    400011e3        tst         r1,#0x40                                
ram:80002a48    10008013        orrne       r0,r0,#0x10                             
ram:80002a4c    020011e3        tst         r1,#0x2                                 
ram:80002a50    08008013        orrne       r0,r0,#0x8                              
ram:80002a54    800011e3        tst         r1,#0x80                                
ram:80002a58    04008013        orrne       r0,r0,#0x4                              
ram:80002a5c    080011e3        tst         r1,#0x8                                 
ram:80002a60    02008013        orrne       r0,r0,#0x2                              
ram:80002a64    200011e3        tst         r1,#0x20                                
ram:80002a68    01008013        orrne       r0,r0,#0x1                              
ram:80002a6c    0000c2e5        strb        r0,[r2,#0x0]=>DAT_800079dc              
ram:80002a70    f001bde8        ldmia       sp!,{r4 r5 r6 r7 r8}=>local_20          
ram:80002a74    000ebde8        ldmia       sp!,{r9 r10 r11}=>local_c               
ram:80002a78    1eff2fe1        bx          lr                                      
                            PTR_DAT_80002a7c:             ;XREF[1,0]:   800028ec
ram:80002a7c    dc790080        addr        DAT_800079dc                            
                            ;************************************************************************************************
                            ;*                                           FUNCTION                                           *
                            ;************************************************************************************************
                            ;undefined FUN_80002a80()
                                                          ;XREF[1,0]:   80002584
ram:80002a80    70402de9        stmdb       sp!,{r4 r5 r6 lr}                       
ram:80002a84    ac319fe5        ldr         r3,[PTR_DAT_80002c38]                   ;= 80007864
ram:80002a88    a4419fe5        ldr         r4,[PTR_DAT_80002c34]                   ;= 800079dc
ram:80002a8c    0030d3e5        ldrb        r3,[r3,#0x0]=>DAT_80007864              ;= 01h
ram:80002a90    010451e3        cmp         r1,#0x1000000                           
ram:80002a94    fc20a0e3        mov         r2,#0xfc                                
ram:80002a98    00c102e0        and         r12,r2,r0, lsl #0x2                     
ram:80002a9c    0124a0e1        mov         r2,r1, lsl #0x8                         
ram:80002aa0    0108a0e1        mov         r0,r1, lsl #0x10                        
ram:80002aa4    0030c4e5        strb        r3,[r4,#0x0]=>DAT_800079dc              
ram:80002aa8    01c0c4e5        strb        r12,[r4,#0x1]=>DAT_800079dd             
ram:80002aac    225ca0e1        mov         r5,r2, lsr #0x18                        
ram:80002ab0    203ca0e1        mov         r3,r0, lsr #0x18                        
ram:80002ab4    ff2001e2        and         r2,r1,#0xff                             
ram:80002ab8    0000a0e3        mov         r0,#0x0                                 
ram:80002abc    0600003a        bcc         LAB_80002adc                            
ram:80002ac0    211ca0e1        mov         r1,r1, lsr #0x18                        
ram:80002ac4    0300a0e3        mov         r0,#0x3                                 
ram:80002ac8    0310c4e5        strb        r1,[r4,#0x3]=>DAT_800079df              
ram:80002acc    0450c4e5        strb        r5,[r4,#0x4]=>DAT_800079e0              
ram:80002ad0    0530c4e5        strb        r3,[r4,#0x5]=>DAT_800079e1              
ram:80002ad4    0620c4e5        strb        r2,[r4,#0x6]=>DAT_800079e2              
ram:80002ad8    160000ea        b           LAB_80002b38                            
                            LAB_80002adc:                 ;XREF[1,0]:   80002abc
ram:80002adc    010851e3        cmp         r1,#0x10000                             
ram:80002ae0    69c0a0e3        mov         r12,#0x69                               
ram:80002ae4    0500003a        bcc         LAB_80002b00                            
ram:80002ae8    0200a0e3        mov         r0,#0x2                                 
ram:80002aec    03c0c4e5        strb        r12,[r4,#0x3]=>DAT_800079df             
ram:80002af0    0450c4e5        strb        r5,[r4,#0x4]=>DAT_800079e0              
ram:80002af4    0530c4e5        strb        r3,[r4,#0x5]=>DAT_800079e1              
ram:80002af8    0620c4e5        strb        r2,[r4,#0x6]=>DAT_800079e2              
ram:80002afc    0d0000ea        b           LAB_80002b38                            
                            LAB_80002b00:                 ;XREF[1,0]:   80002ae4
ram:80002b00    ff0051e3        cmp         r1,#0xff                                
ram:80002b04    9610a0e3        mov         r1,#0x96                                
ram:80002b08    0500009a        bls         LAB_80002b24                            
ram:80002b0c    03c0c4e5        strb        r12,[r4,#0x3]=>DAT_800079df             
ram:80002b10    0100a0e3        mov         r0,#0x1                                 
ram:80002b14    0410c4e5        strb        r1,[r4,#0x4]=>DAT_800079e0              
ram:80002b18    0530c4e5        strb        r3,[r4,#0x5]=>DAT_800079e1              
ram:80002b1c    0620c4e5        strb        r2,[r4,#0x6]=>DAT_800079e2              
ram:80002b20    040000ea        b           LAB_80002b38                            
                            LAB_80002b24:                 ;XREF[1,0]:   80002b08
ram:80002b24    9930a0e3        mov         r3,#0x99                                
ram:80002b28    03c0c4e5        strb        r12,[r4,#0x3]=>DAT_800079df             
ram:80002b2c    0410c4e5        strb        r1,[r4,#0x4]=>DAT_800079e0              
ram:80002b30    0530c4e5        strb        r3,[r4,#0x5]=>DAT_800079e1              
ram:80002b34    0620c4e5        strb        r2,[r4,#0x6]=>DAT_800079e2              
                            LAB_80002b38:                 ;XREF[3,0]:   80002ad8,80002afc,80002b20
ram:80002b38    0110d4e5        ldrb        r1,[r4,#0x1]=>DAT_800079dd              
ram:80002b3c    010080e1        orr         r0,r0,r1                                
ram:80002b40    0100c4e5        strb        r0,[r4,#0x1]=>DAT_800079dd              
ram:80002b44    66ffffeb        bl          FUN_800028e4                            ;undefined FUN_800028e4()
ram:80002b48    0000d4e5        ldrb        r0,[r4,#0x0]=>DAT_800079dc              
ram:80002b4c    0130d4e5        ldrb        r3,[r4,#0x1]=>DAT_800079dd              
ram:80002b50    0310d4e5        ldrb        r1,[r4,#0x3]=>DAT_800079df              
ram:80002b54    0420d4e5        ldrb        r2,[r4,#0x4]=>DAT_800079e0              
ram:80002b58    05c0d4e5        ldrb        r12,[r4,#0x5]=>DAT_800079e1             
ram:80002b5c    003083e0        add         r3,r3,r0                                
ram:80002b60    0600d4e5        ldrb        r0,[r4,#0x6]=>DAT_800079e2              
ram:80002b64    021081e0        add         r1,r1,r2                                
ram:80002b68    031081e0        add         r1,r1,r3                                
ram:80002b6c    0c1081e0        add         r1,r1,r12                               
ram:80002b70    010080e0        add         r0,r0,r1                                
ram:80002b74    0200c4e5        strb        r0,[r4,#0x2]=>DAT_800079de              
ram:80002b78    6500a0e3        mov         r0,#0x65                                
ram:80002b7c    63faffeb        bl          FUN_80001510                            ;undefined FUN_80001510()
ram:80002b80    6500a0e3        mov         r0,#0x65                                
ram:80002b84    61faffeb        bl          FUN_80001510                            ;undefined FUN_80001510()
ram:80002b88    0050d4e5        ldrb        r5,[r4,#0x0]=>DAT_800079dc              
ram:80002b8c    6800a0e3        mov         r0,#0x68                                
ram:80002b90    5efaffeb        bl          FUN_80001510                            ;undefined FUN_80001510()
ram:80002b94    0500a0e1        mov         r0,r5                                   
ram:80002b98    1dfaffeb        bl          FUN_80001414                            ;undefined FUN_80001414()
ram:80002b9c    0150d4e5        ldrb        r5,[r4,#0x1]=>DAT_800079dd              
ram:80002ba0    6900a0e3        mov         r0,#0x69                                
ram:80002ba4    59faffeb        bl          FUN_80001510                            ;undefined FUN_80001510()
ram:80002ba8    0500a0e1        mov         r0,r5                                   
ram:80002bac    18faffeb        bl          FUN_80001414                            ;undefined FUN_80001414()
ram:80002bb0    0250d4e5        ldrb        r5,[r4,#0x2]=>DAT_800079de              
ram:80002bb4    6a00a0e3        mov         r0,#0x6a                                
ram:80002bb8    54faffeb        bl          FUN_80001510                            ;undefined FUN_80001510()
ram:80002bbc    0500a0e1        mov         r0,r5                                   
ram:80002bc0    13faffeb        bl          FUN_80001414                            ;undefined FUN_80001414()
ram:80002bc4    0350d4e5        ldrb        r5,[r4,#0x3]=>DAT_800079df              
ram:80002bc8    6b00a0e3        mov         r0,#0x6b                                
ram:80002bcc    4ffaffeb        bl          FUN_80001510                            ;undefined FUN_80001510()
ram:80002bd0    0500a0e1        mov         r0,r5                                   
ram:80002bd4    0efaffeb        bl          FUN_80001414                            ;undefined FUN_80001414()
ram:80002bd8    0450d4e5        ldrb        r5,[r4,#0x4]=>DAT_800079e0              
ram:80002bdc    6c00a0e3        mov         r0,#0x6c                                
ram:80002be0    4afaffeb        bl          FUN_80001510                            ;undefined FUN_80001510()
ram:80002be4    0500a0e1        mov         r0,r5                                   
ram:80002be8    09faffeb        bl          FUN_80001414                            ;undefined FUN_80001414()
ram:80002bec    0550d4e5        ldrb        r5,[r4,#0x5]=>DAT_800079e1              
ram:80002bf0    6d00a0e3        mov         r0,#0x6d                                
ram:80002bf4    45faffeb        bl          FUN_80001510                            ;undefined FUN_80001510()
ram:80002bf8    0500a0e1        mov         r0,r5                                   
ram:80002bfc    04faffeb        bl          FUN_80001414                            ;undefined FUN_80001414()
ram:80002c00    0640d4e5        ldrb        r4,[r4,#0x6]=>DAT_800079e2              
ram:80002c04    6e00a0e3        mov         r0,#0x6e                                
ram:80002c08    40faffeb        bl          FUN_80001510                            ;undefined FUN_80001510()
ram:80002c0c    0400a0e1        mov         r0,r4                                   
ram:80002c10    fff9ffeb        bl          FUN_80001414                            ;undefined FUN_80001414()
ram:80002c14    6600a0e3        mov         r0,#0x66                                
ram:80002c18    3cfaffeb        bl          FUN_80001510                            ;undefined FUN_80001510()
                            LAB_80002c1c:                 ;XREF[1,0]:   80002c2c
ram:80002c1c    6700a0e3        mov         r0,#0x67                                
ram:80002c20    3afaffeb        bl          FUN_80001510                            ;undefined FUN_80001510()
ram:80002c24    cff9ffeb        bl          FUN_80001368                            ;undefined FUN_80001368()
ram:80002c28    010010e3        tst         r0,#0x1                                 
ram:80002c2c    faffff0a        beq         LAB_80002c1c                            
ram:80002c30    7080bde8        ldmia       sp!,{r4 r5 r6 pc}                       
                            PTR_DAT_80002c34:             ;XREF[1,0]:   80002a88
ram:80002c34    dc790080        addr        DAT_800079dc                            
                            PTR_DAT_80002c38:             ;XREF[1,0]:   80002a84
ram:80002c38    64780080        addr        DAT_80007864                            ;= 01h
                            ;************************************************************************************************
                            ;*                                           FUNCTION                                           *
                            ;************************************************************************************************
                            ;undefined FUN_80002c3c()
          ;local_10      undefined1         -10                      ;XREF[1,0]:   80002c44
                                                          ;XREF[4,0]:   80002dac,80006540,80006610,800066e8
ram:80002c3c    38402de9        stmdb       sp!,{r3 r4 r5 lr}                       
ram:80002c40    0610a0e3        mov         r1,#0x6                                 
ram:80002c44    0010cde5        strb        r1,[sp,#0x0]=>local_10                  
ram:80002c48    44109fe5        ldr         r1,[DAT_80002c94]                       ;= 01C05000h
ram:80002c4c    0050a0e3        mov         r5,#0x0                                 
ram:80002c50    004681e0        add         r4,r1,r0, lsl #0xc                      
ram:80002c54    084094e2        adds        r4,r4,#0x8                              
ram:80002c58    001094e5        ldr         r1,[r4,#0x0]=>DAT_01c05008              
ram:80002c5c    b010c1e3        bic         r1,r1,#0xb0                             
ram:80002c60    001084e5        str         r1,[r4,#0x0]=>DAT_01c05008              
ram:80002c64    0130a0e3        mov         r3,#0x1                                 
ram:80002c68    0520a0e1        mov         r2,r5                                   
ram:80002c6c    0d10a0e1        mov         r1,sp                                   
ram:80002c70    b71000eb        bl          FUN_80006f54                            ;undefined FUN_80006f54()
ram:80002c74    010050e3        cmp         r0,#0x1                                 
ram:80002c78    000094e5        ldr         r0,[r4,#0x0]=>DAT_01c05008              
ram:80002c7c    0050e013        mvnne       r5,#0x0                                 
ram:80002c80    b000c0e3        bic         r0,r0,#0xb0                             
ram:80002c84    800080e3        orr         r0,r0,#0x80                             
ram:80002c88    000084e5        str         r0,[r4,#0x0]=>DAT_01c05008              
ram:80002c8c    0500a0e1        mov         r0,r5                                   
ram:80002c90    3880bde8        ldmia       sp!,{r3 r4 r5 pc}                       
                            DAT_80002c94:                 ;XREF[1,0]:   80002c48
ram:80002c94    0050c001        undefined4  01C05000h                               
                            ;************************************************************************************************
                            ;*                                           FUNCTION                                           *
                            ;************************************************************************************************
                            ;undefined FUN_80002c98()
          ;local_20      undefined4         -20                      ;XREF[2,3]:   80006ec0,80006f48,80006ec8,80006ecc,80006ed0
                                                          ;XREF[1,0]:   80000e64
ram:80002c98    0230a0e1        mov         r3,r2                                   
ram:80002c9c    0120a0e1        mov         r2,r1                                   
ram:80002ca0    0010a0e1        mov         r1,r0                                   
ram:80002ca4    0000a0e3        mov         r0,#0x0                                 
ram:80002ca8    801000ea        b           LAB_80006eb0                            
ram:80002cac    00              ??          00h                                     
ram:80002cad    00              ??          00h                                     
ram:80002cae    a0              ??          A0h                                     
ram:80002caf    e3              ??          E3h                                     
ram:80002cb0    7d              ??          7Dh    }                                
ram:80002cb1    0d              ??          0Dh                                     
ram:80002cb2    00              ??          00h                                     
ram:80002cb3    ea              ??          EAh                                     
                            ;************************************************************************************************
                            ;*                                           FUNCTION                                           *
                            ;************************************************************************************************
                            ;undefined FUN_80002cb4()
          ;local_18      undefined4         -18                      ;XREF[2,0]:   80002cc0,80002d3c
          ;local_1c      undefined1         -1c                      ;XREF[1,0]:   80002d2c
          ;local_20      undefined1         -20                      ;XREF[1,0]:   80002cd4
                                                          ;XREF[8,0]:   80002db4,80002e08,80006548,80006588
                                                          ;             80006618,8000666c,800066f0,80006744
ram:80002cb4    e0412de9        stmdb       sp!,{r5 r6 r7 r8 lr}                    
ram:80002cb8    0050a0e1        mov         r5,r0                                   
ram:80002cbc    80009fe5        ldr         r0,[DAT_80002d44]                       ;= 01C05000h
ram:80002cc0    04402de5        str         r4,[sp,#local_18+0x14]!                 
ram:80002cc4    050680e0        add         r0,r0,r5, lsl #0xc                      
ram:80002cc8    084090e2        adds        r4,r0,#0x8                              
ram:80002ccc    08d04de2        sub         sp,sp,#0x8                              
ram:80002cd0    0560a0e3        mov         r6,#0x5                                 
                            LAB_80002cd4:                 ;XREF[1,0]:   80002d34
ram:80002cd4    0060cde5        strb        r6,[sp,#0x0]=>local_20                  
ram:80002cd8    000094e5        ldr         r0,[r4,#0x0]=>DAT_01c05008              
ram:80002cdc    b000c0e3        bic         r0,r0,#0xb0                             
ram:80002ce0    000084e5        str         r0,[r4,#0x0]=>DAT_01c05008              
ram:80002ce4    0130a0e3        mov         r3,#0x1                                 
ram:80002ce8    0d10a0e1        mov         r1,sp                                   
ram:80002cec    04708de2        add         r7,sp,#0x4                              
ram:80002cf0    0380a0e1        mov         r8,r3                                   
ram:80002cf4    0020a0e3        mov         r2,#0x0                                 
ram:80002cf8    0500a0e1        mov         r0,r5                                   
ram:80002cfc    941000eb        bl          FUN_80006f54                            ;undefined FUN_80006f54()
ram:80002d00    010050e3        cmp         r0,#0x1                                 
ram:80002d04    0400001a        bne         LAB_80002d1c                            
ram:80002d08    0830a0e1        mov         r3,r8                                   
ram:80002d0c    0720a0e1        mov         r2,r7                                   
ram:80002d10    0010a0e3        mov         r1,#0x0                                 
ram:80002d14    0500a0e1        mov         r0,r5                                   
ram:80002d18    8d1000eb        bl          FUN_80006f54                            ;undefined FUN_80006f54()
                            LAB_80002d1c:                 ;XREF[1,0]:   80002d04
ram:80002d1c    001094e5        ldr         r1,[r4,#0x0]=>DAT_01c05008              
ram:80002d20    b010c1e3        bic         r1,r1,#0xb0                             
ram:80002d24    801081e3        orr         r1,r1,#0x80                             
ram:80002d28    001084e5        str         r1,[r4,#0x0]=>DAT_01c05008              
ram:80002d2c    0400dde5        ldrb        r0,[sp,#local_1c+0x20]                  
ram:80002d30    010010e3        tst         r0,#0x1                                 
ram:80002d34    e6ffff1a        bne         LAB_80002cd4                            
ram:80002d38    08d08de2        add         sp,sp,#0x8                              
ram:80002d3c    f001bde8        ldmia       sp!,{r4 r5 r6 r7 r8}=>local_18          
ram:80002d40    04f09de4        ldr         pc,[sp],#0x4                            
                            DAT_80002d44:                 ;XREF[1,0]:   80002cbc
ram:80002d44    0050c001        undefined4  01C05000h                               
                            ;************************************************************************************************
                            ;*                                           FUNCTION                                           *
                            ;************************************************************************************************
                            ;undefined FUN_80002d48()
          ;local_28      undefined4         -28                      ;XREF[2,0]:   80006438,80006774
          ;local_2c      undefined4         -2c                      ;XREF[2,0]:   80006424,8000669c
          ;local_30      undefined4         -30                      ;XREF[2,0]:   800065a0,800066b4
          ;local_34      undefined4         -34                      ;XREF[5,0]:   8000644c,80006460,80006520,800065d8,800066a0
          ;local_3c      undefined4         -3c                      ;XREF[2,0]:   800064a8,800064c4
          ;local_40      undefined4         -40                      ;XREF[3,0]:   80006458,80006484,8000654c
          ;local_44      undefined4         -44                      ;XREF[2,0]:   80006434,8000645c
          ;local_45      undefined1         -45                      ;XREF[4,0]:   80006490,80006538,8000660c,800066e4
          ;local_46      undefined1         -46                      ;XREF[4,0]:   8000648c,80006534,80006604,800066dc
          ;local_47      undefined1         -47                      ;XREF[4,0]:   80006480,8000652c,800065fc,800066d4
          ;local_48      undefined1         -48                      ;XREF[4,0]:   8000647c,80006528,800065f8,800066d0
                                                          ;XREF[2,0]:   80000dfc,80001004
ram:80002d48    0230a0e1        mov         r3,r2                                   
ram:80002d4c    0020a0e1        mov         r2,r0                                   
ram:80002d50    0000a0e3        mov         r0,#0x0                                 
ram:80002d54    ae0d00ea        b           LAB_80006414                            
                            ;************************************************************************************************
                            ;*                                           FUNCTION                                           *
                            ;************************************************************************************************
                            ;undefined FUN_80002d58()
          ;local_28      undefined4         -28                      ;XREF[2,3]:   80002d94,80002e10,80002d98,80002da0,80002da8
                                                          ;XREF[1,0]:   80000e54
ram:80002d58    004f2de9        stmdb       sp!,{r8 r9 r10 r11 lr}                  
ram:80002d5c    f8002de9        stmdb       sp!,{r3 r4 r5 r6 r7}                    
ram:80002d60    0090a0e1        mov         r9,r0                                   
ram:80002d64    ff0002e2        and         r0,r2,#0xff                             
ram:80002d68    015c60e2        rsb         r5,r0,#0x100                            
ram:80002d6c    cc009fe5        ldr         r0,[DAT_80002e40]                       ;= 01C05000h
ram:80002d70    050053e1        cmp         r3,r5                                   
ram:80002d74    0350a091        movls       r5,r3                                   
ram:80002d78    090680e0        add         r0,r0,r9, lsl #0xc                      
ram:80002d7c    084090e2        adds        r4,r0,#0x8                              
ram:80002d80    0260a0e1        mov         r6,r2                                   
ram:80002d84    0180a0e1        mov         r8,r1                                   
ram:80002d88    0370a0e1        mov         r7,r3                                   
ram:80002d8c    02a0a0e3        mov         r10,#0x2                                
                            LAB_80002d90:                 ;XREF[1,0]:   80002e3c
ram:80002d90    4608a0e1        mov         r0,r6, asr #0x10                        
ram:80002d94    00a0cde5        strb        r10,[sp,#0x0]=>local_28                 
ram:80002d98    0100cde5        strb        r0,[sp,#local_28+0x29]                  
ram:80002d9c    4614a0e1        mov         r1,r6, asr #0x8                         
ram:80002da0    0210cde5        strb        r1,[sp,#local_28+0x2a]                  
ram:80002da4    0900a0e1        mov         r0,r9                                   
ram:80002da8    0360cde5        strb        r6,[sp,#local_28+0x2b]                  
ram:80002dac    a2ffffeb        bl          FUN_80002c3c                            ;undefined FUN_80002c3c()
ram:80002db0    0900a0e1        mov         r0,r9                                   
ram:80002db4    beffffeb        bl          FUN_80002cb4                            ;undefined FUN_80002cb4()
ram:80002db8    000094e5        ldr         r0,[r4,#0x0]=>DAT_01c05008              
ram:80002dbc    b000c0e3        bic         r0,r0,#0xb0                             
ram:80002dc0    000084e5        str         r0,[r4,#0x0]=>DAT_01c05008              
ram:80002dc4    0d10a0e1        mov         r1,sp                                   
ram:80002dc8    0430a0e3        mov         r3,#0x4                                 
ram:80002dcc    0020a0e3        mov         r2,#0x0                                 
ram:80002dd0    0900a0e1        mov         r0,r9                                   
ram:80002dd4    5e1000eb        bl          FUN_80006f54                            ;undefined FUN_80006f54()
ram:80002dd8    040050e3        cmp         r0,#0x4                                 
ram:80002ddc    0400001a        bne         LAB_80002df4                            
ram:80002de0    0530a0e1        mov         r3,r5                                   
ram:80002de4    0020a0e3        mov         r2,#0x0                                 
ram:80002de8    0810a0e1        mov         r1,r8                                   
ram:80002dec    0900a0e1        mov         r0,r9                                   
ram:80002df0    571000eb        bl          FUN_80006f54                            ;undefined FUN_80006f54()
                            LAB_80002df4:                 ;XREF[1,0]:   80002ddc
ram:80002df4    001094e5        ldr         r1,[r4,#0x0]=>DAT_01c05008              
ram:80002df8    b010c1e3        bic         r1,r1,#0xb0                             
ram:80002dfc    801081e3        orr         r1,r1,#0x80                             
ram:80002e00    001084e5        str         r1,[r4,#0x0]=>DAT_01c05008              
ram:80002e04    0900a0e1        mov         r0,r9                                   
ram:80002e08    a9ffffeb        bl          FUN_80002cb4                            ;undefined FUN_80002cb4()
ram:80002e0c    050057e1        cmp         r7,r5                                   
ram:80002e10    f800bd08        ldmiaeq     sp!,{r3 r4 r5 r6 r7}=>local_28          
ram:80002e14    000fbd08        ldmiaeq     sp!,{r8 r9 r10 r11}                     
ram:80002e18    04f09d04        ldreq       pc,[sp],#0x4                            
ram:80002e1c    050047e0        sub         r0,r7,r5                                
ram:80002e20    0078a0e1        mov         r7,r0, lsl #0x10                        
ram:80002e24    2778a0e1        mov         r7,r7, lsr #0x10                        
ram:80002e28    010c57e3        cmp         r7,#0x100                               
ram:80002e2c    058088e0        add         r8,r8,r5                                
ram:80002e30    056086e0        add         r6,r6,r5                                
ram:80002e34    0750a091        movls       r5,r7                                   
ram:80002e38    015ca083        movhi       r5,#0x100                               
ram:80002e3c    d3ffffea        b           LAB_80002d90                            
                            DAT_80002e40:                 ;XREF[1,0]:   80002d6c
ram:80002e40    0050c001        undefined4  01C05000h                               
ram:80002e44    fe              ??          FEh                                     
ram:80002e45    ff              ??          FFh                                     
ram:80002e46    ff              ??          FFh                                     
ram:80002e47    ea              ??          EAh                                     
                            ;************************************************************************************************
                            ;*                                           FUNCTION                                           *
                            ;************************************************************************************************
                            ;undefined FUN_80002e48()
          ;local_40      undefined4         -40                      ;XREF[2,0]:   80002e5c,80002ea0
                                                          ;XREF[1,0]:   800021a8
ram:80002e48    004f2de9        stmdb       sp!,{r8 r9 r10 r11 lr}                  
ram:80002e4c    f0002de9        stmdb       sp!,{r4 r5 r6 r7}                       
ram:80002e50    0050a0e1        mov         r5,r0                                   
ram:80002e54    1cd04de2        sub         sp,sp,#0x1c                             
ram:80002e58    0000e0e3        mvn         r0,#0x0                                 
ram:80002e5c    00008de5        str         r0,[sp,#0x0]=>local_40                  
ram:80002e60    0290a0e1        mov         r9,r2                                   
ram:80002e64    0140a0e1        mov         r4,r1                                   
ram:80002e68    c10f8fe2        adr         r0=>s_SelectCard..._80003174,0x80003174 ;= "SelectCard...\r\n"
ram:80002e6c    7a1000eb        bl          FUN_8000705c                            ;undefined FUN_8000705c()
ram:80002e70    0c839fe5        ldr         r8,[PTR_DAT_80003184]                   ;= 800079c8
ram:80002e74    0760a0e3        mov         r6,#0x7                                 
ram:80002e78    04c098e5        ldr         r12,[r8,#0x4]=>DAT_800079cc             
ram:80002e7c    0530a0e3        mov         r3,#0x5                                 
ram:80002e80    b060c4e1        strh        r6,[r4,#0x0]                            
ram:80002e84    043084e5        str         r3,[r4,#0x4]                            
ram:80002e88    0500a0e1        mov         r0,r5                                   
ram:80002e8c    0410a0e1        mov         r1,r4                                   
ram:80002e90    0020a0e3        mov         r2,#0x0                                 
ram:80002e94    08c084e5        str         r12,[r4,#0x8]                           
ram:80002e98    4f0e00eb        bl          FUN_800067dc                            ;undefined FUN_800067dc()
ram:80002e9c    000050e3        cmp         r0,#0x0                                 
ram:80002ea0    00008de5        str         r0,[sp,#0x0]=>local_40                  
ram:80002ea4    1cd08d12        addne       sp,sp,#0x1c                             
ram:80002ea8    f001bd18        ldmiane     sp!,{r4 r5 r6 r7 r8}                    
ram:80002eac    008ebd18        ldmiane     sp!,{r9 r10 r11 pc}                     
ram:80002eb0    000098e5        ldr         r0,[r8,#0x0]                            
ram:80002eb4    d0629fe5        ldr         r6,[DAT_8000318c]                       ;= 01C0F000h
ram:80002eb8    c8b29fe5        ldr         r11,[DAT_80003188]                      ;= 02DC6C00h
ram:80002ebc    010050e3        cmp         r0,#0x1                                 
ram:80002ec0    017a86e2        add         r7,r6,#0x1000                           
ram:80002ec4    0200000a        beq         LAB_80002ed4                            
ram:80002ec8    020050e3        cmp         r0,#0x2                                 
ram:80002ecc    6100000a        beq         LAB_80003058                            
ram:80002ed0    8e0000ea        b           LAB_80003110                            
                            LAB_80002ed4:                 ;XREF[1,0]:   80002ec4
ram:80002ed4    ad0f8fe2        adr         r0=>s_CARD_TYPE_...,0x80003190          ;= "CARD_TYPE_SD_HIGH \r\n"
ram:80002ed8    5f1000eb        bl          FUN_8000705c                            ;undefined FUN_8000705c()
ram:80002edc    04c098e5        ldr         r12,[r8,#0x4]                           
ram:80002ee0    37a0a0e3        mov         r10,#0x37                               
ram:80002ee4    0530a0e3        mov         r3,#0x5                                 
ram:80002ee8    b0a0c4e1        strh        r10,[r4,#0x0]                           
ram:80002eec    043084e5        str         r3,[r4,#0x4]                            
ram:80002ef0    0500a0e1        mov         r0,r5                                   
ram:80002ef4    0410a0e1        mov         r1,r4                                   
ram:80002ef8    0020a0e3        mov         r2,#0x0                                 
ram:80002efc    08c084e5        str         r12,[r4,#0x8]                           
ram:80002f00    350e00eb        bl          FUN_800067dc                            ;undefined FUN_800067dc()
ram:80002f04    000050e3        cmp         r0,#0x0                                 
ram:80002f08    00008de5        str         r0,[sp,#0x0]                            
ram:80002f0c    1cd08d12        addne       sp,sp,#0x1c                             
ram:80002f10    f001bd18        ldmiane     sp!,{r4 r5 r6 r7 r8}                    
ram:80002f14    008ebd18        ldmiane     sp!,{r9 r10 r11 pc}                     
ram:80002f18    0100a0e3        mov         r0,#0x1                                 
ram:80002f1c    0810a0e3        mov         r1,#0x8                                 
ram:80002f20    80a29fe5        ldr         r10,[DAT_800031a8]                      ;= 80442000h
ram:80002f24    f001cde1        strd        r0,r1,[sp,#0x10]                        
ram:80002f28    0c008de5        str         r0,[sp,#0xc]                            
ram:80002f2c    33c0a0e3        mov         r12,#0x33                               
ram:80002f30    08a08de5        str         r10,[sp,#0x8]                           
ram:80002f34    0030a0e3        mov         r3,#0x0                                 
ram:80002f38    0520a0e3        mov         r2,#0x5                                 
ram:80002f3c    b0c0c4e1        strh        r12,[r4,#0x0]                           
ram:80002f40    0c0084e9        stmib       r4,{ r2 r3 }                            
ram:80002f44    08e08de2        add         lr,sp,#0x8                              
ram:80002f48    0500a0e1        mov         r0,r5                                   
ram:80002f4c    0410a0e1        mov         r1,r4                                   
ram:80002f50    0e20a0e1        mov         r2,lr                                   
ram:80002f54    200e00eb        bl          FUN_800067dc                            ;undefined FUN_800067dc()
ram:80002f58    000050e3        cmp         r0,#0x0                                 
ram:80002f5c    00008de5        str         r0,[sp,#0x0]                            
ram:80002f60    1cd08d12        addne       sp,sp,#0x1c                             
ram:80002f64    f001bd18        ldmiane     sp!,{r4 r5 r6 r7 r8}                    
ram:80002f68    008ebd18        ldmiane     sp!,{r9 r10 r11 pc}                     
ram:80002f6c    0000dae5        ldrb        r0,[r10,#0x0]=>DAT_80442000             
ram:80002f70    0f0000e2        and         r0,r0,#0xf                              
ram:80002f74    020050e3        cmp         r0,#0x2                                 
ram:80002f78    0b00001a        bne         LAB_80002fac                            
ram:80002f7c    0410a0e1        mov         r1,r4                                   
ram:80002f80    0500a0e1        mov         r0,r5                                   
ram:80002f84    9bf6ffeb        bl          FUN_800009f8                            ;undefined FUN_800009f8()
ram:80002f88    000050e3        cmp         r0,#0x0                                 
ram:80002f8c    00008de5        str         r0,[sp,#0x0]                            
ram:80002f90    0500001a        bne         LAB_80002fac                            
ram:80002f94    0b10a0e1        mov         r1,r11                                  
ram:80002f98    830f8fe2        adr         r0=>s_Set_Clock:...,0x800031ac          ;= "Set Clock: %d HZ\r\n"
ram:80002f9c    2e1000eb        bl          FUN_8000705c                            ;undefined FUN_8000705c()
ram:80002fa0    0b10a0e1        mov         r1,r11                                  
ram:80002fa4    0500a0e1        mov         r0,r5                                   
ram:80002fa8    410a00eb        bl          FUN_800058b4                            ;undefined FUN_800058b4()
                            LAB_80002fac:                 ;XREF[2,0]:   80002f78,80002f90
ram:80002fac    010059e3        cmp         r9,#0x1                                 
ram:80002fb0    5600001a        bne         LAB_80003110                            
ram:80002fb4    810f8fe2        adr         r0=>s_Card_width...,0x800031c0          ;= "Card_width_4bit \r\n"
ram:80002fb8    271000eb        bl          FUN_8000705c                            ;undefined FUN_8000705c()
ram:80002fbc    04c098e5        ldr         r12,[r8,#0x4]                           
ram:80002fc0    3780a0e3        mov         r8,#0x37                                
ram:80002fc4    0530a0e3        mov         r3,#0x5                                 
ram:80002fc8    b080c4e1        strh        r8,[r4,#0x0]                            
ram:80002fcc    043084e5        str         r3,[r4,#0x4]                            
ram:80002fd0    0500a0e1        mov         r0,r5                                   
ram:80002fd4    0410a0e1        mov         r1,r4                                   
ram:80002fd8    0020a0e3        mov         r2,#0x0                                 
ram:80002fdc    08c084e5        str         r12,[r4,#0x8]                           
ram:80002fe0    fd0d00eb        bl          FUN_800067dc                            ;undefined FUN_800067dc()
ram:80002fe4    000050e3        cmp         r0,#0x0                                 
ram:80002fe8    00008de5        str         r0,[sp,#0x0]                            
ram:80002fec    1cd08d12        addne       sp,sp,#0x1c                             
ram:80002ff0    f001bd18        ldmiane     sp!,{r4 r5 r6 r7 r8}                    
ram:80002ff4    008ebd18        ldmiane     sp!,{r9 r10 r11 pc}                     
ram:80002ff8    0680a0e3        mov         r8,#0x6                                 
ram:80002ffc    0530a0e3        mov         r3,#0x5                                 
ram:80003000    b080c4e1        strh        r8,[r4,#0x0]                            
ram:80003004    02c0a0e3        mov         r12,#0x2                                
ram:80003008    043084e5        str         r3,[r4,#0x4]                            
ram:8000300c    0500a0e1        mov         r0,r5                                   
ram:80003010    0410a0e1        mov         r1,r4                                   
ram:80003014    0020a0e3        mov         r2,#0x0                                 
ram:80003018    08c084e5        str         r12,[r4,#0x8]                           
ram:8000301c    ee0d00eb        bl          FUN_800067dc                            ;undefined FUN_800067dc()
ram:80003020    000050e3        cmp         r0,#0x0                                 
ram:80003024    00008de5        str         r0,[sp,#0x0]                            
ram:80003028    1cd08d12        addne       sp,sp,#0x1c                             
ram:8000302c    f001bd18        ldmiane     sp!,{r4 r5 r6 r7 r8}                    
ram:80003030    008ebd18        ldmiane     sp!,{r9 r10 r11 pc}                     
ram:80003034    000055e3        cmp         r5,#0x0                                 
ram:80003038    0100a0e3        mov         r0,#0x1                                 
ram:8000303c    3200000a        beq         LAB_8000310c                            
ram:80003040    010055e3        cmp         r5,#0x1                                 
ram:80003044    0100001a        bne         LAB_80003050                            
                            LAB_80003048:                 ;XREF[1,0]:   80003108
ram:80003048    0760a0e1        mov         r6,r7                                   
ram:8000304c    2e0000ea        b           LAB_8000310c                            
                            LAB_80003050:                 ;XREF[2,0]:   80003044,80003104
ram:80003050    0060a0e3        mov         r6,#0x0                                 
ram:80003054    2c0000ea        b           LAB_8000310c                            
                            LAB_80003058:                 ;XREF[1,0]:   80002ecc
ram:80003058    5d0f8fe2        adr         r0=>s_CARD_TYPE_...,0x800031d4          ;= "CARD_TYPE_SD_LOW \r\n"
ram:8000305c    fe0f00eb        bl          FUN_8000705c                            ;undefined FUN_8000705c()
ram:80003060    0b10a0e1        mov         r1,r11                                  
ram:80003064    0500a0e1        mov         r0,r5                                   
ram:80003068    110a00eb        bl          FUN_800058b4                            ;undefined FUN_800058b4()
ram:8000306c    010059e3        cmp         r9,#0x1                                 
ram:80003070    2600001a        bne         LAB_80003110                            
ram:80003074    510f8fe2        adr         r0=>s_Card_width...,0x800031c0          ;= "Card_width_4bit \r\n"
ram:80003078    f70f00eb        bl          FUN_8000705c                            ;undefined FUN_8000705c()
ram:8000307c    04c098e5        ldr         r12,[r8,#0x4]                           
ram:80003080    3780a0e3        mov         r8,#0x37                                
ram:80003084    0530a0e3        mov         r3,#0x5                                 
ram:80003088    b080c4e1        strh        r8,[r4,#0x0]                            
ram:8000308c    043084e5        str         r3,[r4,#0x4]                            
ram:80003090    0500a0e1        mov         r0,r5                                   
ram:80003094    0410a0e1        mov         r1,r4                                   
ram:80003098    0020a0e3        mov         r2,#0x0                                 
ram:8000309c    08c084e5        str         r12,[r4,#0x8]                           
ram:800030a0    cd0d00eb        bl          FUN_800067dc                            ;undefined FUN_800067dc()
ram:800030a4    000050e3        cmp         r0,#0x0                                 
ram:800030a8    00008de5        str         r0,[sp,#0x0]                            
ram:800030ac    1cd08d12        addne       sp,sp,#0x1c                             
ram:800030b0    f001bd18        ldmiane     sp!,{r4 r5 r6 r7 r8}                    
ram:800030b4    008ebd18        ldmiane     sp!,{r9 r10 r11 pc}                     
ram:800030b8    0680a0e3        mov         r8,#0x6                                 
ram:800030bc    0530a0e3        mov         r3,#0x5                                 
ram:800030c0    b080c4e1        strh        r8,[r4,#0x0]                            
ram:800030c4    02c0a0e3        mov         r12,#0x2                                
ram:800030c8    043084e5        str         r3,[r4,#0x4]                            
ram:800030cc    0500a0e1        mov         r0,r5                                   
ram:800030d0    0410a0e1        mov         r1,r4                                   
ram:800030d4    0020a0e3        mov         r2,#0x0                                 
ram:800030d8    08c084e5        str         r12,[r4,#0x8]                           
ram:800030dc    be0d00eb        bl          FUN_800067dc                            ;undefined FUN_800067dc()
ram:800030e0    000050e3        cmp         r0,#0x0                                 
ram:800030e4    00008de5        str         r0,[sp,#0x0]                            
ram:800030e8    1cd08d12        addne       sp,sp,#0x1c                             
ram:800030ec    f001bd18        ldmiane     sp!,{r4 r5 r6 r7 r8}                    
ram:800030f0    008ebd18        ldmiane     sp!,{r9 r10 r11 pc}                     
ram:800030f4    000055e3        cmp         r5,#0x0                                 
ram:800030f8    0100a0e3        mov         r0,#0x1                                 
ram:800030fc    0200000a        beq         LAB_8000310c                            
ram:80003100    010055e3        cmp         r5,#0x1                                 
ram:80003104    d1ffff1a        bne         LAB_80003050                            
ram:80003108    ceffffea        b           LAB_80003048                            
                            LAB_8000310c:                 ;XREF[4,0]:   8000303c,8000304c,80003054,800030fc
ram:8000310c    0c0086e5        str         r0,[r6,#PrefetchAbort]                  
                            LAB_80003110:                 ;XREF[3,0]:   80002ed0,80002fb0,80003070
ram:80003110    d0008fe2        adr         r0=>s_SD_BLOCK_S...,0x800031e8          ;= "SD_BLOCK_SIZE 512 \r\n"
ram:80003114    d00f00eb        bl          FUN_8000705c                            ;undefined FUN_8000705c()
ram:80003118    1060a0e3        mov         r6,#0x10                                
ram:8000311c    0d30a0e3        mov         r3,#0xd                                 
ram:80003120    b060c4e1        strh        r6,[r4,#0x0]                            
ram:80003124    02cca0e3        mov         r12,#0x200                              
ram:80003128    043084e5        str         r3,[r4,#0x4]                            
ram:8000312c    0500a0e1        mov         r0,r5                                   
ram:80003130    0410a0e1        mov         r1,r4                                   
ram:80003134    0020a0e3        mov         r2,#0x0                                 
ram:80003138    08c084e5        str         r12,[r4,#0x8]                           
ram:8000313c    a60d00eb        bl          FUN_800067dc                            ;undefined FUN_800067dc()
ram:80003140    0410a0e1        mov         r1,r4                                   
ram:80003144    00008de5        str         r0,[sp,#0x0]                            
ram:80003148    0740a0e3        mov         r4,#0x7                                 
ram:8000314c    0020a0e3        mov         r2,#0x0                                 
ram:80003150    b040c1e1        strh        r4,[r1,#0x0]                            
ram:80003154    082081e5        str         r2,[r1,#0x8]                            
ram:80003158    0500a0e1        mov         r0,r5                                   
ram:8000315c    042081e5        str         r2,[r1,#0x4]                            
ram:80003160    9d0d00eb        bl          FUN_800067dc                            ;undefined FUN_800067dc()
ram:80003164    1cd08de2        add         sp,sp,#0x1c                             
ram:80003168    f001bde8        ldmia       sp!,{r4 r5 r6 r7 r8}                    
ram:8000316c    0000a0e3        mov         r0,#0x0                                 
ram:80003170    008ebde8        ldmia       sp!,{r9 r10 r11 pc}                     
                            s_SelectCard..._80003174:     ;XREF[1,0]:   80002e68
ram:80003174    53656c656...    ds          "SelectCard...\r\n"                     
                            PTR_DAT_80003184:             ;XREF[1,0]:   80002e70
ram:80003184    c8790080        addr        DAT_800079c8                            
                            DAT_80003188:                 ;XREF[1,0]:   80002eb8
ram:80003188    006cdc02        undefined4  02DC6C00h                               
                            DAT_8000318c:                 ;XREF[1,0]:   80002eb4
ram:8000318c    00f0c001        undefined4  01C0F000h                               
                            s_CARD_TYPE_SD_HIGH_80003190: ;XREF[1,0]:   80002ed4
ram:80003190    434152445...    ds          "CARD_TYPE_SD_HIGH \r\n"                
                            DAT_800031a8:                 ;XREF[1,0]:   80002f20
ram:800031a8    00204480        undefined4  80442000h                               
                            s_Set_Clock:_%d_HZ_800031ac:  ;XREF[1,0]:   80002f98
ram:800031ac    536574204...    ds          "Set Clock: %d HZ\r\n"                  
                            s_Card_width_4bit_800031c0:   ;XREF[2,0]:   80002fb4,80003074
ram:800031c0    436172645...    ds          "Card_width_4bit \r\n"                  
                            s_CARD_TYPE_SD_LOW_800031d4:  ;XREF[1,0]:   80003058
ram:800031d4    434152445...    ds          "CARD_TYPE_SD_LOW \r\n"                 
                            s_SD_BLOCK_SIZE_512_800031e8: ;XREF[1,0]:   80003110
ram:800031e8    53445f424...    ds          "SD_BLOCK_SIZE 512 \r\n"                
                            ;************************************************************************************************
                            ;*                                           FUNCTION                                           *
                            ;************************************************************************************************
                            ;undefined FUN_80003200()
ram:80003200    10402de9        stmdb       sp!,{r4 lr}                             
ram:80003204    0120a0e3        mov         r2,#0x1                                 
ram:80003208    fa1fa0e3        mov         r1,#0x3e8                               
ram:8000320c    0000a0e3        mov         r0,#0x0                                 
ram:80003210    ce0000eb        bl          FUN_80003550                            ;undefined FUN_80003550()
ram:80003214    0030a0e3        mov         r3,#0x0                                 
ram:80003218    1c209fe5        ldr         r2=>LAB_800033bc,[PTR_LAB_8000323c]     ;= 800033bc
ram:8000321c    0d10a0e3        mov         r1,#0xd                                 
ram:80003220    0200a0e3        mov         r0,#0x2                                 
ram:80003224    c6f9ffeb        bl          FUN_80001944                            ;undefined FUN_80001944()
ram:80003228    0000a0e3        mov         r0,#0x0                                 
ram:8000322c    3c0100eb        bl          FUN_80003724                            ;undefined FUN_80003724()
ram:80003230    7f00a0e3        mov         r0,#0x7f                                
ram:80003234    d30e00eb        bl          FUN_80006d88                            ;undefined FUN_80006d88()
ram:80003238    1080bde8        ldmia       sp!,{r4 pc}                             
                            PTR_LAB_8000323c:             ;XREF[1,0]:   80003218
ram:8000323c    bc330080        addr        LAB_800033bc                            
ram:80003240    5c              ??          5Ch    \                                
ram:80003241    00              ??          00h                                     
ram:80003242    9f              ??          9Fh                                     
ram:80003243    e5              ??          E5h                                     
ram:80003244    5c              ??          5Ch    \                                
ram:80003245    10              ??          10h                                     
ram:80003246    9f              ??          9Fh                                     
ram:80003247    e5              ??          E5h                                     
ram:80003248    00              ??          00h                                     
ram:80003249    00              ??          00h                                     
ram:8000324a    81              ??          81h                                     
ram:8000324b    e5              ??          E5h                                     
ram:8000324c    04              ??          04h                                     
ram:8000324d    10              ??          10h                                     
ram:8000324e    81              ??          81h                                     
ram:8000324f    e2              ??          E2h                                     
ram:80003250    00              ??          00h                                     
ram:80003251    00              ??          00h                                     
ram:80003252    81              ??          81h                                     
ram:80003253    e5              ??          E5h                                     
ram:80003254    6d              ??          6Dh    m                                
ram:80003255    1f              ??          1Fh                                     
ram:80003256    41              ??          41h    A                                
ram:80003257    e2              ??          E2h                                     
ram:80003258    02              ??          02h                                     
ram:80003259    08              ??          08h                                     
ram:8000325a    a0              ??          A0h                                     
ram:8000325b    e3              ??          E3h                                     
ram:8000325c    00              ??          00h                                     
ram:8000325d    00              ??          00h                                     
ram:8000325e    81              ??          81h                                     
ram:8000325f    e5              ??          E5h                                     
ram:80003260    44              ??          44h    D                                
ram:80003261    00              ??          00h                                     
ram:80003262    9f              ??          9Fh                                     
ram:80003263    e5              ??          E5h                                     
ram:80003264    40              ??          40h    @                                
ram:80003265    17              ??          17h                                     
ram:80003266    81              ??          81h                                     
ram:80003267    e1              ??          E1h                                     
ram:80003268    00              ??          00h                                     
ram:80003269    00              ??          00h                                     
ram:8000326a    81              ??          81h                                     
ram:8000326b    e5              ??          E5h                                     
ram:8000326c    54              ??          54h    T                                
ram:8000326d    00              ??          00h                                     
ram:8000326e    41              ??          41h    A                                
ram:8000326f    e2              ??          E2h                                     
ram:80003270    00              ??          00h                                     
ram:80003271    10              ??          10h                                     
ram:80003272    90              ??          90h                                     
ram:80003273    e5              ??          E5h                                     
ram:80003274    34              ??          34h    4                                
ram:80003275    20              ??          20h                                     
ram:80003276    9f              ??          9Fh                                     
ram:80003277    e5              ??          E5h                                     
ram:80003278    02              ??          02h                                     
ram:80003279    10              ??          10h                                     
ram:8000327a    01              ??          01h                                     
ram:8000327b    e0              ??          E0h                                     
ram:8000327c    02              ??          02h                                     
ram:8000327d    11              ??          11h                                     
ram:8000327e    81              ??          81h                                     
ram:8000327f    e3              ??          E3h                                     
ram:80003280    06              ??          06h                                     
ram:80003281    1b              ??          1Bh                                     
ram:80003282    81              ??          81h                                     
ram:80003283    e3              ??          E3h                                     
ram:80003284    00              ??          00h                                     
ram:80003285    10              ??          10h                                     
ram:80003286    80              ??          80h                                     
ram:80003287    e5              ??          E5h                                     
ram:80003288    22              ??          22h    "                                
ram:80003289    1a              ??          1Ah                                     
ram:8000328a    a0              ??          A0h                                     
ram:8000328b    e1              ??          E1h                                     
ram:8000328c    00              ??          00h                                     
ram:8000328d    20              ??          20h                                     
ram:8000328e    90              ??          90h                                     
ram:8000328f    e5              ??          E5h                                     
ram:80003290    01              ??          01h                                     
ram:80003291    10              ??          10h                                     
ram:80003292    51              ??          51h    Q                                
ram:80003293    e2              ??          E2h                                     
ram:80003294    1e              ??          1Eh                                     
ram:80003295    ff              ??          FFh                                     
ram:80003296    2f              ??          2Fh    /                                
ram:80003297    01              ??          01h                                     
ram:80003298    01              ??          01h                                     
ram:80003299    02              ??          02h                                     
ram:8000329a    12              ??          12h                                     
ram:8000329b    e3              ??          E3h                                     
ram:8000329c    fa              ??          FAh                                     
ram:8000329d    ff              ??          FFh                                     
ram:8000329e    ff              ??          FFh                                     
ram:8000329f    0a              ??          0Ah                                     
ram:800032a0    1e              ??          1Eh                                     
ram:800032a1    ff              ??          FFh                                     
ram:800032a2    2f              ??          2Fh    /                                
ram:800032a3    e1              ??          E1h                                     
ram:800032a4    ff              ??          FFh                                     
ram:800032a5    01              ??          01h                                     
ram:800032a6    00              ??          00h                                     
ram:800032a7    00              ??          00h                                     
ram:800032a8    00              ??          00h                                     
ram:800032a9    02              ??          02h                                     
ram:800032aa    c2              ??          C2h                                     
ram:800032ab    01              ??          01h                                     
ram:800032ac    10              ??          10h                                     
ram:800032ad    21              ??          21h    !                                
ram:800032ae    01              ??          01h                                     
ram:800032af    00              ??          00h                                     
ram:800032b0    cc              ??          CCh                                     
ram:800032b1    e0              ??          E0h                                     
ram:800032b2    fc              ??          FCh                                     
ram:800032b3    ff              ??          FFh                                     
ram:800032b4    70              ??          70h    p                                
ram:800032b5    40              ??          40h    @                                
ram:800032b6    2d              ??          2Dh    -                                
ram:800032b7    e9              ??          E9h                                     
ram:800032b8    00              ??          00h                                     
ram:800032b9    10              ??          10h                                     
ram:800032ba    a0              ??          A0h                                     
ram:800032bb    e1              ??          E1h                                     
ram:800032bc    b8              ??          B8h                                     
ram:800032bd    00              ??          00h                                     
ram:800032be    9f              ??          9Fh                                     
ram:800032bf    e5              ??          E5h                                     
ram:800032c0    98              ??          98h                                     
ram:800032c1    f5              ??          F5h                                     
ram:800032c2    ff              ??          FFh                                     
ram:800032c3    eb              ??          EBh                                     
ram:800032c4    b4              ??          B4h                                     
ram:800032c5    50              ??          50h    P                                
ram:800032c6    9f              ??          9Fh                                     
ram:800032c7    e5              ??          E5h                                     
ram:800032c8    20              ??          20h                                     
ram:800032c9    42              ??          42h    B                                
ram:800032ca    a0              ??          A0h                                     
ram:800032cb    e1              ??          E1h                                     
ram:800032cc    00              ??          00h                                     
ram:800032cd    30              ??          30h    0                                
ram:800032ce    a0              ??          A0h                                     
ram:800032cf    e3              ??          E3h                                     
ram:800032d0    05              ??          05h                                     
ram:800032d1    20              ??          20h                                     
ram:800032d2    a0              ??          A0h                                     
ram:800032d3    e3              ??          E3h                                     
ram:800032d4    03              ??          03h                                     
ram:800032d5    10              ??          10h                                     
ram:800032d6    a0              ??          A0h                                     
ram:800032d7    e1              ??          E1h                                     
ram:800032d8    05              ??          05h                                     
ram:800032d9    00              ??          00h                                     
ram:800032da    a0              ??          A0h                                     
ram:800032db    e1              ??          E1h                                     
ram:800032dc    ca              ??          CAh                                     
ram:800032dd    f8              ??          F8h                                     
ram:800032de    ff              ??          FFh                                     
ram:800032df    eb              ??          EBh                                     
ram:800032e0    00              ??          00h                                     
ram:800032e1    30              ??          30h    0                                
ram:800032e2    a0              ??          A0h                                     
ram:800032e3    e3              ??          E3h                                     
ram:800032e4    05              ??          05h                                     
ram:800032e5    20              ??          20h                                     
ram:800032e6    a0              ??          A0h                                     
ram:800032e7    e3              ??          E3h                                     
ram:800032e8    01              ??          01h                                     
ram:800032e9    10              ??          10h                                     
ram:800032ea    a0              ??          A0h                                     
ram:800032eb    e3              ??          E3h                                     
ram:800032ec    05              ??          05h                                     
ram:800032ed    00              ??          00h                                     
ram:800032ee    a0              ??          A0h                                     
ram:800032ef    e1              ??          E1h                                     
ram:800032f0    c5              ??          C5h                                     
ram:800032f1    f8              ??          F8h                                     
ram:800032f2    ff              ??          FFh                                     
ram:800032f3    eb              ??          EBh                                     
ram:800032f4    88              ??          88h                                     
ram:800032f5    10              ??          10h                                     
ram:800032f6    9f              ??          9Fh                                     
ram:800032f7    e5              ??          E5h                                     
ram:800032f8    00              ??          00h                                     
ram:800032f9    00              ??          00h                                     
ram:800032fa    91              ??          91h                                     
ram:800032fb    e5              ??          E5h                                     
ram:800032fc    01              ??          01h                                     
ram:800032fd    06              ??          06h                                     
ram:800032fe    80              ??          80h                                     
ram:800032ff    e3              ??          E3h                                     
ram:80003300    00              ??          00h                                     
ram:80003301    00              ??          00h                                     
ram:80003302    81              ??          81h                                     
ram:80003303    e5              ??          E5h                                     
ram:80003304    9a              ??          9Ah                                     
ram:80003305    1f              ??          1Fh                                     
ram:80003306    81              ??          81h                                     
ram:80003307    e2              ??          E2h                                     
ram:80003308    00              ??          00h                                     
ram:80003309    00              ??          00h                                     
ram:8000330a    91              ??          91h                                     
ram:8000330b    e5              ??          E5h                                     
ram:8000330c    01              ??          01h                                     
ram:8000330d    06              ??          06h                                     
ram:8000330e    80              ??          80h                                     
ram:8000330f    e3              ??          E3h                                     
ram:80003310    00              ??          00h                                     
ram:80003311    00              ??          00h                                     
ram:80003312    81              ??          81h                                     
ram:80003313    e5              ??          E5h                                     
ram:80003314    6c              ??          6Ch    l                                
ram:80003315    20              ??          20h                                     
ram:80003316    9f              ??          9Fh                                     
ram:80003317    e5              ??          E5h                                     
ram:80003318    00              ??          00h                                     
ram:80003319    00              ??          00h                                     
ram:8000331a    a0              ??          A0h                                     
ram:8000331b    e3              ??          E3h                                     
ram:8000331c    00              ??          00h                                     
ram:8000331d    00              ??          00h                                     
ram:8000331e    82              ??          82h                                     
ram:8000331f    e5              ??          E5h                                     
ram:80003320    04              ??          04h                                     
ram:80003321    30              ??          30h    0                                
ram:80003322    82              ??          82h                                     
ram:80003323    e2              ??          E2h                                     
ram:80003324    f7              ??          F7h                                     
ram:80003325    10              ??          10h                                     
ram:80003326    a0              ??          A0h                                     
ram:80003327    e3              ??          E3h                                     
ram:80003328    00              ??          00h                                     
ram:80003329    10              ??          10h                                     
ram:8000332a    83              ??          83h                                     
ram:8000332b    e5              ??          E5h                                     
ram:8000332c    0c              ??          0Ch                                     
ram:8000332d    10              ??          10h                                     
ram:8000332e    82              ??          82h                                     
ram:8000332f    e2              ??          E2h                                     
ram:80003330    00              ??          00h                                     
ram:80003331    00              ??          00h                                     
ram:80003332    81              ??          81h                                     
ram:80003333    e5              ??          E5h                                     
ram:80003334    04              ??          04h                                     
ram:80003335    00              ??          00h                                     
ram:80003336    41              ??          41h    A                                
ram:80003337    e2              ??          E2h                                     
ram:80003338    00              ??          00h                                     
ram:80003339    10              ??          10h                                     
ram:8000333a    90              ??          90h                                     
ram:8000333b    e5              ??          E5h                                     
ram:8000333c    80              ??          80h                                     
ram:8000333d    10              ??          10h                                     
ram:8000333e    81              ??          81h                                     
ram:8000333f    e3              ??          E3h                                     
ram:80003340    00              ??          00h                                     
ram:80003341    10              ??          10h                                     
ram:80003342    80              ??          80h                                     
ram:80003343    e5              ??          E5h                                     
ram:80003344    0c              ??          0Ch                                     
ram:80003345    30              ??          30h    0                                
ram:80003346    40              ??          40h    @                                
ram:80003347    e2              ??          E2h                                     
ram:80003348    ff              ??          FFh                                     
ram:80003349    10              ??          10h                                     
ram:8000334a    04              ??          04h                                     
ram:8000334b    e2              ??          E2h                                     
ram:8000334c    00              ??          00h                                     
ram:8000334d    10              ??          10h                                     
ram:8000334e    83              ??          83h                                     
ram:8000334f    e5              ??          E5h                                     
ram:80003350    04              ??          04h                                     
ram:80003351    18              ??          18h                                     
ram:80003352    a0              ??          A0h                                     
ram:80003353    e1              ??          E1h                                     
ram:80003354    21              ??          21h    !                                
ram:80003355    1c              ??          1Ch                                     
ram:80003356    a0              ??          A0h                                     
ram:80003357    e1              ??          E1h                                     
ram:80003358    00              ??          00h                                     
ram:80003359    10              ??          10h                                     
ram:8000335a    82              ??          82h                                     
ram:8000335b    e5              ??          E5h                                     
ram:8000335c    00              ??          00h                                     
ram:8000335d    10              ??          10h                                     
ram:8000335e    90              ??          90h                                     
ram:8000335f    e5              ??          E5h                                     
ram:80003360    80              ??          80h                                     
ram:80003361    10              ??          10h                                     
ram:80003362    c1              ??          C1h                                     
ram:80003363    e3              ??          E3h                                     
ram:80003364    00              ??          00h                                     
ram:80003365    10              ??          10h                                     
ram:80003366    80              ??          80h                                     
ram:80003367    e5              ??          E5h                                     
ram:80003368    00              ??          00h                                     
ram:80003369    10              ??          10h                                     
ram:8000336a    90              ??          90h                                     
ram:8000336b    e5              ??          E5h                                     
ram:8000336c    1f              ??          1Fh                                     
ram:8000336d    10              ??          10h                                     
ram:8000336e    c1              ??          C1h                                     
ram:8000336f    e3              ??          E3h                                     
ram:80003370    03              ??          03h                                     
ram:80003371    10              ??          10h                                     
ram:80003372    81              ??          81h                                     
ram:80003373    e3              ??          E3h                                     
ram:80003374    00              ??          00h                                     
ram:80003375    10              ??          10h                                     
ram:80003376    80              ??          80h                                     
ram:80003377    e5              ??          E5h                                     
ram:80003378    70              ??          70h    p                                
ram:80003379    80              ??          80h                                     
ram:8000337a    bd              ??          BDh                                     
ram:8000337b    e8              ??          E8h                                     
ram:8000337c    00              ??          00h                                     
ram:8000337d    6c              ??          6Ch    l                                
ram:8000337e    dc              ??          DCh                                     
ram:8000337f    02              ??          02h                                     
ram:80003380    90              ??          90h                                     
ram:80003381    08              ??          08h                                     
ram:80003382    c2              ??          C2h                                     
ram:80003383    01              ??          01h                                     
ram:80003384    68              ??          68h    h                                
ram:80003385    00              ??          00h                                     
ram:80003386    c2              ??          C2h                                     
ram:80003387    01              ??          01h                                     
ram:80003388    04              ??          04h                                     
ram:80003389    50              ??          50h    P                                
ram:8000338a    c2              ??          C2h                                     
ram:8000338b    01              ??          01h                                     
                            ;************************************************************************************************
                            ;*                                           FUNCTION                                           *
                            ;************************************************************************************************
                            ;undefined FUN_8000338c()
                                                          ;XREF[1,0]:   80001008
ram:8000338c    24009fe5        ldr         r0,[DAT_800033b8]                       ;= 01C20CB4h
ram:80003390    001090e5        ldr         r1,[r0,#0x0]=>DAT_01c20cb4              
ram:80003394    011081e3        orr         r1,r1,#0x1                              
ram:80003398    001080e5        str         r1,[r0,#0x0]=>DAT_01c20cb4              
ram:8000339c    040080e2        add         r0,r0,#0x4                              
ram:800033a0    001090e5        ldr         r1,[r0,#0x0]=>DAT_01c20cb8              
ram:800033a4    001080e5        str         r1,[r0,#0x0]=>DAT_01c20cb8              
ram:800033a8    001090e5        ldr         r1,[r0,#0x0]=>DAT_01c20cb8              
ram:800033ac    011081e3        orr         r1,r1,#0x1                              
ram:800033b0    001080e5        str         r1,[r0,#0x0]=>DAT_01c20cb8              
                            LAB_800033b4:                 ;XREF[1,0]:   800033b4
ram:800033b4    feffffea        b           LAB_800033b4                            
                            DAT_800033b8:                 ;XREF[1,0]:   8000338c
ram:800033b8    b40cc201        undefined4  01C20CB4h                               
                            LAB_800033bc:                 ;XREF[2,0]:   80003218,8000323c
ram:800033bc    10402de9        stmdb       sp!,{r4 lr}                             
ram:800033c0    48009fe5        ldr         r0,[DAT_80003410]                       ;= 01C20C04h
ram:800033c4    0010a0e3        mov         r1,#0x0                                 
ram:800033c8    7a0b00eb        bl          FUN_800061b8                            ;undefined FUN_800061b8()
ram:800033cc    014080e3        orr         r4,r0,#0x1                              
ram:800033d0    0420a0e1        mov         r2,r4                                   
ram:800033d4    34009fe5        ldr         r0,[DAT_80003410]                       ;= 01C20C04h
ram:800033d8    0010a0e3        mov         r1,#0x0                                 
ram:800033dc    631000eb        bl          FUN_80007570                            ;undefined FUN_80007570()
ram:800033e0    2c009fe5        ldr         r0,[PTR_DAT_80003414]                   ;= 800079c4
ram:800033e4    000090e5        ldr         r0,[r0,#0x0]=>DAT_800079c4              
ram:800033e8    010080e2        add         r0,r0,#0x1                              
ram:800033ec    20109fe5        ldr         r1,[PTR_DAT_80003414]                   ;= 800079c4
ram:800033f0    000081e5        str         r0,[r1,#0x0]=>DAT_800079c4              
ram:800033f4    000081e2        add         r0,r1,#0x0                              
ram:800033f8    000090e5        ldr         r0,[r0,#0x0]=>DAT_800079c4              
ram:800033fc    010070e3        cmn         r0,#0x1                                 
ram:80003400    0100001a        bne         LAB_8000340c                            
ram:80003404    0000a0e3        mov         r0,#0x0                                 
ram:80003408    000081e5        str         r0,[r1,#0x0]=>DAT_800079c4              
                            LAB_8000340c:                 ;XREF[1,0]:   80003400
ram:8000340c    1080bde8        ldmia       sp!,{r4 pc}                             
                            DAT_80003410:                 ;XREF[2,0]:   800033c0,800033d4
ram:80003410    040cc201        undefined4  01C20C04h                               
                            PTR_DAT_80003414:             ;XREF[2,0]:   800033e0,800033ec
ram:80003414    c4790080        addr        DAT_800079c4                            
                            ;************************************************************************************************
                            ;*                                           FUNCTION                                           *
                            ;************************************************************************************************
                            ;undefined FUN_80003418()
ram:80003418    70402de9        stmdb       sp!,{r4 r5 r6 lr}                       
ram:8000341c    104090e5        ldr         r4,[r0,#0x10]                           
ram:80003420    0050a0e1        mov         r5,r0                                   
ram:80003424    10019fe5        ldr         r0,[DAT_8000353c]                       ;= 01C20010h
ram:80003428    001090e5        ldr         r1,[r0,#0x0]=>DAT_01c20010              
ram:8000342c    0211c1e3        bic         r1,r1,#0x80000000                       
ram:80003430    001080e5        str         r1,[r0,#0x0]=>DAT_01c20010              
ram:80003434    04119fe5        ldr         r1,[DAT_80003540]                       ;= 03004003h
ram:80003438    001080e5        str         r1,[r0,#0x0]=>DAT_01c20010              
ram:8000343c    001090e5        ldr         r1,[r0,#0x0]=>DAT_01c20010              
ram:80003440    021181e3        orr         r1,r1,#0x80000000                       
ram:80003444    001080e5        str         r1,[r0,#0x0]=>DAT_01c20010              
ram:80003448    0100a0e3        mov         r0,#0x1                                 
ram:8000344c    24f7ffeb        bl          FUN_800010e4                            ;undefined FUN_800010e4()
ram:80003450    ec109fe5        ldr         r1,[DAT_80003544]                       ;= 01C20064h
ram:80003454    000091e5        ldr         r0,[r1,#0x0]=>DAT_01c20064              
ram:80003458    100080e3        orr         r0,r0,#0x10                             
ram:8000345c    000081e5        str         r0,[r1,#0x0]=>DAT_01c20064              
ram:80003460    b41081e2        add         r1,r1,#0xb4                             
ram:80003464    000091e5        ldr         r0,[r1,#0x0]=>DAT_01c20118              
ram:80003468    020180e3        orr         r0,r0,#0x80000000                       
ram:8000346c    000081e5        str         r0,[r1,#0x0]=>DAT_01c20118              
ram:80003470    6b0f81e2        add         r0,r1,#0x1ac                            
ram:80003474    001090e5        ldr         r1,[r0,#0x0]=>DAT_01c202c4              
ram:80003478    101081e3        orr         r1,r1,#0x10                             
ram:8000347c    001080e5        str         r1,[r0,#0x0]=>DAT_01c202c4              
ram:80003480    0100a0e3        mov         r0,#0x1                                 
ram:80003484    16f7ffeb        bl          FUN_800010e4                            ;undefined FUN_800010e4()
ram:80003488    000094e5        ldr         r0,[r4,#0x0]                            
ram:8000348c    0010a0e3        mov         r1,#0x0                                 
ram:80003490    0100c0e3        bic         r0,r0,#0x1                              
ram:80003494    000084e5        str         r0,[r4,#0x0]                            
ram:80003498    5000d5e5        ldrb        r0,[r5,#0x50]                           
ram:8000349c    5420d5e5        ldrb        r2,[r5,#0x54]                           
ram:800034a0    020080e0        add         r0,r0,r2                                
ram:800034a4    5820d5e5        ldrb        r2,[r5,#0x58]                           
ram:800034a8    020080e0        add         r0,r0,r2                                
ram:800034ac    1f0000e2        and         r0,r0,#0x1f                             
ram:800034b0    0221a0e3        mov         r2,#0x80000000                          
ram:800034b4    002282e1        orr         r2,r2,r0, lsl #0x4                      
ram:800034b8    402084e5        str         r2,[r4,#0x40]                           
ram:800034bc    6f22a0e3        mov         r2,#0xf0000006                          
ram:800034c0    442084e5        str         r2,[r4,#0x44]                           
ram:800034c4    bc21d5e1        ldrh        r2,[r5,#0x1c]                           
ram:800034c8    200095e5        ldr         r0,[r5,#0x20]                           
ram:800034cc    010040e2        sub         r0,r0,#0x1                              
ram:800034d0    012042e2        sub         r2,r2,#0x1                              
ram:800034d4    022880e1        orr         r2,r0,r2, lsl #0x10                     
ram:800034d8    482084e5        str         r2,[r4,#0x48]                           
ram:800034dc    64209fe5        ldr         r2,[DAT_80003548]                       ;= 041E0044h
ram:800034e0    4c2084e5        str         r2,[r4,#0x4c]                           
ram:800034e4    60209fe5        ldr         r2,[DAT_8000354c]                       ;= 041A0017h
ram:800034e8    502084e5        str         r2,[r4,#0x50]                           
ram:800034ec    1628a0e3        mov         r2,#0x160000                            
ram:800034f0    542084e5        str         r2,[r4,#0x54]                           
ram:800034f4    581084e5        str         r1,[r4,#0x58]                           
ram:800034f8    601084e5        str         r1,[r4,#0x60]                           
ram:800034fc    5c2095e5        ldr         r2,[r5,#0x5c]                           
ram:80003500    0102a0e3        mov         r0,#0x10000000                          
ram:80003504    000052e3        cmp         r2,#0x0                                 
ram:80003508    602095e5        ldr         r2,[r5,#0x60]                           
ram:8000350c    1204a003        moveq       r0,#0x12000000                          
ram:80003510    000052e3        cmp         r2,#0x0                                 
ram:80003514    642095e5        ldr         r2,[r5,#0x64]                           
ram:80003518    01048003        orreq       r0,r0,#0x1000000                        
ram:8000351c    000052e3        cmp         r2,#0x0                                 
ram:80003520    682095e5        ldr         r2,[r5,#0x68]                           
ram:80003524    02038003        orreq       r0,r0,#0x8000000                        
ram:80003528    000052e3        cmp         r2,#0x0                                 
ram:8000352c    01038003        orreq       r0,r0,#0x4000000                        
ram:80003530    880084e5        str         r0,[r4,#0x88]                           
ram:80003534    8c1084e5        str         r1,[r4,#0x8c]                           
ram:80003538    7080bde8        ldmia       sp!,{r4 r5 r6 pc}                       
                            DAT_8000353c:                 ;XREF[1,0]:   80003424
ram:8000353c    1000c201        undefined4  01C20010h                               
                            DAT_80003540:                 ;XREF[1,0]:   80003434
ram:80003540    03400003        undefined4  03004003h                               
                            DAT_80003544:                 ;XREF[1,0]:   80003450
ram:80003544    6400c201        undefined4  01C20064h                               
                            DAT_80003548:                 ;XREF[1,0]:   800034dc
ram:80003548    44001e04        undefined4  041E0044h                               
                            DAT_8000354c:                 ;XREF[1,0]:   800034e4
ram:8000354c    17001a04        undefined4  041A0017h                               
                            ;************************************************************************************************
                            ;*                                           FUNCTION                                           *
                            ;************************************************************************************************
                            ;undefined FUN_80003550()
          ;local_20      undefined4         -20                      ;XREF[1,0]:   80003718
                                                          ;XREF[1,0]:   80003210
ram:80003550    80472de9        stmdb       sp!,{r7 r8 r9 r10 lr}                   
ram:80003554    70002de9        stmdb       sp!,{r4 r5 r6}                          
ram:80003558    0040a0e1        mov         r4,r0                                   
ram:8000355c    0160a0e1        mov         r6,r1                                   
ram:80003560    0290a0e1        mov         r9,r2                                   
ram:80003564    0050a0e3        mov         r5,#0x0                                 
ram:80003568    010084e2        add         r0,r4,#0x1                              
ram:8000356c    0010a0e3        mov         r1,#0x0                                 
ram:80003570    000281e0        add         r0,r1,r0, lsl #0x4                      
ram:80003574    070580e2        add         r0,r0,#0x1c00000                        
ram:80003578    830b80e2        add         r0,r0,#0x20c00                          
ram:8000357c    c08fa0e1        mov         r8,r0, asr #0x1f                        
ram:80003580    0070a0e1        mov         r7,r0                                   
ram:80003584    0120a0e1        mov         r2,r1                                   
ram:80003588    0810a0e1        mov         r1,r8                                   
ram:8000358c    f70f00eb        bl          FUN_80007570                            ;undefined FUN_80007570()
ram:80003590    0000a0e1        mov         r0,r0                                   
ram:80003594    010084e2        add         r0,r4,#0x1                              
ram:80003598    0010a0e3        mov         r1,#0x0                                 
ram:8000359c    000281e0        add         r0,r1,r0, lsl #0x4                      
ram:800035a0    070580e2        add         r0,r0,#0x1c00000                        
ram:800035a4    830b80e2        add         r0,r0,#0x20c00                          
ram:800035a8    c01fa0e1        mov         r1,r0, asr #0x1f                        
ram:800035ac    0020a0e1        mov         r2,r0                                   
ram:800035b0    000b00eb        bl          FUN_800061b8                            ;undefined FUN_800061b8()
ram:800035b4    85a380e1        orr         r10,r0,r5, lsl #0x7                     
ram:800035b8    010084e2        add         r0,r4,#0x1                              
ram:800035bc    0010a0e3        mov         r1,#0x0                                 
ram:800035c0    000281e0        add         r0,r1,r0, lsl #0x4                      
ram:800035c4    070580e2        add         r0,r0,#0x1c00000                        
ram:800035c8    830b80e2        add         r0,r0,#0x20c00                          
ram:800035cc    c01fa0e1        mov         r1,r0, asr #0x1f                        
ram:800035d0    0070a0e1        mov         r7,r0                                   
ram:800035d4    0a20a0e1        mov         r2,r10                                  
ram:800035d8    e40f00eb        bl          FUN_80007570                            ;undefined FUN_80007570()
ram:800035dc    0000a0e1        mov         r0,r0                                   
ram:800035e0    010084e2        add         r0,r4,#0x1                              
ram:800035e4    0010a0e3        mov         r1,#0x0                                 
ram:800035e8    000281e0        add         r0,r1,r0, lsl #0x4                      
ram:800035ec    070580e2        add         r0,r0,#0x1c00000                        
ram:800035f0    830b80e2        add         r0,r0,#0x20c00                          
ram:800035f4    c01fa0e1        mov         r1,r0, asr #0x1f                        
ram:800035f8    0020a0e1        mov         r2,r0                                   
ram:800035fc    ed0a00eb        bl          FUN_800061b8                            ;undefined FUN_800061b8()
ram:80003600    05a280e1        orr         r10,r0,r5, lsl #0x4                     
ram:80003604    010084e2        add         r0,r4,#0x1                              
ram:80003608    0010a0e3        mov         r1,#0x0                                 
ram:8000360c    000281e0        add         r0,r1,r0, lsl #0x4                      
ram:80003610    070580e2        add         r0,r0,#0x1c00000                        
ram:80003614    830b80e2        add         r0,r0,#0x20c00                          
ram:80003618    c01fa0e1        mov         r1,r0, asr #0x1f                        
ram:8000361c    0070a0e1        mov         r7,r0                                   
ram:80003620    0a20a0e1        mov         r2,r10                                  
ram:80003624    d10f00eb        bl          FUN_80007570                            ;undefined FUN_80007570()
ram:80003628    0150a0e3        mov         r5,#0x1                                 
ram:8000362c    010084e2        add         r0,r4,#0x1                              
ram:80003630    0010a0e3        mov         r1,#0x0                                 
ram:80003634    000281e0        add         r0,r1,r0, lsl #0x4                      
ram:80003638    070580e2        add         r0,r0,#0x1c00000                        
ram:8000363c    830b80e2        add         r0,r0,#0x20c00                          
ram:80003640    c01fa0e1        mov         r1,r0, asr #0x1f                        
ram:80003644    0020a0e1        mov         r2,r0                                   
ram:80003648    da0a00eb        bl          FUN_800061b8                            ;undefined FUN_800061b8()
ram:8000364c    05a180e1        orr         r10,r0,r5, lsl #0x2                     
ram:80003650    010084e2        add         r0,r4,#0x1                              
ram:80003654    0010a0e3        mov         r1,#0x0                                 
ram:80003658    000281e0        add         r0,r1,r0, lsl #0x4                      
ram:8000365c    070580e2        add         r0,r0,#0x1c00000                        
ram:80003660    830b80e2        add         r0,r0,#0x20c00                          
ram:80003664    c01fa0e1        mov         r1,r0, asr #0x1f                        
ram:80003668    0070a0e1        mov         r7,r0                                   
ram:8000366c    0a20a0e1        mov         r2,r10                                  
ram:80003670    be0f00eb        bl          FUN_80007570                            ;undefined FUN_80007570()
ram:80003674    0000a0e1        mov         r0,r0                                   
ram:80003678    010084e2        add         r0,r4,#0x1                              
ram:8000367c    0010a0e3        mov         r1,#0x0                                 
ram:80003680    000281e0        add         r0,r1,r0, lsl #0x4                      
ram:80003684    070580e2        add         r0,r0,#0x1c00000                        
ram:80003688    830b80e2        add         r0,r0,#0x20c00                          
ram:8000368c    c01fa0e1        mov         r1,r0, asr #0x1f                        
ram:80003690    0020a0e1        mov         r2,r0                                   
ram:80003694    c70a00eb        bl          FUN_800061b8                            ;undefined FUN_800061b8()
ram:80003698    85a080e1        orr         r10,r0,r5, lsl #0x1                     
ram:8000369c    010084e2        add         r0,r4,#0x1                              
ram:800036a0    0010a0e3        mov         r1,#0x0                                 
ram:800036a4    000281e0        add         r0,r1,r0, lsl #0x4                      
ram:800036a8    070580e2        add         r0,r0,#0x1c00000                        
ram:800036ac    830b80e2        add         r0,r0,#0x20c00                          
ram:800036b0    c01fa0e1        mov         r1,r0, asr #0x1f                        
ram:800036b4    0070a0e1        mov         r7,r0                                   
ram:800036b8    0a20a0e1        mov         r2,r10                                  
ram:800036bc    ab0f00eb        bl          FUN_80007570                            ;undefined FUN_80007570()
ram:800036c0    860086e0        add         r0,r6,r6, lsl #0x1                      
ram:800036c4    8051a0e1        mov         r5,r0, lsl #0x3                         
ram:800036c8    010084e2        add         r0,r4,#0x1                              
ram:800036cc    0410a0e3        mov         r1,#0x4                                 
ram:800036d0    000281e0        add         r0,r1,r0, lsl #0x4                      
ram:800036d4    070580e2        add         r0,r0,#0x1c00000                        
ram:800036d8    830b80e2        add         r0,r0,#0x20c00                          
ram:800036dc    c01fa0e1        mov         r1,r0, asr #0x1f                        
ram:800036e0    0070a0e1        mov         r7,r0                                   
ram:800036e4    0520a0e1        mov         r2,r5                                   
ram:800036e8    a00f00eb        bl          FUN_80007570                            ;undefined FUN_80007570()
ram:800036ec    010059e3        cmp         r9,#0x1                                 
ram:800036f0    0800001a        bne         LAB_80003718                            
ram:800036f4    24009fe5        ldr         r0,[DAT_80003720]                       ;= 01C20C00h
ram:800036f8    0010a0e3        mov         r1,#0x0                                 
ram:800036fc    ad0a00eb        bl          FUN_800061b8                            ;undefined FUN_800061b8()
ram:80003700    0110a0e3        mov         r1,#0x1                                 
ram:80003704    117480e1        orr         r7,r0,r1, lsl r4                        
ram:80003708    0720a0e1        mov         r2,r7                                   
ram:8000370c    0c009fe5        ldr         r0,[DAT_80003720]                       ;= 01C20C00h
ram:80003710    0010a0e3        mov         r1,#0x0                                 
ram:80003714    950f00eb        bl          FUN_80007570                            ;undefined FUN_80007570()
                            LAB_80003718:                 ;XREF[1,0]:   800036f0
ram:80003718    f001bde8        ldmia       sp!,{r4 r5 r6 r7 r8}=>local_20          
ram:8000371c    0086bde8        ldmia       sp!,{r9 r10 pc}                         
                            DAT_80003720:                 ;XREF[2,0]:   800036f4,8000370c
ram:80003720    000cc201        undefined4  01C20C00h                               
                            ;************************************************************************************************
                            ;*                                           FUNCTION                                           *
                            ;************************************************************************************************
                            ;undefined FUN_80003724()
          ;local_18      undefined4         -18                      ;XREF[2,0]:   80003728,80003778
                                                          ;XREF[1,0]:   8000322c
ram:80003724    e0412de9        stmdb       sp!,{r5 r6 r7 r8 lr}                    
ram:80003728    04402de5        str         r4,[sp,#local_18+0x14]!                 
ram:8000372c    0040a0e1        mov         r4,r0                                   
ram:80003730    010084e2        add         r0,r4,#0x1                              
ram:80003734    0010a0e3        mov         r1,#0x0                                 
ram:80003738    000281e0        add         r0,r1,r0, lsl #0x4                      
ram:8000373c    070580e2        add         r0,r0,#0x1c00000                        
ram:80003740    830b80e2        add         r0,r0,#0x20c00                          
ram:80003744    c01fa0e1        mov         r1,r0, asr #0x1f                        
ram:80003748    0020a0e1        mov         r2,r0                                   
ram:8000374c    990a00eb        bl          FUN_800061b8                            ;undefined FUN_800061b8()
ram:80003750    015080e3        orr         r5,r0,#0x1                              
ram:80003754    010084e2        add         r0,r4,#0x1                              
ram:80003758    0010a0e3        mov         r1,#0x0                                 
ram:8000375c    000281e0        add         r0,r1,r0, lsl #0x4                      
ram:80003760    070580e2        add         r0,r0,#0x1c00000                        
ram:80003764    830b80e2        add         r0,r0,#0x20c00                          
ram:80003768    c01fa0e1        mov         r1,r0, asr #0x1f                        
ram:8000376c    0060a0e1        mov         r6,r0                                   
ram:80003770    0520a0e1        mov         r2,r5                                   
ram:80003774    7d0f00eb        bl          FUN_80007570                            ;undefined FUN_80007570()
ram:80003778    f001bde8        ldmia       sp!,{r4 r5 r6 r7 r8}=>local_18          
ram:8000377c    04f09de4        ldr         pc,[sp],#0x4                            
ram:80003780    01              ??          01h                                     
ram:80003781    24              ??          24h    $                                
ram:80003782    a0              ??          A0h                                     
ram:80003783    e3              ??          E3h                                     
ram:80003784    04              ??          04h                                     
ram:80003785    00              ??          00h                                     
ram:80003786    9f              ??          9Fh                                     
ram:80003787    e5              ??          E5h                                     
ram:80003788    02              ??          02h                                     
ram:80003789    30              ??          30h    0                                
ram:8000378a    a0              ??          A0h                                     
ram:8000378b    e1              ??          E1h                                     
ram:8000378c    1e              ??          1Eh                                     
ram:8000378d    ff              ??          FFh                                     
ram:8000378e    2f              ??          2Fh    /                                
ram:8000378f    e1              ??          E1h                                     
ram:80003790    54              ??          54h    T                                
ram:80003791    30              ??          30h    0                                
ram:80003792    45              ??          45h    E                                
ram:80003793    80              ??          80h                                     
                            ;************************************************************************************************
                            ;*                                           FUNCTION                                           *
                            ;************************************************************************************************
                            ;undefined FUN_80003794()
                                                          ;XREF[2,0]:   8000089e,80003794
ram:80003794    feffffea        b           FUN_80003794                            
                            ;************************************************************************************************
                            ;*                                           FUNCTION                                           *
                            ;************************************************************************************************
                            ;undefined FUN_80003798()
                                                          ;XREF[3,0]:   80000900,80000912,80000922
ram:80003798    1eff2fe1        bx          lr                                      
                            ;************************************************************************************************
                            ;*                                           FUNCTION                                           *
                            ;************************************************************************************************
                            ;undefined FUN_8000379c()
          ;local_4       undefined4          -4                      ;XREF[1,0]:   8000379c
                                                          ;XREF[1,0]:   80006ea0
ram:8000379c    04e02de5        str         lr,[sp,#local_4]!                       
ram:800037a0    110000eb        bl          FUN_800037ec                            ;undefined FUN_800037ec()
ram:800037a4    0020a0e1        mov         r2,r0                                   
ram:800037a8    040082e3        orr         r0,r2,#0x4                              
ram:800037ac    170000eb        bl          FUN_80003810                            ;undefined FUN_80003810()
ram:800037b0    04f09de4        ldr         pc,[sp],#0x4                            
                            ;************************************************************************************************
                            ;*                                           FUNCTION                                           *
                            ;************************************************************************************************
                            ;undefined FUN_800037b4()
                                                          ;XREF[1,0]:   80006e94
ram:800037b4    100f03ee        mcr         p15,0x0,r0,cr3,cr0,0x0                  
ram:800037b8    1eff2fe1        bx          lr                                      
                            ;************************************************************************************************
                            ;*                                           FUNCTION                                           *
                            ;************************************************************************************************
                            ;undefined FUN_800037bc()
          ;local_4       undefined4          -4                      ;XREF[1,0]:   800037bc
                                                          ;XREF[1,0]:   80006e9c
ram:800037bc    04e02de5        str         lr,[sp,#local_4]!                       
ram:800037c0    090000eb        bl          FUN_800037ec                            ;undefined FUN_800037ec()
ram:800037c4    0020a0e1        mov         r2,r0                                   
ram:800037c8    010a82e3        orr         r0,r2,#0x1000                           
ram:800037cc    0f0000eb        bl          FUN_80003810                            ;undefined FUN_80003810()
ram:800037d0    04f09de4        ldr         pc,[sp],#0x4                            
                            ;************************************************************************************************
                            ;*                                           FUNCTION                                           *
                            ;************************************************************************************************
                            ;undefined FUN_800037d4()
          ;local_4       undefined4          -4                      ;XREF[1,0]:   800037d4
                                                          ;XREF[1,0]:   80006e98
ram:800037d4    04e02de5        str         lr,[sp,#local_4]!                       
ram:800037d8    030000eb        bl          FUN_800037ec                            ;undefined FUN_800037ec()
ram:800037dc    0020a0e1        mov         r2,r0                                   
ram:800037e0    010082e3        orr         r0,r2,#0x1                              
ram:800037e4    090000eb        bl          FUN_80003810                            ;undefined FUN_80003810()
ram:800037e8    04f09de4        ldr         pc,[sp],#0x4                            
                            ;************************************************************************************************
                            ;*                                           FUNCTION                                           *
                            ;************************************************************************************************
                            ;undefined FUN_800037ec()
                                                          ;XREF[3,0]:   800037a0,800037c0,800037d8
ram:800037ec    100f11ee        mrc         p15,0x0,r0,cr1,cr0,0x0                  
ram:800037f0    1eff2fe1        bx          lr                                      
                            ;************************************************************************************************
                            ;*                                           FUNCTION                                           *
                            ;************************************************************************************************
                            ;undefined FUN_800037f4()
                                                          ;XREF[1,0]:   80006e8c
ram:800037f4    0000a0e3        mov         r0,#0x0                                 
ram:800037f8    9a0f07ee        mcr         p15,0x0,r0,cr7,cr10,0x4                 
ram:800037fc    160f08ee        mcr         p15,0x0,r0,cr8,cr6,0x0                  
ram:80003800    150f08ee        mcr         p15,0x0,r0,cr8,cr5,0x0                  
ram:80003804    1eff2fe1        bx          lr                                      
                            ;************************************************************************************************
                            ;*                                           FUNCTION                                           *
                            ;************************************************************************************************
                            ;undefined FUN_80003808()
                                                          ;XREF[1,0]:   80006e88
ram:80003808    100f02ee        mcr         p15,0x0,r0,cr2,cr0,0x0                  
ram:8000380c    1eff2fe1        bx          lr                                      
                            ;************************************************************************************************
                            ;*                                           FUNCTION                                           *
                            ;************************************************************************************************
                            ;undefined FUN_80003810()
                                                          ;XREF[3,0]:   800037ac,800037cc,800037e4
ram:80003810    100f01ee        mcr         p15,0x0,r0,cr1,cr0,0x0                  
ram:80003814    1eff2fe1        bx          lr                                      
                            ;************************************************************************************************
                            ;*                                           FUNCTION                                           *
                            ;************************************************************************************************
                            ;undefined FUN_80003818()
ram:80003818    10402de9        stmdb       sp!,{r4 lr}                             
ram:8000381c    44109fe5        ldr         r1,[DAT_80003868]                       
ram:80003820    44008fe2        adr         r0=>s_clock_set_...,0x8000386c          ;= "clock_set_pll6: %d hz\r\n"
ram:80003824    0c0e00eb        bl          FUN_8000705c                            ;undefined FUN_8000705c()
ram:80003828    54009fe5        ldr         r0,[DAT_80003884]                       ;= 01C20028h
ram:8000382c    001090e5        ldr         r1,[r0,#0x0]=>DAT_01c20028              
ram:80003830    0211c1e3        bic         r1,r1,#0x80000000                       
ram:80003834    001080e5        str         r1,[r0,#0x0]=>DAT_01c20028              
ram:80003838    001090e5        ldr         r1,[r0,#0x0]=>DAT_01c20028              
ram:8000383c    2116a0e1        mov         r1,r1, lsr #0xc                         
ram:80003840    0116a0e1        mov         r1,r1, lsl #0xc                         
ram:80003844    001080e5        str         r1,[r0,#0x0]=>DAT_01c20028              
ram:80003848    001090e5        ldr         r1,[r0,#0x0]=>DAT_01c20028              
ram:8000384c    171c81e3        orr         r1,r1,#0x1700                           
ram:80003850    001080e5        str         r1,[r0,#0x0]=>DAT_01c20028              
ram:80003854    001090e5        ldr         r1,[r0,#0x0]=>DAT_01c20028              
ram:80003858    021181e3        orr         r1,r1,#0x80000000                       
ram:8000385c    001080e5        str         r1,[r0,#0x0]=>DAT_01c20028              
ram:80003860    0000a0e3        mov         r0,#0x0                                 
ram:80003864    1080bde8        ldmia       sp!,{r4 pc}                             
                            DAT_80003868:                 ;XREF[1,0]:   8000381c
ram:80003868    00              ??          00h                                     
ram:80003869    10              ??          10h                                     
                                                          ;XREF[0,2]:   80003820,80005a34
ram:8000386a    5522636c6...    ds          "U\"clock_set_pll6: %d hz\r\n"          
                            DAT_80003884:                 ;XREF[1,0]:   80003828
ram:80003884    2800c201        undefined4  01C20028h                               
                            ;************************************************************************************************
                            ;*                                           FUNCTION                                           *
                            ;************************************************************************************************
                            ;undefined FUN_80003888()
          ;local_18      undefined4         -18                      ;XREF[3,0]:   8000388c,800038a8,800038dc
                                                          ;XREF[1,0]:   80003b44
ram:80003888    e0412de9        stmdb       sp!,{r5 r6 r7 r8 lr}                    
ram:8000388c    04402de5        str         r4,[sp,#local_18+0x14]!                 
ram:80003890    006090e5        ldr         r6,[r0,#0x0]                            
ram:80003894    0170b0e1        movs        r7,r1                                   
ram:80003898    0080a0e1        mov         r8,r0                                   
ram:8000389c    2500000a        beq         LAB_80003938                            
ram:800038a0    430700eb        bl          FUN_800055b4                            ;undefined FUN_800055b4()
ram:800038a4    020050e3        cmp         r0,#0x2                                 
ram:800038a8    f001bd38        ldmiacc     sp!,{r4 r5 r6 r7 r8}=>local_18          
ram:800038ac    0100a033        movcc       r0,#0x1                                 
ram:800038b0    04f09d34        ldrcc       pc,[sp],#0x4                            
ram:800038b4    010070e3        cmn         r0,#0x1                                 
ram:800038b8    f001bd08        ldmiaeq     sp!,{r4 r5 r6 r7 r8}                    
ram:800038bc    04f09d04        ldreq       pc,[sp],#0x4                            
ram:800038c0    141096e5        ldr         r1,[r6,#0x14]                           
ram:800038c4    000051e1        cmp         r1,r0                                   
ram:800038c8    0740a091        movls       r4,r7                                   
ram:800038cc    f001bd88        ldmiahi     sp!,{r4 r5 r6 r7 r8}                    
ram:800038d0    04f09d84        ldrhi       pc,[sp],#0x4                            
                            LAB_800038d4:                 ;XREF[1,0]:   8000394c
ram:800038d4    100096e5        ldr         r0,[r6,#0x10]                           
ram:800038d8    000050e3        cmp         r0,#0x0                                 
ram:800038dc    f001bd08        ldmiaeq     sp!,{r4 r5 r6 r7 r8}=>local_18          
ram:800038e0    04f09d04        ldreq       pc,[sp],#0x4                            
ram:800038e4    070054e1        cmp         r4,r7                                   
ram:800038e8    1a00001a        bne         LAB_80003958                            
ram:800038ec    140096e5        ldr         r0,[r6,#0x14]                           
ram:800038f0    015084e2        add         r5,r4,#0x1                              
ram:800038f4    050050e1        cmp         r0,r5                                   
ram:800038f8    0250a093        movls       r5,#0x2                                 
ram:800038fc    0510a0e1        mov         r1,r5                                   
ram:80003900    0800a0e1        mov         r0,r8                                   
ram:80003904    2a0700eb        bl          FUN_800055b4                            ;undefined FUN_800055b4()
ram:80003908    010050e3        cmp         r0,#0x1                                 
ram:8000390c    01007013        cmnne       r0,#0x1                                 
ram:80003910    f001bd08        ldmiaeq     sp!,{r4 r5 r6 r7 r8}                    
ram:80003914    04f09d04        ldreq       pc,[sp],#0x4                            
ram:80003918    000050e3        cmp         r0,#0x0                                 
ram:8000391c    0b00000a        beq         LAB_80003950                            
ram:80003920    0c0096e5        ldr         r0,[r6,#0xc]                            
ram:80003924    020050e3        cmp         r0,#0x2                                 
ram:80003928    14109625        ldrcs       r1,[r6,#0x14]                           
ram:8000392c    00005121        cmpcs       r1,r0                                   
ram:80003930    0040a081        movhi       r4,r0                                   
ram:80003934    070000ea        b           LAB_80003958                            
                            LAB_80003938:                 ;XREF[1,0]:   8000389c
ram:80003938    0c4096e5        ldr         r4,[r6,#0xc]                            
ram:8000393c    000054e3        cmp         r4,#0x0                                 
ram:80003940    14009615        ldrne       r0,[r6,#0x14]                           
ram:80003944    04005011        cmpne       r0,r4                                   
ram:80003948    0140a093        movls       r4,#0x1                                 
ram:8000394c    e0ffffea        b           LAB_800038d4                            
                            LAB_80003950:                 ;XREF[1,0]:   8000391c
ram:80003950    000055e3        cmp         r5,#0x0                                 
ram:80003954    1500001a        bne         LAB_800039b0                            
                            LAB_80003958:                 ;XREF[2,0]:   800038e8,80003934
ram:80003958    0450a0e1        mov         r5,r4                                   
                            LAB_8000395c:                 ;XREF[1,0]:   800039a0
ram:8000395c    140096e5        ldr         r0,[r6,#0x14]                           
ram:80003960    015085e2        add         r5,r5,#0x1                              
ram:80003964    050050e1        cmp         r0,r5                                   
ram:80003968    0200008a        bhi         LAB_80003978                            
ram:8000396c    020054e3        cmp         r4,#0x2                                 
ram:80003970    0250a0e3        mov         r5,#0x2                                 
ram:80003974    0a00003a        bcc         LAB_800039a4                            
                            LAB_80003978:                 ;XREF[1,0]:   80003968
ram:80003978    0510a0e1        mov         r1,r5                                   
ram:8000397c    0800a0e1        mov         r0,r8                                   
ram:80003980    0b0700eb        bl          FUN_800055b4                            ;undefined FUN_800055b4()
ram:80003984    000050e3        cmp         r0,#0x0                                 
ram:80003988    0800000a        beq         LAB_800039b0                            
ram:8000398c    010050e3        cmp         r0,#0x1                                 
ram:80003990    01007013        cmnne       r0,#0x1                                 
ram:80003994    f001bd08        ldmiaeq     sp!,{r4 r5 r6 r7 r8}                    
ram:80003998    04f09d04        ldreq       pc,[sp],#0x4                            
ram:8000399c    040055e1        cmp         r5,r4                                   
ram:800039a0    edffff1a        bne         LAB_8000395c                            
                            LAB_800039a4:                 ;XREF[1,0]:   80003974
ram:800039a4    f001bde8        ldmia       sp!,{r4 r5 r6 r7 r8}                    
ram:800039a8    0000a0e3        mov         r0,#0x0                                 
ram:800039ac    04f09de4        ldr         pc,[sp],#0x4                            
                            LAB_800039b0:                 ;XREF[2,0]:   80003954,80003988
ram:800039b0    0020e0e3        mvn         r2,#0x0                                 
ram:800039b4    0510a0e1        mov         r1,r5                                   
ram:800039b8    0600a0e1        mov         r0,r6                                   
ram:800039bc    930900eb        bl          FUN_80006010                            ;undefined FUN_80006010()
ram:800039c0    000050e3        cmp         r0,#0x0                                 
ram:800039c4    0700001a        bne         LAB_800039e8                            
ram:800039c8    000057e3        cmp         r7,#0x0                                 
ram:800039cc    0b00000a        beq         LAB_80003a00                            
ram:800039d0    0520a0e1        mov         r2,r5                                   
ram:800039d4    0710a0e1        mov         r1,r7                                   
ram:800039d8    0600a0e1        mov         r0,r6                                   
ram:800039dc    8b0900eb        bl          FUN_80006010                            ;undefined FUN_80006010()
ram:800039e0    000050e3        cmp         r0,#0x0                                 
ram:800039e4    0500000a        beq         LAB_80003a00                            
                            LAB_800039e8:                 ;XREF[1,0]:   800039c4
ram:800039e8    010050e3        cmp         r0,#0x1                                 
ram:800039ec    0050e003        mvneq       r5,#0x0                                 
ram:800039f0    0150a013        movne       r5,#0x1                                 
                            LAB_800039f4:                 ;XREF[1,0]:   80003a28
ram:800039f4    0500a0e1        mov         r0,r5                                   
ram:800039f8    f001bde8        ldmia       sp!,{r4 r5 r6 r7 r8}                    
ram:800039fc    04f09de4        ldr         pc,[sp],#0x4                            
                            LAB_80003a00:                 ;XREF[2,0]:   800039cc,800039e4
ram:80003a00    141096e5        ldr         r1,[r6,#0x14]                           
ram:80003a04    100096e5        ldr         r0,[r6,#0x10]                           
ram:80003a08    021041e2        sub         r1,r1,#0x2                              
ram:80003a0c    010050e1        cmp         r0,r1                                   
ram:80003a10    01004092        subls       r0,r0,#0x1                              
ram:80003a14    0c5086e5        str         r5,[r6,#0xc]                            
ram:80003a18    10008695        strls       r0,[r6,#0x10]                           
ram:80003a1c    0400d6e5        ldrb        r0,[r6,#0x4]                            
ram:80003a20    010080e3        orr         r0,r0,#0x1                              
ram:80003a24    0400c6e5        strb        r0,[r6,#0x4]                            
ram:80003a28    f1ffffea        b           LAB_800039f4                            
                            ;************************************************************************************************
                            ;*                                           FUNCTION                                           *
                            ;************************************************************************************************
                            ;undefined FUN_80003a2c()
          ;local_8       undefined4          -8                      ;XREF[4,0]:   80003a40,80003a6c,80003a74,80003a78
          ;local_c       undefined4          -c                      ;XREF[4,0]:   80003a4c,80003a54,80003a5c,80003a60
          ;local_10      undefined4         -10                      ;XREF[2,0]:   80003a38,80003a7c
                                                          ;XREF[5,0]:   80001c08,80001d2c,80001d50,80001db4
                                                          ;             80001f94
ram:80003a2c    0e402de9        stmdb       sp!,{r1 r2 r3 lr}                       
ram:80003a30    54109fe5        ldr         r1,[DAT_80003a8c]                       ;= 0000073Bh
ram:80003a34    900101e0        mul         r1,r0,r1                                
ram:80003a38    00108de5        str         r1,[sp,#0x0]=>local_10                  
ram:80003a3c    0010a0e3        mov         r1,#0x0                                 
ram:80003a40    08108de5        str         r1,[sp,#local_8+0x10]                   
ram:80003a44    0b0000ea        b           LAB_80003a78                            
                            LAB_80003a48:                 ;XREF[1,0]:   80003a84
ram:80003a48    0010a0e3        mov         r1,#0x0                                 
ram:80003a4c    04108de5        str         r1,[sp,#local_c+0x10]                   
ram:80003a50    020000ea        b           LAB_80003a60                            
                            LAB_80003a54:                 ;XREF[1,0]:   80003a68
ram:80003a54    04109de5        ldr         r1,[sp,#local_c+0x10]                   
ram:80003a58    011081e2        add         r1,r1,#0x1                              
ram:80003a5c    04108de5        str         r1,[sp,#local_c+0x10]                   
                            LAB_80003a60:                 ;XREF[1,0]:   80003a50
ram:80003a60    04109de5        ldr         r1,[sp,#local_c+0x10]                   
ram:80003a64    140051e3        cmp         r1,#0x14                                
ram:80003a68    f9ffff3a        bcc         LAB_80003a54                            
ram:80003a6c    08109de5        ldr         r1,[sp,#local_8+0x10]                   
ram:80003a70    011081e2        add         r1,r1,#0x1                              
ram:80003a74    08108de5        str         r1,[sp,#local_8+0x10]                   
                            LAB_80003a78:                 ;XREF[1,0]:   80003a44
ram:80003a78    08109de5        ldr         r1,[sp,#local_8+0x10]                   
ram:80003a7c    00209de5        ldr         r2,[sp,#0x0]=>local_10                  
ram:80003a80    020051e1        cmp         r1,r2                                   
ram:80003a84    efffff3a        bcc         LAB_80003a48                            
ram:80003a88    0e80bde8        ldmia       sp!,{r1 r2 r3 pc}                       
                            DAT_80003a8c:                 ;XREF[1,0]:   80003a30
ram:80003a8c    3b070000        undefined4  0000073Bh                               
                            ;************************************************************************************************
                            ;*                                           FUNCTION                                           *
                            ;************************************************************************************************
                            ;undefined FUN_80003a90()
          ;local_28      undefined4         -28                      ;XREF[1,0]:   80003ab8
                                                          ;XREF[3,0]:   80003d24,80004b64,80005504
ram:80003a90    005e2de9        stmdb       sp!,{r9 r10 r11 r12 lr}                 
ram:80003a94    f0012de9        stmdb       sp!,{r4 r5 r6 r7 r8}                    
ram:80003a98    0190a0e1        mov         r9,r1                                   
ram:80003a9c    101090e5        ldr         r1,[r0,#0x10]                           
ram:80003aa0    0060a0e1        mov         r6,r0                                   
ram:80003aa4    180090e5        ldr         r0,[r0,#0x18]                           
ram:80003aa8    207081e2        add         r7,r1,#0x20                             
ram:80003aac    000050e3        cmp         r0,#0x0                                 
ram:80003ab0    004096e5        ldr         r4,[r6,#0x0]                            
ram:80003ab4    02065713        cmpne       r7,#0x200000                            
ram:80003ab8    f001bd28        ldmiacs     sp!,{r4 r5 r6 r7 r8}=>local_28          
ram:80003abc    001ebd28        ldmiacs     sp!,{r9 r10 r11 r12}                    
ram:80003ac0    0400a023        movcs       r0,#0x4                                 
ram:80003ac4    04f09d24        ldrcs       pc,[sp],#0x4                            
ram:80003ac8    871bb0e1        movs        r1,r7, lsl #0x17                        
ram:80003acc    7700001a        bne         LAB_80003cb0                            
ram:80003ad0    141096e5        ldr         r1,[r6,#0x14]                           
ram:80003ad4    010080e2        add         r0,r0,#0x1                              
ram:80003ad8    000051e3        cmp         r1,#0x0                                 
ram:80003adc    0080a0e3        mov         r8,#0x0                                 
ram:80003ae0    180086e5        str         r0,[r6,#0x18]                           
ram:80003ae4    0400000a        beq         LAB_80003afc                            
ram:80003ae8    ba00d4e1        ldrh        r0,[r4,#0xa]                            
ram:80003aec    010040e2        sub         r0,r0,#0x1                              
ram:80003af0    a70410e1        tst         r0,r7, lsr #0x9                         
ram:80003af4    0400000a        beq         LAB_80003b0c                            
ram:80003af8    6c0000ea        b           LAB_80003cb0                            
                            LAB_80003afc:                 ;XREF[1,0]:   80003ae4
ram:80003afc    b800d4e1        ldrh        r0,[r4,#0x8]                            
ram:80003b00    a70250e1        cmp         r0,r7, lsr #0x5                         
ram:80003b04    2300009a        bls         LAB_80003b98                            
ram:80003b08    680000ea        b           LAB_80003cb0                            
                            LAB_80003b0c:                 ;XREF[1,0]:   80003af4
ram:80003b0c    0600a0e1        mov         r0,r6                                   
ram:80003b10    a70600eb        bl          FUN_800055b4                            ;undefined FUN_800055b4()
ram:80003b14    010050e3        cmp         r0,#0x1                                 
ram:80003b18    0050a0e1        mov         r5,r0                                   
ram:80003b1c    2200009a        bls         LAB_80003bac                            
ram:80003b20    010075e3        cmn         r5,#0x1                                 
ram:80003b24    5200000a        beq         LAB_80003c74                            
ram:80003b28    140094e5        ldr         r0,[r4,#0x14]                           
ram:80003b2c    050050e1        cmp         r0,r5                                   
ram:80003b30    5300008a        bhi         LAB_80003c84                            
ram:80003b34    000059e3        cmp         r9,#0x0                                 
ram:80003b38    1600000a        beq         LAB_80003b98                            
ram:80003b3c    141096e5        ldr         r1,[r6,#0x14]                           
ram:80003b40    0600a0e1        mov         r0,r6                                   
ram:80003b44    4fffffeb        bl          FUN_80003888                            ;undefined FUN_80003888()
ram:80003b48    0050b0e1        movs        r5,r0                                   
ram:80003b4c    f001bd08        ldmiaeq     sp!,{r4 r5 r6 r7 r8}                    
ram:80003b50    001ebd08        ldmiaeq     sp!,{r9 r10 r11 r12}                    
ram:80003b54    0700a003        moveq       r0,#0x7                                 
ram:80003b58    04f09d04        ldreq       pc,[sp],#0x4                            
ram:80003b5c    010055e3        cmp         r5,#0x1                                 
ram:80003b60    1100000a        beq         LAB_80003bac                            
ram:80003b64    010075e3        cmn         r5,#0x1                                 
ram:80003b68    4100000a        beq         LAB_80003c74                            
ram:80003b6c    0300d4e5        ldrb        r0,[r4,#0x3]                            
ram:80003b70    000050e3        cmp         r0,#0x0                                 
ram:80003b74    1f00000a        beq         LAB_80003bf8                            
ram:80003b78    2c2094e5        ldr         r2,[r4,#0x2c]                           
ram:80003b7c    0100d4e5        ldrb        r0,[r4,#0x1]                            
ram:80003b80    0130a0e3        mov         r3,#0x1                                 
ram:80003b84    301084e2        add         r1,r4,#0x30                             
ram:80003b88    2f0100eb        bl          FUN_8000404c                            ;undefined FUN_8000404c()
ram:80003b8c    000050e3        cmp         r0,#0x0                                 
ram:80003b90    0900000a        beq         LAB_80003bbc                            
ram:80003b94    360000ea        b           LAB_80003c74                            
                            LAB_80003b98:                 ;XREF[2,0]:   80003b04,80003b38
ram:80003b98    188086e5        str         r8,[r6,#0x18]                           
ram:80003b9c    f001bde8        ldmia       sp!,{r4 r5 r6 r7 r8}                    
ram:80003ba0    001ebde8        ldmia       sp!,{r9 r10 r11 r12}                    
ram:80003ba4    0400a0e3        mov         r0,#0x4                                 
ram:80003ba8    04f09de4        ldr         pc,[sp],#0x4                            
                            LAB_80003bac:                 ;XREF[2,0]:   80003b1c,80003b60
ram:80003bac    f001bde8        ldmia       sp!,{r4 r5 r6 r7 r8}                    
ram:80003bb0    001ebde8        ldmia       sp!,{r9 r10 r11 r12}                    
ram:80003bb4    0200a0e3        mov         r0,#0x2                                 
ram:80003bb8    04f09de4        ldr         pc,[sp],#0x4                            
                            LAB_80003bbc:                 ;XREF[1,0]:   80003b90
ram:80003bbc    2c1094e5        ldr         r1,[r4,#0x2c]                           
ram:80003bc0    203094e5        ldr         r3,[r4,#0x20]                           
ram:80003bc4    182094e5        ldr         r2,[r4,#0x18]                           
ram:80003bc8    033041e0        sub         r3,r1,r3                                
ram:80003bcc    020053e1        cmp         r3,r2                                   
ram:80003bd0    0380c4e5        strb        r8,[r4,#0x3]                            
ram:80003bd4    0700002a        bcs         LAB_80003bf8                            
ram:80003bd8    0200d4e5        ldrb        r0,[r4,#0x2]                            
ram:80003bdc    020050e3        cmp         r0,#0x2                                 
ram:80003be0    0400001a        bne         LAB_80003bf8                            
ram:80003be4    012082e0        add         r2,r2,r1                                
ram:80003be8    0100d4e5        ldrb        r0,[r4,#0x1]                            
ram:80003bec    0130a0e3        mov         r3,#0x1                                 
ram:80003bf0    301084e2        add         r1,r4,#0x30                             
ram:80003bf4    140100eb        bl          FUN_8000404c                            ;undefined FUN_8000404c()
                            LAB_80003bf8:                 ;XREF[3,0]:   80003b74,80003bd4,80003be0
ram:80003bf8    141094e5        ldr         r1,[r4,#0x14]                           
ram:80003bfc    020045e2        sub         r0,r5,#0x2                              
ram:80003c00    021041e2        sub         r1,r1,#0x2                              
ram:80003c04    000051e1        cmp         r1,r0                                   
ram:80003c08    0090a093        movls       r9,#0x0                                 
ram:80003c0c    0200009a        bls         LAB_80003c1c                            
ram:80003c10    ba10d4e1        ldrh        r1,[r4,#0xa]                            
ram:80003c14    282094e5        ldr         r2,[r4,#0x28]                           
ram:80003c18    912029e0        mla         r9,r1,r0,r2                             
                            LAB_80003c1c:                 ;XREF[1,0]:   80003c0c
ram:80003c1c    022ca0e3        mov         r2,#0x200                               
ram:80003c20    0010a0e3        mov         r1,#0x0                                 
ram:80003c24    300084e2        add         r0,r4,#0x30                             
ram:80003c28    2c9084e5        str         r9,[r4,#0x2c]                           
ram:80003c2c    0d0700eb        bl          FUN_80005868                            ;undefined FUN_80005868()
ram:80003c30    30b084e2        add         r11,r4,#0x30                            
ram:80003c34    01a0a0e3        mov         r10,#0x1                                
ram:80003c38    0080a0e3        mov         r8,#0x0                                 
                            LAB_80003c3c:                 ;XREF[1,0]:   80003c64
ram:80003c3c    ba00d4e1        ldrh        r0,[r4,#0xa]                            
ram:80003c40    080050e1        cmp         r0,r8                                   
ram:80003c44    0700009a        bls         LAB_80003c68                            
ram:80003c48    0100d4e5        ldrb        r0,[r4,#0x1]                            
ram:80003c4c    082089e0        add         r2,r9,r8                                
ram:80003c50    0130a0e3        mov         r3,#0x1                                 
ram:80003c54    0b10a0e1        mov         r1,r11                                  
ram:80003c58    fb0000eb        bl          FUN_8000404c                            ;undefined FUN_8000404c()
ram:80003c5c    000050e3        cmp         r0,#0x0                                 
ram:80003c60    0a808800        addeq       r8,r8,r10                               
ram:80003c64    f4ffff0a        beq         LAB_80003c3c                            
                            LAB_80003c68:                 ;XREF[1,0]:   80003c44
ram:80003c68    ba00d4e1        ldrh        r0,[r4,#0xa]                            
ram:80003c6c    080050e1        cmp         r0,r8                                   
ram:80003c70    0300000a        beq         LAB_80003c84                            
                            LAB_80003c74:                 ;XREF[3,0]:   80003b24,80003b68,80003b94
ram:80003c74    f001bde8        ldmia       sp!,{r4 r5 r6 r7 r8}                    
ram:80003c78    001ebde8        ldmia       sp!,{r9 r10 r11 r12}                    
ram:80003c7c    0100a0e3        mov         r0,#0x1                                 
ram:80003c80    04f09de4        ldr         pc,[sp],#0x4                            
                            LAB_80003c84:                 ;XREF[2,0]:   80003b30,80003c70
ram:80003c84    145086e5        str         r5,[r6,#0x14]                           
ram:80003c88    141094e5        ldr         r1,[r4,#0x14]                           
ram:80003c8c    020045e2        sub         r0,r5,#0x2                              
ram:80003c90    021041e2        sub         r1,r1,#0x2                              
ram:80003c94    000051e1        cmp         r1,r0                                   
ram:80003c98    0000a093        movls       r0,#0x0                                 
ram:80003c9c    0200009a        bls         LAB_80003cac                            
ram:80003ca0    ba20d4e1        ldrh        r2,[r4,#0xa]                            
ram:80003ca4    281094e5        ldr         r1,[r4,#0x28]                           
ram:80003ca8    921020e0        mla         r0,r2,r0,r1                             
                            LAB_80003cac:                 ;XREF[1,0]:   80003c9c
ram:80003cac    180086e5        str         r0,[r6,#0x18]                           
                            LAB_80003cb0:                 ;XREF[3,0]:   80003acc,80003af8,80003b08
ram:80003cb0    870ba0e1        mov         r0,r7, lsl #0x17                        
ram:80003cb4    a00ba0e1        mov         r0,r0, lsr #0x17                        
ram:80003cb8    040080e0        add         r0,r0,r4                                
ram:80003cbc    300080e2        add         r0,r0,#0x30                             
ram:80003cc0    1070a6e5        str         r7,[r6,#0x10]!                          
ram:80003cc4    0c0086e5        str         r0,[r6,#0xc]                            
ram:80003cc8    f001bde8        ldmia       sp!,{r4 r5 r6 r7 r8}                    
ram:80003ccc    001ebde8        ldmia       sp!,{r9 r10 r11 r12}                    
ram:80003cd0    0000a0e3        mov         r0,#0x0                                 
ram:80003cd4    04f09de4        ldr         pc,[sp],#0x4                            
                            ;************************************************************************************************
                            ;*                                           FUNCTION                                           *
                            ;************************************************************************************************
                            ;undefined FUN_80003cd8()
                                                          ;XREF[1,0]:   80004288
ram:80003cd8    70402de9        stmdb       sp!,{r4 r5 r6 lr}                       
ram:80003cdc    005090e5        ldr         r5,[r0,#0x0]                            
ram:80003ce0    0040a0e1        mov         r4,r0                                   
ram:80003ce4    0010a0e3        mov         r1,#0x0                                 
ram:80003ce8    250000eb        bl          FUN_80003d84                            ;undefined FUN_80003d84()
ram:80003cec    000050e3        cmp         r0,#0x0                                 
ram:80003cf0    0e00001a        bne         LAB_80003d30                            
                            LAB_80003cf4:                 ;XREF[1,0]:   80003d2c
ram:80003cf4    181094e5        ldr         r1,[r4,#0x18]                           
ram:80003cf8    0500a0e1        mov         r0,r5                                   
ram:80003cfc    970800eb        bl          FUN_80005f60                            ;undefined FUN_80005f60()
ram:80003d00    000050e3        cmp         r0,#0x0                                 
ram:80003d04    0900001a        bne         LAB_80003d30                            
ram:80003d08    1c0094e5        ldr         r0,[r4,#0x1c]                           
ram:80003d0c    0000d0e5        ldrb        r0,[r0,#0x0]                            
ram:80003d10    e50050e3        cmp         r0,#0xe5                                
ram:80003d14    00005013        cmpne       r0,#0x0                                 
ram:80003d18    0800000a        beq         LAB_80003d40                            
ram:80003d1c    0110a0e3        mov         r1,#0x1                                 
ram:80003d20    0400a0e1        mov         r0,r4                                   
ram:80003d24    59ffffeb        bl          FUN_80003a90                            ;undefined FUN_80003a90()
ram:80003d28    000050e3        cmp         r0,#0x0                                 
ram:80003d2c    f0ffff0a        beq         LAB_80003cf4                            
                            LAB_80003d30:                 ;XREF[2,0]:   80003cf0,80003d04
ram:80003d30    040050e3        cmp         r0,#0x4                                 
ram:80003d34    0760a003        moveq       r6,#0x7                                 
ram:80003d38    0060a011        movne       r6,r0                                   
ram:80003d3c    0e0000ea        b           LAB_80003d7c                            
                            LAB_80003d40:                 ;XREF[1,0]:   80003d18
ram:80003d40    181094e5        ldr         r1,[r4,#0x18]                           
ram:80003d44    0500a0e1        mov         r0,r5                                   
ram:80003d48    840800eb        bl          FUN_80005f60                            ;undefined FUN_80005f60()
ram:80003d4c    0060b0e1        movs        r6,r0                                   
ram:80003d50    0900001a        bne         LAB_80003d7c                            
ram:80003d54    1c0094e5        ldr         r0,[r4,#0x1c]                           
ram:80003d58    2020a0e3        mov         r2,#0x20                                
ram:80003d5c    0010a0e3        mov         r1,#0x0                                 
ram:80003d60    c00600eb        bl          FUN_80005868                            ;undefined FUN_80005868()
ram:80003d64    1c0094e5        ldr         r0,[r4,#0x1c]                           
ram:80003d68    0b20a0e3        mov         r2,#0xb                                 
ram:80003d6c    201084e2        add         r1,r4,#0x20                             
ram:80003d70    9f0600eb        bl          FUN_800057f4                            ;undefined FUN_800057f4()
ram:80003d74    0100a0e3        mov         r0,#0x1                                 
ram:80003d78    0300c5e5        strb        r0,[r5,#0x3]                            
                            LAB_80003d7c:                 ;XREF[2,0]:   80003d3c,80003d50
ram:80003d7c    0600a0e1        mov         r0,r6                                   
ram:80003d80    7080bde8        ldmia       sp!,{r4 r5 r6 pc}                       
                            ;************************************************************************************************
                            ;*                                           FUNCTION                                           *
                            ;************************************************************************************************
                            ;undefined FUN_80003d84()
          ;local_18      undefined4         -18                      ;XREF[4,0]:   80003d90,80003e54,80003e74,80003e80
                                                          ;XREF[4,0]:   80003ce8,80004ae0,80005330,800053cc
ram:80003d84    e0412de9        stmdb       sp!,{r5 r6 r7 r8 lr}                    
ram:80003d88    0050a0e1        mov         r5,r0                                   
ram:80003d8c    0160a0e1        mov         r6,r1                                   
ram:80003d90    04402de5        str         r4,[sp,#local_18+0x14]!                 
ram:80003d94    081095e5        ldr         r1,[r5,#0x8]                            
ram:80003d98    0000a0e3        mov         r0,#0x0                                 
ram:80003d9c    100085e5        str         r0,[r5,#0x10]                           
ram:80003da0    004095e5        ldr         r4,[r5,#0x0]                            
ram:80003da4    000051e3        cmp         r1,#0x0                                 
ram:80003da8    0500001a        bne         LAB_80003dc4                            
ram:80003dac    0000d4e5        ldrb        r0,[r4,#0x0]                            
ram:80003db0    030050e3        cmp         r0,#0x3                                 
ram:80003db4    2900003a        bcc         LAB_80003e60                            
ram:80003db8    241094e5        ldr         r1,[r4,#0x24]                           
ram:80003dbc    000051e3        cmp         r1,#0x0                                 
ram:80003dc0    2600000a        beq         LAB_80003e60                            
                            LAB_80003dc4:                 ;XREF[1,0]:   80003da8
ram:80003dc4    ba00d4e1        ldrh        r0,[r4,#0xa]                            
ram:80003dc8    8074a0e1        mov         r7,r0, lsl #0x9                         
ram:80003dcc    070056e1        cmp         r6,r7                                   
ram:80003dd0    0b00003a        bcc         LAB_80003e04                            
                            LAB_80003dd4:                 ;XREF[1,0]:   80003e00
ram:80003dd4    0500a0e1        mov         r0,r5                                   
ram:80003dd8    f50500eb        bl          FUN_800055b4                            ;undefined FUN_800055b4()
ram:80003ddc    010070e3        cmn         r0,#0x1                                 
ram:80003de0    0010a0e1        mov         r1,r0                                   
ram:80003de4    2500000a        beq         LAB_80003e80                            
ram:80003de8    020051e3        cmp         r1,#0x2                                 
ram:80003dec    14009425        ldrcs       r0,[r4,#0x14]                           
ram:80003df0    01005021        cmpcs       r0,r1                                   
ram:80003df4    1e00009a        bls         LAB_80003e74                            
ram:80003df8    076046e0        sub         r6,r6,r7                                
ram:80003dfc    060057e1        cmp         r7,r6                                   
ram:80003e00    f3ffff9a        bls         LAB_80003dd4                            
                            LAB_80003e04:                 ;XREF[1,0]:   80003dd0
ram:80003e04    142094e5        ldr         r2,[r4,#0x14]                           
ram:80003e08    020041e2        sub         r0,r1,#0x2                              
ram:80003e0c    022042e2        sub         r2,r2,#0x2                              
ram:80003e10    000052e1        cmp         r2,r0                                   
ram:80003e14    0000a093        movls       r0,#0x0                                 
ram:80003e18    0200009a        bls         LAB_80003e28                            
ram:80003e1c    ba30d4e1        ldrh        r3,[r4,#0xa]                            
ram:80003e20    282094e5        ldr         r2,[r4,#0x28]                           
ram:80003e24    932020e0        mla         r0,r3,r0,r2                             
                            LAB_80003e28:                 ;XREF[1,0]:   80003e18
ram:80003e28    180085e5        str         r0,[r5,#0x18]                           
                            LAB_80003e2c:                 ;XREF[1,0]:   80003e70
ram:80003e2c    000050e3        cmp         r0,#0x0                                 
ram:80003e30    141085e5        str         r1,[r5,#0x14]                           
ram:80003e34    0e00000a        beq         LAB_80003e74                            
ram:80003e38    861ba0e1        mov         r1,r6, lsl #0x17                        
ram:80003e3c    a11ba0e1        mov         r1,r1, lsr #0x17                        
ram:80003e40    a60480e0        add         r0,r0,r6, lsr #0x9                      
ram:80003e44    041081e0        add         r1,r1,r4                                
ram:80003e48    180085e5        str         r0,[r5,#0x18]                           
ram:80003e4c    301081e2        add         r1,r1,#0x30                             
ram:80003e50    1c1085e5        str         r1,[r5,#0x1c]                           
ram:80003e54    f001bde8        ldmia       sp!,{r4 r5 r6 r7 r8}=>local_18          
ram:80003e58    0000a0e3        mov         r0,#0x0                                 
ram:80003e5c    04f09de4        ldr         pc,[sp],#0x4                            
                            LAB_80003e60:                 ;XREF[2,0]:   80003db4,80003dc0
ram:80003e60    b800d4e1        ldrh        r0,[r4,#0x8]                            
ram:80003e64    000050e3        cmp         r0,#0x0                                 
ram:80003e68    24009415        ldrne       r0,[r4,#0x24]                           
ram:80003e6c    18008515        strne       r0,[r5,#0x18]                           
ram:80003e70    edffff1a        bne         LAB_80003e2c                            
                            LAB_80003e74:                 ;XREF[2,0]:   80003df4,80003e34
ram:80003e74    f001bde8        ldmia       sp!,{r4 r5 r6 r7 r8}=>local_18          
ram:80003e78    0200a0e3        mov         r0,#0x2                                 
ram:80003e7c    04f09de4        ldr         pc,[sp],#0x4                            
                            LAB_80003e80:                 ;XREF[1,0]:   80003de4
ram:80003e80    f001bde8        ldmia       sp!,{r4 r5 r6 r7 r8}=>local_18          
ram:80003e84    0100a0e3        mov         r0,#0x1                                 
ram:80003e88    04f09de4        ldr         pc,[sp],#0x4                            
                            ;************************************************************************************************
                            ;*                                           FUNCTION                                           *
                            ;************************************************************************************************
                            ;undefined FUN_80003e8c()
                                                          ;XREF[1,0]:   80004cd4
ram:80003e8c    000050e3        cmp         r0,#0x0                                 
ram:80003e90    10402de9        stmdb       sp!,{r4 lr}                             
ram:80003e94    0100a0e3        mov         r0,#0x1                                 
ram:80003e98    1080bd88        ldmiahi     sp!,{r4 pc}                             
ram:80003e9c    0000a0e3        mov         r0,#0x0                                 
ram:80003ea0    28f7ffeb        bl          FUN_80001b48                            ;undefined FUN_80001b48()
ram:80003ea4    000050e3        cmp         r0,#0x0                                 
ram:80003ea8    0200a013        movne       r0,#0x2                                 
ram:80003eac    1080bde8        ldmia       sp!,{r4 pc}                             
                            ;************************************************************************************************
                            ;*                                           FUNCTION                                           *
                            ;************************************************************************************************
                            ;undefined FUN_80003eb0()
                                                          ;XREF[1,0]:   80006d74
ram:80003eb0    030050e3        cmp         r0,#0x3                                 
ram:80003eb4    023ca0e3        mov         r3,#0x200                               
                            switchD:                      ; FWD[5,0]:   80003ec0,80003ecc,80003f04,80003f38
                                                          ;             80003f5c
ram:80003eb8    00f19f37        ldrcc       pc,[pc,r0,lsl #0x2]=>->switchD_80003e...;= 80003ecc
ram:80003ebc    260000ea        b           switchD_80003eb8::caseD_3               
                            switchdataD_80003ec0:         ;XREF[1,0]:   80003eb8
ram:80003ec0    cc3e0080        addr        switchD_80003eb8::caseD_0               
ram:80003ec4    043f0080        addr        switchD_80003eb8::caseD_1               
ram:80003ec8    383f0080        addr        switchD_80003eb8::caseD_2               
                            caseD_0:                      ;XREF[2,0]:   80003eb8,80003ec0
ram:80003ecc    000051e3        cmp         r1,#0x0                                 
ram:80003ed0    2300000a        beq         LAB_80003f64                            
ram:80003ed4    010051e3        cmp         r1,#0x1                                 
ram:80003ed8    0400000a        beq         LAB_80003ef0                            
ram:80003edc    020051e3        cmp         r1,#0x2                                 
ram:80003ee0    2100000a        beq         LAB_80003f6c                            
ram:80003ee4    030051e3        cmp         r1,#0x3                                 
ram:80003ee8    2200000a        beq         LAB_80003f78                            
ram:80003eec    1a0000ea        b           switchD_80003eb8::caseD_3               
                            LAB_80003ef0:                 ;XREF[1,0]:   80003ed8
ram:80003ef0    8c009fe5        ldr         r0,[DAT_80003f84]                       ;= 80441000h
ram:80003ef4    041090e5        ldr         r1,[r0,#offset DAT_80441004 &0xff]      
ram:80003ef8    0000a0e3        mov         r0,#0x0                                 
                            LAB_80003efc:                 ;XREF[1,0]:   80003f18
ram:80003efc    001082e5        str         r1,[r2,#0x0]                            
ram:80003f00    1eff2fe1        bx          lr                                      
                            caseD_1:                      ;XREF[2,0]:   80003eb8,80003ec4
ram:80003f04    000051e3        cmp         r1,#0x0                                 
ram:80003f08    0000a0e3        mov         r0,#0x0                                 
ram:80003f0c    1eff2f01        bxeq        lr                                      
ram:80003f10    010051e3        cmp         r1,#0x1                                 
ram:80003f14    0117a003        moveq       r1,#0x40000                             
ram:80003f18    f7ffff0a        beq         LAB_80003efc                            
ram:80003f1c    020051e3        cmp         r1,#0x2                                 
ram:80003f20    b030c201        strheq      r3,[r2,#0x0]                            
ram:80003f24    1eff2f01        bxeq        lr                                      
ram:80003f28    030051e3        cmp         r1,#0x3                                 
ram:80003f2c    00308205        streq       r3,[r2,#0x0]                            
ram:80003f30    1eff2f01        bxeq        lr                                      
ram:80003f34    080000ea        b           switchD_80003eb8::caseD_3               
                            caseD_2:                      ;XREF[2,0]:   80003eb8,80003ec8
ram:80003f38    000051e3        cmp         r1,#0x0                                 
ram:80003f3c    0100a0e3        mov         r0,#0x1                                 
ram:80003f40    0700000a        beq         LAB_80003f64                            
ram:80003f44    010051e3        cmp         r1,#0x1                                 
ram:80003f48    1eff2f01        bxeq        lr                                      
ram:80003f4c    020051e3        cmp         r1,#0x2                                 
ram:80003f50    0500000a        beq         LAB_80003f6c                            
ram:80003f54    030051e3        cmp         r1,#0x3                                 
ram:80003f58    0600000a        beq         LAB_80003f78                            
                            caseD_3:                      ;XREF[4,0]:   80003eb8,80003ebc,80003eec,80003f34
ram:80003f5c    0400a0e3        mov         r0,#0x4                                 
ram:80003f60    1eff2fe1        bx          lr                                      
                            LAB_80003f64:                 ;XREF[2,0]:   80003ed0,80003f40
ram:80003f64    0000a0e3        mov         r0,#0x0                                 
ram:80003f68    1eff2fe1        bx          lr                                      
                            LAB_80003f6c:                 ;XREF[2,0]:   80003ee0,80003f50
ram:80003f6c    0000a0e3        mov         r0,#0x0                                 
ram:80003f70    b030c2e1        strh        r3,[r2,#0x0]                            
ram:80003f74    1eff2fe1        bx          lr                                      
                            LAB_80003f78:                 ;XREF[2,0]:   80003ee8,80003f58
ram:80003f78    0000a0e3        mov         r0,#0x0                                 
ram:80003f7c    003082e5        str         r3,[r2,#0x0]                            
ram:80003f80    1eff2fe1        bx          lr                                      
                            DAT_80003f84:                 ;XREF[1,0]:   80003ef0
ram:80003f84    00104480        undefined4  80441000h                               
                            ;************************************************************************************************
                            ;*                                           FUNCTION                                           *
                            ;************************************************************************************************
                            ;undefined FUN_80003f88()
          ;local_18      undefined4         -18                      ;XREF[2,0]:   80003f9c,80004008
                                                          ;XREF[4,0]:   8000452c,80004658,80004734,80005ff4
ram:80003f88    e0412de9        stmdb       sp!,{r5 r6 r7 r8 lr}                    
ram:80003f8c    000050e3        cmp         r0,#0x0                                 
ram:80003f90    0380a0e1        mov         r8,r3                                   
ram:80003f94    0250a0e1        mov         r5,r2                                   
ram:80003f98    0170a0e1        mov         r7,r1                                   
ram:80003f9c    04402de5        str         r4,[sp,#local_18+0x14]!                 
ram:80003fa0    1700008a        bhi         LAB_80004004                            
ram:80003fa4    030017e3        tst         r7,#0x3                                 
ram:80003fa8    1800000a        beq         LAB_80004010                            
ram:80003fac    8804a0e1        mov         r0,r8, lsl #0x9                         
ram:80003fb0    0040a0e1        mov         r4,r0                                   
ram:80003fb4    84f0fffa        blx         FUN_800001cc                            ;undefined FUN_800001cc()
ram:80003fb8    0060b0e1        movs        r6,r0                                   
ram:80003fbc    0e00000a        beq         LAB_80003ffc                            
ram:80003fc0    0030a0e1        mov         r3,r0                                   
ram:80003fc4    0820a0e1        mov         r2,r8                                   
ram:80003fc8    0510a0e1        mov         r1,r5                                   
ram:80003fcc    0000a0e3        mov         r0,#0x0                                 
ram:80003fd0    7af8ffeb        bl          FUN_800021c0                            ;undefined FUN_800021c0()
ram:80003fd4    000050e3        cmp         r0,#0x0                                 
ram:80003fd8    0050a003        moveq       r5,#0x0                                 
ram:80003fdc    0150a013        movne       r5,#0x1                                 
ram:80003fe0    0420a0e1        mov         r2,r4                                   
ram:80003fe4    0610a0e1        mov         r1,r6                                   
ram:80003fe8    0700a0e1        mov         r0,r7                                   
ram:80003fec    d7f0ffeb        bl          FUN_80000350                            ;undefined FUN_80000350()
ram:80003ff0    0600a0e1        mov         r0,r6                                   
ram:80003ff4    8cf0fffb        blx         FUN_8000022e                            ;undefined FUN_8000022e()
ram:80003ff8    010000ea        b           LAB_80004004                            
                            LAB_80003ffc:                 ;XREF[1,0]:   80003fbc
ram:80003ffc    2c008fe2        adr         r0=>s_SD_malloc_...,0x80004030          ;= "SD malloc ERR...\r\n"
ram:80004000    150c00eb        bl          FUN_8000705c                            ;undefined FUN_8000705c()
                            LAB_80004004:                 ;XREF[3,0]:   80003fa0,80003ff8,8000402c
ram:80004004    0500a0e1        mov         r0,r5                                   
ram:80004008    f001bde8        ldmia       sp!,{r4 r5 r6 r7 r8}=>local_18          
ram:8000400c    04f09de4        ldr         pc,[sp],#0x4                            
                            LAB_80004010:                 ;XREF[1,0]:   80003fa8
ram:80004010    0130a0e1        mov         r3,r1                                   
ram:80004014    0820a0e1        mov         r2,r8                                   
ram:80004018    0510a0e1        mov         r1,r5                                   
ram:8000401c    0000a0e3        mov         r0,#0x0                                 
ram:80004020    66f8ffeb        bl          FUN_800021c0                            ;undefined FUN_800021c0()
ram:80004024    005090e2        adds        r5,r0,#0x0                              
ram:80004028    0150a013        movne       r5,#0x1                                 
ram:8000402c    f4ffffea        b           LAB_80004004                            
                            s_SD_malloc_ERR..._80004030:  ;XREF[1,0]:   80003ffc
ram:80004030    5344206d6...    ds          "SD malloc ERR...\r\n"                  
                            ;************************************************************************************************
                            ;*                                           FUNCTION                                           *
                            ;************************************************************************************************
                            ;undefined FUN_80004044()
                                                          ;XREF[2,0]:   80004cbc,8000754c
ram:80004044    0000a0e3        mov         r0,#0x0                                 
ram:80004048    1eff2fe1        bx          lr                                      
                            ;************************************************************************************************
                            ;*                                           FUNCTION                                           *
                            ;************************************************************************************************
                            ;undefined FUN_8000404c()
          ;local_18      undefined4         -18                      ;XREF[2,0]:   80004050,80004108
                                                          ;XREF[10,0]:  80003b88,80003bf4,80003c58,80004708
                                                          ;             80004930,80005f94,80005fe0,80006c50
                                                          ;             80006c94,80006d60
ram:8000404c    e0412de9        stmdb       sp!,{r5 r6 r7 r8 lr}                    
ram:80004050    04402de5        str         r4,[sp,#local_18+0x14]!                 
ram:80004054    050050e3        cmp         r0,#0x5                                 
ram:80004058    0370a0e1        mov         r7,r3                                   
ram:8000405c    0240a0e1        mov         r4,r2                                   
ram:80004060    0180a0e1        mov         r8,r1                                   
                            switchD:                      ; FWD[4,0]:   80004068,8000406c,80004080,80004104
ram:80004064    00f19f37        ldrcc       pc,[pc,r0,lsl #0x2]=>->switchD_800040...;= 80004080
                            caseD_5:                      ;XREF[1,0]:   80004064
ram:80004068    240000ea        b           LAB_80004100                            
                            switchdataD_8000406c:         ;XREF[1,0]:   80004064
ram:8000406c    80400080        addr        switchD_80004064::caseD_0               
ram:80004070    04410080        addr        switchD_80004064::caseD_1               
ram:80004074    04410080        addr        switchD_80004064::caseD_1               
ram:80004078    04410080        addr        switchD_80004064::caseD_1               
ram:8000407c    04410080        addr        switchD_80004064::caseD_1               
                            caseD_0:                      ;XREF[2,0]:   80004064,8000406c
ram:80004080    030018e3        tst         r8,#0x3                                 
ram:80004084    1500000a        beq         LAB_800040e0                            
ram:80004088    8704a0e1        mov         r0,r7, lsl #0x9                         
ram:8000408c    0050a0e1        mov         r5,r0                                   
ram:80004090    4df0fffa        blx         FUN_800001cc                            ;undefined FUN_800001cc()
ram:80004094    0060b0e1        movs        r6,r0                                   
ram:80004098    0d00000a        beq         LAB_800040d4                            
ram:8000409c    0520a0e1        mov         r2,r5                                   
ram:800040a0    0810a0e1        mov         r1,r8                                   
ram:800040a4    a9f0ffeb        bl          FUN_80000350                            ;undefined FUN_80000350()
ram:800040a8    0630a0e1        mov         r3,r6                                   
ram:800040ac    0720a0e1        mov         r2,r7                                   
ram:800040b0    0410a0e1        mov         r1,r4                                   
ram:800040b4    0000a0e3        mov         r0,#0x0                                 
ram:800040b8    b6f8ffeb        bl          FUN_80002398                            ;undefined FUN_80002398()
ram:800040bc    000050e3        cmp         r0,#0x0                                 
ram:800040c0    0040a003        moveq       r4,#0x0                                 
ram:800040c4    0140a013        movne       r4,#0x1                                 
ram:800040c8    0600a0e1        mov         r0,r6                                   
ram:800040cc    56f0fffb        blx         FUN_8000022e                            ;undefined FUN_8000022e()
ram:800040d0    0b0000ea        b           switchD_80004064::caseD_1               
                            LAB_800040d4:                 ;XREF[1,0]:   80004098
ram:800040d4    34008fe2        adr         r0=>s_SD_malloc_...,0x80004110          ;= "SD malloc ERR...\r\n"
ram:800040d8    df0b00eb        bl          FUN_8000705c                            ;undefined FUN_8000705c()
ram:800040dc    080000ea        b           switchD_80004064::caseD_1               
                            LAB_800040e0:                 ;XREF[1,0]:   80004084
ram:800040e0    0130a0e1        mov         r3,r1                                   
ram:800040e4    0720a0e1        mov         r2,r7                                   
ram:800040e8    0410a0e1        mov         r1,r4                                   
ram:800040ec    0000a0e3        mov         r0,#0x0                                 
ram:800040f0    a8f8ffeb        bl          FUN_80002398                            ;undefined FUN_80002398()
ram:800040f4    004090e2        adds        r4,r0,#0x0                              
ram:800040f8    0140a013        movne       r4,#0x1                                 
ram:800040fc    000000ea        b           switchD_80004064::caseD_1               
                            LAB_80004100:                 ;XREF[1,0]:   80004068
ram:80004100    0440a0e3        mov         r4,#0x4                                 
                            caseD_2:                      ;XREF[8,0]:   80004064,80004070,80004074,80004078
                            caseD_3:                      ;             8000407c,800040d0,800040dc,800040fc
                            caseD_4:                      
                            caseD_1:                      
ram:80004104    0400a0e1        mov         r0,r4                                   
ram:80004108    f001bde8        ldmia       sp!,{r4 r5 r6 r7 r8}=>local_18          
ram:8000410c    04f09de4        ldr         pc,[sp],#0x4                            
                            s_SD_malloc_ERR..._80004110:  ;XREF[1,0]:   800040d4
ram:80004110    5344206d6...    ds          "SD malloc ERR...\r\n"                  
                            ;************************************************************************************************
                            ;*                                           FUNCTION                                           *
                            ;************************************************************************************************
                            ;undefined FUN_80004124()
                                                          ;XREF[5,0]:   80000b68,80000b88,80000ba8,80000bc8
                                                          ;             80000c4c
ram:80004124    38402de9        stmdb       sp!,{r3 r4 r5 lr}                       
ram:80004128    0040a0e1        mov         r4,r0                                   
ram:8000412c    ef0100eb        bl          FUN_800048f0                            ;undefined FUN_800048f0()
ram:80004130    000050e3        cmp         r0,#0x0                                 
ram:80004134    3880bd18        ldmiane     sp!,{r3 r4 r5 pc}                       
ram:80004138    0d10a0e1        mov         r1,sp                                   
ram:8000413c    0400a0e1        mov         r0,r4                                   
ram:80004140    f30c00eb        bl          FUN_80007514                            ;undefined FUN_80007514()
ram:80004144    000050e3        cmp         r0,#0x0                                 
ram:80004148    0010a003        moveq       r1,#0x0                                 
ram:8000414c    00108405        streq       r1,[r4,#0x0]                            
ram:80004150    3880bde8        ldmia       sp!,{r3 r4 r5 pc}                       
                            ;************************************************************************************************
                            ;*                                           FUNCTION                                           *
                            ;************************************************************************************************
                            ;undefined FUN_80004154()
          ;local_c       undefined4          -c                      ;XREF[1,0]:   80004158
          ;local_10      undefined4         -10                      ;XREF[1,0]:   800041cc
ram:80004154    07402de9        stmdb       sp!,{r0 r1 r2 lr}                       
ram:80004158    04009de5        ldr         r0,[sp,#local_c+0x10]                   
ram:8000415c    0030b0e1        movs        r3,r0                                   
ram:80004160    0300a0e1        mov         r0,r3                                   
ram:80004164    0f00000a        beq         LAB_800041a8                            
                            LAB_80004168:                 ;XREF[1,0]:   80004178
ram:80004168    0110d0e4        ldrb        r1,[r0],#0x1                            
ram:8000416c    210051e3        cmp         r1,#0x21                                
ram:80004170    0f00003a        bcc         LAB_800041b4                            
ram:80004174    3a0051e3        cmp         r1,#0x3a                                
ram:80004178    faffff1a        bne         LAB_80004168                            
ram:8000417c    0010d3e5        ldrb        r1,[r3,#0x0]                            
ram:80004180    30c041e2        sub         r12,r1,#0x30                            
ram:80004184    09005ce3        cmp         r12,#0x9                                
ram:80004188    02308392        addls       r3,r3,#0x2                              
ram:8000418c    00005391        cmpls       r3,r0                                   
ram:80004190    0400001a        bne         LAB_800041a8                            
ram:80004194    01005ce3        cmp         r12,#0x1                                
ram:80004198    0c00a0e1        mov         r0,r12                                  
ram:8000419c    010000aa        bge         LAB_800041a8                            
ram:800041a0    000050e3        cmp         r0,#0x0                                 
ram:800041a4    030000aa        bge         LAB_800041b8                            
                            LAB_800041a8:                 ;XREF[3,0]:   80004164,80004190,8000419c
ram:800041a8    0b00a0e3        mov         r0,#0xb                                 
ram:800041ac    0cd08de2        add         sp,sp,#0xc                              
ram:800041b0    04f09de4        ldr         pc,[sp],#0x4                            
                            LAB_800041b4:                 ;XREF[1,0]:   80004170
ram:800041b4    0000a0e3        mov         r0,#0x0                                 
                            LAB_800041b8:                 ;XREF[1,0]:   800041a4
ram:800041b8    44309fe5        ldr         r3=>DAT_8000786c,[PTR_DAT_80004204]     ;= A4A60904h
                                                                                    ;= 8000786c
ram:800041bc    00c0a0e3        mov         r12,#0x0                                
ram:800041c0    001193e7        ldr         r1,[r3,r0,lsl #0x2]=>DAT_8000786c       ;= A4A60904h
ram:800041c4    000051e3        cmp         r1,#0x0                                 
ram:800041c8    00c0c115        strbne      r12,[r1,#0x0]=>DAT_a4a60904             
ram:800041cc    00109de5        ldr         r1,[sp,#0x0]=>local_10                  
ram:800041d0    000051e3        cmp         r1,#0x0                                 
ram:800041d4    00c0c115        strbne      r12,[r1,#0x0]                           
ram:800041d8    000052e3        cmp         r2,#0x0                                 
ram:800041dc    001183e7        str         r1,[r3,r0,lsl #0x2]=>DAT_8000786c       ;= A4A60904h
ram:800041e0    0000a003        moveq       r0,#0x0                                 
ram:800041e4    0cd08d02        addeq       sp,sp,#0xc                              
ram:800041e8    04f09d04        ldreq       pc,[sp],#0x4                            
ram:800041ec    0020a0e3        mov         r2,#0x0                                 
ram:800041f0    0d10a0e1        mov         r1,sp                                   
ram:800041f4    04008de2        add         r0,sp,#0x4                              
ram:800041f8    840200eb        bl          FUN_80004c10                            ;undefined FUN_80004c10()
ram:800041fc    0cd08de2        add         sp,sp,#0xc                              
ram:80004200    04f09de4        ldr         pc,[sp],#0x4                            
                            PTR_DAT_80004204:             ;XREF[1,0]:   800041b8
ram:80004204    6c780080        addr        DAT_8000786c                            ;= A4A60904h
                            ;************************************************************************************************
                            ;*                                           FUNCTION                                           *
                            ;************************************************************************************************
                            ;undefined FUN_80004208()
          ;local_1c      undefined4         -1c                      ;XREF[1,0]:   80004548
          ;local_24      undefined4         -24                      ;XREF[1,0]:   80004248
          ;local_29      undefined1         -29                      ;XREF[1,0]:   80004260
          ;local_38      undefined4         -38                      ;XREF[8,0]:   800042c8,800042f8,8000431c,80004328,80004348
                                                                     ;             800043ec,800043f4,80004424
          ;local_4e      undefined1         -4e                      ;XREF[2,0]:   800042a0,800043b8
          ;local_54      undefined4         -54                      ;XREF[1,0]:   8000424c
          ;local_58      undefined4         -58                      ;XREF[9,0]:   80004244,800042cc,8000432c,80004360,8000438c
                                                                     ;             8000439c,800043e0,80004488,800044ec
                                                          ;XREF[4,0]:   80000b58,80000b78,80000b98,80000bb8
ram:80004208    000050e3        cmp         r0,#0x0                                 
ram:8000420c    0900a003        moveq       r0,#0x9                                 
ram:80004210    1eff2f01        bxeq        lr                                      
ram:80004214    c0432de9        stmdb       sp!,{r6 r7 r8 r9 lr}                    
ram:80004218    37002de9        stmdb       sp!,{r0 r1 r2 r4 r5}                    
ram:8000421c    30d04de2        sub         sp,sp,#0x30                             
ram:80004220    0050a0e1        mov         r5,r0                                   
ram:80004224    3f6002e2        and         r6,r2,#0x3f                             
ram:80004228    0620a0e1        mov         r2,r6                                   
ram:8000422c    0d10a0e1        mov         r1,sp                                   
ram:80004230    34008de2        add         r0,sp,#0x34                             
ram:80004234    750200eb        bl          FUN_80004c10                            ;undefined FUN_80004c10()
ram:80004238    0040b0e1        movs        r4,r0                                   
ram:8000423c    0080a0e3        mov         r8,#0x0                                 
ram:80004240    bd00001a        bne         LAB_8000453c                            
ram:80004244    00009de5        ldr         r0,[sp,#0x0]=>local_58                  
ram:80004248    34109de5        ldr         r1,[sp,#local_24+0x58]                  
ram:8000424c    04008de5        str         r0,[sp,#local_54+0x58]                  
ram:80004250    04008de2        add         r0,sp,#0x4                              
ram:80004254    1e0400eb        bl          FUN_800052d4                            ;undefined FUN_800052d4()
ram:80004258    0040b0e1        movs        r4,r0                                   
ram:8000425c    0200001a        bne         LAB_8000426c                            
ram:80004260    2f00dde5        ldrb        r0,[sp,#local_29+0x58]                  
ram:80004264    800010e3        tst         r0,#0x80                                
ram:80004268    0640a013        movne       r4,#0x6                                 
                            LAB_8000426c:                 ;XREF[1,0]:   8000425c
ram:8000426c    1c0016e3        tst         r6,#0x1c                                
ram:80004270    4e00000a        beq         LAB_800043b0                            
ram:80004274    000054e3        cmp         r4,#0x0                                 
ram:80004278    0800000a        beq         LAB_800042a0                            
ram:8000427c    040054e3        cmp         r4,#0x4                                 
ram:80004280    0200001a        bne         LAB_80004290                            
ram:80004284    04008de2        add         r0,sp,#0x4                              
ram:80004288    92feffeb        bl          FUN_80003cd8                            ;undefined FUN_80003cd8()
ram:8000428c    0040a0e1        mov         r4,r0                                   
                            LAB_80004290:                 ;XREF[1,0]:   80004280
ram:80004290    000054e3        cmp         r4,#0x0                                 
ram:80004294    086086e3        orr         r6,r6,#0x8                              
ram:80004298    0800000a        beq         LAB_800042c0                            
ram:8000429c    a60000ea        b           LAB_8000453c                            
                            LAB_800042a0:                 ;XREF[1,0]:   80004278
ram:800042a0    0a00dde5        ldrb        r0,[sp,#local_4e+0x58]                  
ram:800042a4    110010e3        tst         r0,#0x11                                
ram:800042a8    0100000a        beq         LAB_800042b4                            
                            LAB_800042ac:                 ;XREF[1,0]:   800043d0
ram:800042ac    0740a0e3        mov         r4,#0x7                                 
ram:800042b0    a10000ea        b           LAB_8000453c                            
                            LAB_800042b4:                 ;XREF[1,0]:   800042a8
ram:800042b4    040016e3        tst         r6,#0x4                                 
ram:800042b8    0840a013        movne       r4,#0x8                                 
ram:800042bc    9e00001a        bne         LAB_8000453c                            
                            LAB_800042c0:                 ;XREF[1,0]:   80004298
ram:800042c0    080016e3        tst         r6,#0x8                                 
ram:800042c4    4500000a        beq         LAB_800043e0                            
ram:800042c8    20009de5        ldr         r0,[sp,#local_38+0x58]                  
ram:800042cc    00109de5        ldr         r1,[sp,#0x0]=>local_58                  
ram:800042d0    1b20d0e5        ldrb        r2,[r0,#0x1b]                           
ram:800042d4    1a30d0e5        ldrb        r3,[r0,#0x1a]                           
ram:800042d8    0010d1e5        ldrb        r1,[r1,#0x0]                            
ram:800042dc    027483e1        orr         r7,r3,r2, lsl #0x8                      
ram:800042e0    030051e3        cmp         r1,#0x3                                 
ram:800042e4    0300001a        bne         LAB_800042f8                            
ram:800042e8    1410d0e5        ldrb        r1,[r0,#0x14]                           
ram:800042ec    1500d0e5        ldrb        r0,[r0,#0x15]                           
ram:800042f0    000481e1        orr         r0,r1,r0, lsl #0x8                      
ram:800042f4    007887e1        orr         r7,r7,r0, lsl #0x10                     
                            LAB_800042f8:                 ;XREF[1,0]:   800042e4
ram:800042f8    20909de5        ldr         r9,[sp,#local_38+0x58]                  
ram:800042fc    f90400eb        bl          FUN_800056e8                            ;undefined FUN_800056e8()
ram:80004300    2014a0e1        mov         r1,r0, lsr #0x8                         
ram:80004304    0e00c9e5        strb        r0,[r9,#0xe]                            
ram:80004308    2104a0e1        mov         r0,r1, lsr #0x8                         
ram:8000430c    0f10c9e5        strb        r1,[r9,#0xf]                            
ram:80004310    2014a0e1        mov         r1,r0, lsr #0x8                         
ram:80004314    1000c9e5        strb        r0,[r9,#0x10]                           
ram:80004318    1110c9e5        strb        r1,[r9,#0x11]                           
ram:8000431c    20109de5        ldr         r1,[sp,#local_38+0x58]                  
ram:80004320    2000a0e3        mov         r0,#0x20                                
ram:80004324    0b00c1e5        strb        r0,[r1,#0xb]                            
ram:80004328    20109de5        ldr         r1,[sp,#local_38+0x58]                  
ram:8000432c    00209de5        ldr         r2,[sp,#0x0]=>local_58                  
ram:80004330    1a80c1e5        strb        r8,[r1,#0x1a]                           
ram:80004334    1b80c1e5        strb        r8,[r1,#0x1b]                           
ram:80004338    0000d2e5        ldrb        r0,[r2,#0x0]                            
ram:8000433c    030050e3        cmp         r0,#0x3                                 
ram:80004340    1480c105        strbeq      r8,[r1,#0x14]                           
ram:80004344    1580c105        strbeq      r8,[r1,#0x15]                           
ram:80004348    20009de5        ldr         r0,[sp,#local_38+0x58]                  
ram:8000434c    0110a0e3        mov         r1,#0x1                                 
ram:80004350    1c80c0e5        strb        r8,[r0,#0x1c]                           
ram:80004354    1d80c0e5        strb        r8,[r0,#0x1d]                           
ram:80004358    1e80c0e5        strb        r8,[r0,#0x1e]                           
ram:8000435c    1f80c0e5        strb        r8,[r0,#0x1f]                           
ram:80004360    00009de5        ldr         r0,[sp,#0x0]=>local_58                  
ram:80004364    000057e3        cmp         r7,#0x0                                 
ram:80004368    0310c0e5        strb        r1,[r0,#0x3]                            
ram:8000436c    1a00000a        beq         LAB_800043dc                            
ram:80004370    2c9090e5        ldr         r9,[r0,#0x2c]                           
ram:80004374    0020a0e3        mov         r2,#0x0                                 
ram:80004378    0710a0e1        mov         r1,r7                                   
ram:8000437c    04008de2        add         r0,sp,#0x4                              
ram:80004380    900700eb        bl          FUN_800061c8                            ;undefined FUN_800061c8()
ram:80004384    0040b0e1        movs        r4,r0                                   
ram:80004388    6b00001a        bne         LAB_8000453c                            
ram:8000438c    00009de5        ldr         r0,[sp,#0x0]=>local_58                  
ram:80004390    0910a0e1        mov         r1,r9                                   
ram:80004394    f10600eb        bl          FUN_80005f60                            ;undefined FUN_80005f60()
ram:80004398    0040b0e1        movs        r4,r0                                   
ram:8000439c    00009de5        ldr         r0,[sp,#0x0]=>local_58                  
ram:800043a0    011047e2        sub         r1,r7,#0x1                              
ram:800043a4    0c1080e5        str         r1,[r0,#0xc]                            
ram:800043a8    6300001a        bne         LAB_8000453c                            
ram:800043ac    080000ea        b           LAB_800043d4                            
                            LAB_800043b0:                 ;XREF[1,0]:   80004270
ram:800043b0    000054e3        cmp         r4,#0x0                                 
ram:800043b4    6000001a        bne         LAB_8000453c                            
ram:800043b8    0a00dde5        ldrb        r0,[sp,#local_4e+0x58]                  
ram:800043bc    100010e3        tst         r0,#0x10                                
ram:800043c0    0440a013        movne       r4,#0x4                                 
ram:800043c4    5c00001a        bne         LAB_8000453c                            
ram:800043c8    020016e3        tst         r6,#0x2                                 
ram:800043cc    01001013        tstne       r0,#0x1                                 
ram:800043d0    b5ffff1a        bne         LAB_800042ac                            
                            LAB_800043d4:                 ;XREF[1,0]:   800043ac
ram:800043d4    080016e3        tst         r6,#0x8                                 
ram:800043d8    0000000a        beq         LAB_800043e0                            
                            LAB_800043dc:                 ;XREF[1,0]:   8000436c
ram:800043dc    406086e3        orr         r6,r6,#0x40                             
                            LAB_800043e0:                 ;XREF[2,0]:   800042c4,800043d8
ram:800043e0    00109de5        ldr         r1,[sp,#0x0]=>local_58                  
ram:800043e4    2c0091e5        ldr         r0,[r1,#0x2c]                           
ram:800043e8    200085e5        str         r0,[r5,#0x20]                           
ram:800043ec    20009de5        ldr         r0,[sp,#local_38+0x58]                  
ram:800043f0    240085e5        str         r0,[r5,#0x24]                           
ram:800043f4    20209de5        ldr         r2,[sp,#local_38+0x58]                  
ram:800043f8    1b00d2e5        ldrb        r0,[r2,#0x1b]                           
ram:800043fc    1a30d2e5        ldrb        r3,[r2,#0x1a]                           
ram:80004400    000483e1        orr         r0,r3,r0, lsl #0x8                      
ram:80004404    0030d1e5        ldrb        r3,[r1,#0x0]                            
ram:80004408    030053e3        cmp         r3,#0x3                                 
ram:8000440c    0300001a        bne         LAB_80004420                            
ram:80004410    1430d2e5        ldrb        r3,[r2,#0x14]                           
ram:80004414    1520d2e5        ldrb        r2,[r2,#0x15]                           
ram:80004418    022483e1        orr         r2,r3,r2, lsl #0x8                      
ram:8000441c    020880e1        orr         r0,r0,r2, lsl #0x10                     
                            LAB_80004420:                 ;XREF[1,0]:   8000440c
ram:80004420    080085e5        str         r0,[r5,#0x8]                            
ram:80004424    20009de5        ldr         r0,[sp,#local_38+0x58]                  
ram:80004428    1f20d0e5        ldrb        r2,[r0,#0x1f]                           
ram:8000442c    1e70d0e5        ldrb        r7,[r0,#0x1e]                           
ram:80004430    1dc0d0e5        ldrb        r12,[r0,#0x1d]                          
ram:80004434    1c30d0e5        ldrb        r3,[r0,#0x1c]                           
ram:80004438    020487e1        orr         r0,r7,r2, lsl #0x8                      
ram:8000443c    00048ce1        orr         r0,r12,r0, lsl #0x8                     
ram:80004440    000483e1        orr         r0,r3,r0, lsl #0x8                      
ram:80004444    0c0085e5        str         r0,[r5,#0xc]                            
ram:80004448    001085e5        str         r1,[r5,#0x0]                            
ram:8000444c    b600d1e1        ldrh        r0,[r1,#0x6]                            
ram:80004450    022ca0e3        mov         r2,#0x200                               
ram:80004454    0010a0e3        mov         r1,#0x0                                 
ram:80004458    b400c5e1        strh        r0,[r5,#0x4]                            
ram:8000445c    1060c5e5        strb        r6,[r5,#0x10]                           
ram:80004460    1180c5e5        strb        r8,[r5,#0x11]                           
ram:80004464    1c8085e5        str         r8,[r5,#0x1c]                           
ram:80004468    280085e2        add         r0,r5,#0x28                             
ram:8000446c    148085e5        str         r8,[r5,#0x14]                           
ram:80004470    fc0400eb        bl          FUN_80005868                            ;undefined FUN_80005868()
ram:80004474    200016e3        tst         r6,#0x20                                
ram:80004478    0c609515        ldrne       r6,[r5,#0xc]                            
ram:8000447c    00005613        cmpne       r6,#0x0                                 
ram:80004480    2e00000a        beq         LAB_80004540                            
ram:80004484    146085e5        str         r6,[r5,#0x14]                           
ram:80004488    00009de5        ldr         r0,[sp,#0x0]=>local_58                  
ram:8000448c    081095e5        ldr         r1,[r5,#0x8]                            
ram:80004490    ba00d0e1        ldrh        r0,[r0,#0xa]                            
ram:80004494    8074a0e1        mov         r7,r0, lsl #0x9                         
ram:80004498    0e0000ea        b           LAB_800044d8                            
                            LAB_8000449c:                 ;XREF[1,0]:   800044dc
ram:8000449c    0500a0e1        mov         r0,r5                                   
ram:800044a0    430400eb        bl          FUN_800055b4                            ;undefined FUN_800055b4()
ram:800044a4    010050e3        cmp         r0,#0x1                                 
ram:800044a8    0010a0e1        mov         r1,r0                                   
ram:800044ac    0240a093        movls       r4,#0x2                                 
ram:800044b0    010071e3        cmn         r1,#0x1                                 
ram:800044b4    0400000a        beq         LAB_800044cc                            
ram:800044b8    000054e3        cmp         r4,#0x0                                 
ram:800044bc    076046e0        sub         r6,r6,r7                                
ram:800044c0    0400000a        beq         LAB_800044d8                            
ram:800044c4    180085e5        str         r0,[r5,#0x18]                           
ram:800044c8    1b0000ea        b           LAB_8000453c                            
                            LAB_800044cc:                 ;XREF[1,0]:   800044b4
ram:800044cc    0140a0e3        mov         r4,#0x1                                 
ram:800044d0    180085e5        str         r0,[r5,#0x18]                           
ram:800044d4    180000ea        b           LAB_8000453c                            
                            LAB_800044d8:                 ;XREF[2,0]:   80004498,800044c0
ram:800044d8    070056e1        cmp         r6,r7                                   
ram:800044dc    eeffff8a        bhi         LAB_8000449c                            
ram:800044e0    860bb0e1        movs        r0,r6, lsl #0x17                        
ram:800044e4    181085e5        str         r1,[r5,#0x18]                           
ram:800044e8    1400000a        beq         LAB_80004540                            
ram:800044ec    00009de5        ldr         r0,[sp,#0x0]=>local_58                  
ram:800044f0    021041e2        sub         r1,r1,#0x2                              
ram:800044f4    142090e5        ldr         r2,[r0,#0x14]                           
ram:800044f8    022042e2        sub         r2,r2,#0x2                              
ram:800044fc    010052e1        cmp         r2,r1                                   
ram:80004500    1200009a        bls         LAB_80004550                            
ram:80004504    ba20d0e1        ldrh        r2,[r0,#0xa]                            
ram:80004508    283090e5        ldr         r3,[r0,#0x28]                           
ram:8000450c    923121e0        mla         r1,r2,r1,r3                             
ram:80004510    000051e3        cmp         r1,#0x0                                 
ram:80004514    0d00000a        beq         LAB_80004550                            
ram:80004518    a62481e0        add         r2,r1,r6, lsr #0x9                      
ram:8000451c    1c2085e5        str         r2,[r5,#0x1c]                           
ram:80004520    0100d0e5        ldrb        r0,[r0,#0x1]                            
ram:80004524    0130a0e3        mov         r3,#0x1                                 
ram:80004528    281085e2        add         r1,r5,#0x28                             
ram:8000452c    95feffeb        bl          FUN_80003f88                            ;undefined FUN_80003f88()
ram:80004530    000050e3        cmp         r0,#0x0                                 
ram:80004534    0140a013        movne       r4,#0x1                                 
ram:80004538    0000000a        beq         LAB_80004540                            
                            LAB_8000453c:                 ;XREF[11,0]:  80004240,8000429c,800042b0,800042bc
                                                          ;             80004388,800043a8,800043b4,800043c4
                                                          ;             800044c8,800044d4,80004554
ram:8000453c    008085e5        str         r8,[r5,#0x0]                            
                            LAB_80004540:                 ;XREF[3,0]:   80004480,800044e8,80004538
ram:80004540    0400a0e1        mov         r0,r4                                   
ram:80004544    3cd08de2        add         sp,sp,#0x3c                             
ram:80004548    f001bde8        ldmia       sp!,{r4 r5 r6 r7 r8}=>local_1c          
ram:8000454c    0082bde8        ldmia       sp!,{r9 pc}                             
                            LAB_80004550:                 ;XREF[2,0]:   80004500,80004514
ram:80004550    0240a0e3        mov         r4,#0x2                                 
ram:80004554    f8ffffea        b           LAB_8000453c                            
                            ;************************************************************************************************
                            ;*                                           FUNCTION                                           *
                            ;************************************************************************************************
                            ;undefined FUN_80004558()
                                                          ;XREF[1,0]:   80000c44
ram:80004558    004f2de9        stmdb       sp!,{r8 r9 r10 r11 lr}                  
ram:8000455c    f0002de9        stmdb       sp!,{r4 r5 r6 r7}                       
ram:80004560    0cd04de2        sub         sp,sp,#0xc                              
ram:80004564    0040a0e1        mov         r4,r0                                   
ram:80004568    0000a0e3        mov         r0,#0x0                                 
ram:8000456c    0170a0e1        mov         r7,r1                                   
ram:80004570    000083e5        str         r0,[r3,#0x0]                            
ram:80004574    0380a0e1        mov         r8,r3                                   
ram:80004578    0250a0e1        mov         r5,r2                                   
ram:8000457c    04108de2        add         r1,sp,#0x4                              
ram:80004580    0400a0e1        mov         r0,r4                                   
ram:80004584    e20b00eb        bl          FUN_80007514                            ;undefined FUN_80007514()
ram:80004588    000050e3        cmp         r0,#0x0                                 
ram:8000458c    1100d405        ldrbeq      r0,[r4,#0x11]                           
ram:80004590    00005003        cmpeq       r0,#0x0                                 
ram:80004594    0cd08d12        addne       sp,sp,#0xc                              
ram:80004598    f001bd18        ldmiane     sp!,{r4 r5 r6 r7 r8}                    
ram:8000459c    008ebd18        ldmiane     sp!,{r9 r10 r11 pc}                     
ram:800045a0    1000d4e5        ldrb        r0,[r4,#0x10]                           
ram:800045a4    010010e3        tst         r0,#0x1                                 
ram:800045a8    0cd08d02        addeq       sp,sp,#0xc                              
ram:800045ac    f001bd08        ldmiaeq     sp!,{r4 r5 r6 r7 r8}                    
ram:800045b0    0700a003        moveq       r0,#0x7                                 
ram:800045b4    008ebd08        ldmiaeq     sp!,{r9 r10 r11 pc}                     
ram:800045b8    0c0094e5        ldr         r0,[r4,#0xc]                            
ram:800045bc    141094e5        ldr         r1,[r4,#0x14]                           
ram:800045c0    010040e0        sub         r0,r0,r1                                
ram:800045c4    000055e1        cmp         r5,r0                                   
ram:800045c8    0050a081        movhi       r5,r0                                   
ram:800045cc    000055e3        cmp         r5,#0x0                                 
ram:800045d0    7500000a        beq         LAB_800047ac                            
ram:800045d4    02a0a0e3        mov         r10,#0x2                                
ram:800045d8    0190a0e3        mov         r9,#0x1                                 
ram:800045dc    0100a0e1        mov         r0,r1                                   
                            LAB_800045e0:                 ;XREF[1,0]:   800047a8
ram:800045e0    801bb0e1        movs        r1,r0, lsl #0x17                        
ram:800045e4    5c00001a        bne         LAB_8000475c                            
ram:800045e8    04109de5        ldr         r1,[sp,#0x4]                            
ram:800045ec    ba10d1e1        ldrh        r1,[r1,#0xa]                            
ram:800045f0    011041e2        sub         r1,r1,#0x1                              
ram:800045f4    a06411e0        ands        r6,r1,r0, lsr #0x9                      
ram:800045f8    1a00000a        beq         LAB_80004668                            
                            LAB_800045fc:                 ;XREF[1,0]:   80004690
ram:800045fc    04009de5        ldr         r0,[sp,#0x4]                            
ram:80004600    181094e5        ldr         r1,[r4,#0x18]                           
ram:80004604    142090e5        ldr         r2,[r0,#0x14]                           
ram:80004608    021041e2        sub         r1,r1,#0x2                              
ram:8000460c    022042e2        sub         r2,r2,#0x2                              
ram:80004610    010052e1        cmp         r2,r1                                   
ram:80004614    1f00009a        bls         LAB_80004698                            
ram:80004618    ba20d0e1        ldrh        r2,[r0,#0xa]                            
ram:8000461c    283090e5        ldr         r3,[r0,#0x28]                           
ram:80004620    923121e0        mla         r1,r2,r1,r3                             
ram:80004624    000051e3        cmp         r1,#0x0                                 
ram:80004628    1a00000a        beq         LAB_80004698                            
ram:8000462c    061081e0        add         r1,r1,r6                                
ram:80004630    a5b4b0e1        movs        r11,r5, lsr #0x9                        
ram:80004634    00108de5        str         r1,[sp,#0x0]                            
ram:80004638    2900000a        beq         LAB_800046e4                            
ram:8000463c    0b1086e0        add         r1,r6,r11                               
ram:80004640    020051e1        cmp         r1,r2                                   
ram:80004644    06b04280        subhi       r11,r2,r6                               
ram:80004648    0100d0e5        ldrb        r0,[r0,#0x1]                            
ram:8000464c    00209de5        ldr         r2,[sp,#0x0]                            
ram:80004650    0b30a0e1        mov         r3,r11                                  
ram:80004654    0710a0e1        mov         r1,r7                                   
ram:80004658    4afeffeb        bl          FUN_80003f88                            ;undefined FUN_80003f88()
ram:8000465c    000050e3        cmp         r0,#0x0                                 
ram:80004660    3600001a        bne         LAB_80004740                            
ram:80004664    100000ea        b           LAB_800046ac                            
                            LAB_80004668:                 ;XREF[1,0]:   800045f8
ram:80004668    000050e3        cmp         r0,#0x0                                 
ram:8000466c    08009405        ldreq       r0,[r4,#0x8]                            
ram:80004670    0200000a        beq         LAB_80004680                            
ram:80004674    181094e5        ldr         r1,[r4,#0x18]                           
ram:80004678    0400a0e1        mov         r0,r4                                   
ram:8000467c    cc0300eb        bl          FUN_800055b4                            ;undefined FUN_800055b4()
                            LAB_80004680:                 ;XREF[1,0]:   80004670
ram:80004680    020050e3        cmp         r0,#0x2                                 
ram:80004684    0300003a        bcc         LAB_80004698                            
ram:80004688    010070e3        cmn         r0,#0x1                                 
ram:8000468c    18008415        strne       r0,[r4,#0x18]                           
ram:80004690    d9ffff1a        bne         LAB_800045fc                            
ram:80004694    290000ea        b           LAB_80004740                            
                            LAB_80004698:                 ;XREF[3,0]:   80004614,80004628,80004684
ram:80004698    11a0c4e5        strb        r10,[r4,#0x11]                          
ram:8000469c    0cd08de2        add         sp,sp,#0xc                              
ram:800046a0    f001bde8        ldmia       sp!,{r4 r5 r6 r7 r8}                    
ram:800046a4    0200a0e3        mov         r0,#0x2                                 
ram:800046a8    008ebde8        ldmia       sp!,{r9 r10 r11 pc}                     
                            LAB_800046ac:                 ;XREF[1,0]:   80004664
ram:800046ac    1000d4e5        ldrb        r0,[r4,#0x10]                           
ram:800046b0    800010e3        tst         r0,#0x80                                
ram:800046b4    0800000a        beq         LAB_800046dc                            
ram:800046b8    1c1094e5        ldr         r1,[r4,#0x1c]                           
ram:800046bc    00009de5        ldr         r0,[sp,#0x0]                            
ram:800046c0    000041e0        sub         r0,r1,r0                                
ram:800046c4    00005be1        cmp         r11,r0                                  
ram:800046c8    0300009a        bls         LAB_800046dc                            
ram:800046cc    800487e0        add         r0,r7,r0, lsl #0x9                      
ram:800046d0    022ca0e3        mov         r2,#0x200                               
ram:800046d4    281084e2        add         r1,r4,#0x28                             
ram:800046d8    450400eb        bl          FUN_800057f4                            ;undefined FUN_800057f4()
                            LAB_800046dc:                 ;XREF[2,0]:   800046b4,800046c8
ram:800046dc    8b64a0e1        mov         r6,r11, lsl #0x9                        
ram:800046e0    280000ea        b           LAB_80004788                            
                            LAB_800046e4:                 ;XREF[1,0]:   80004638
ram:800046e4    1c2094e5        ldr         r2,[r4,#0x1c]                           
ram:800046e8    010052e1        cmp         r2,r1                                   
ram:800046ec    1800000a        beq         LAB_80004754                            
ram:800046f0    1010d4e5        ldrb        r1,[r4,#0x10]                           
ram:800046f4    800011e3        tst         r1,#0x80                                
ram:800046f8    0800000a        beq         LAB_80004720                            
ram:800046fc    0100d0e5        ldrb        r0,[r0,#0x1]                            
ram:80004700    0130a0e3        mov         r3,#0x1                                 
ram:80004704    281084e2        add         r1,r4,#0x28                             
ram:80004708    4ffeffeb        bl          FUN_8000404c                            ;undefined FUN_8000404c()
ram:8000470c    000050e3        cmp         r0,#0x0                                 
ram:80004710    0a00001a        bne         LAB_80004740                            
ram:80004714    1000d4e5        ldrb        r0,[r4,#0x10]                           
ram:80004718    7f0000e2        and         r0,r0,#0x7f                             
ram:8000471c    1000c4e5        strb        r0,[r4,#0x10]                           
                            LAB_80004720:                 ;XREF[1,0]:   800046f8
ram:80004720    04009de5        ldr         r0,[sp,#0x4]                            
ram:80004724    00209de5        ldr         r2,[sp,#0x0]                            
ram:80004728    0100d0e5        ldrb        r0,[r0,#0x1]                            
ram:8000472c    0130a0e3        mov         r3,#0x1                                 
ram:80004730    281084e2        add         r1,r4,#0x28                             
ram:80004734    13feffeb        bl          FUN_80003f88                            ;undefined FUN_80003f88()
ram:80004738    000050e3        cmp         r0,#0x0                                 
ram:8000473c    0400000a        beq         LAB_80004754                            
                            LAB_80004740:                 ;XREF[3,0]:   80004660,80004694,80004710
ram:80004740    1190c4e5        strb        r9,[r4,#0x11]                           
ram:80004744    0cd08de2        add         sp,sp,#0xc                              
ram:80004748    f001bde8        ldmia       sp!,{r4 r5 r6 r7 r8}                    
ram:8000474c    0100a0e3        mov         r0,#0x1                                 
ram:80004750    008ebde8        ldmia       sp!,{r9 r10 r11 pc}                     
                            LAB_80004754:                 ;XREF[2,0]:   800046ec,8000473c
ram:80004754    00009de5        ldr         r0,[sp,#0x0]                            
ram:80004758    1c0084e5        str         r0,[r4,#0x1c]                           
                            LAB_8000475c:                 ;XREF[1,0]:   800045e4
ram:8000475c    b401d4e1        ldrh        r0,[r4,#0x14]                           
ram:80004760    800ba0e1        mov         r0,r0, lsl #0x17                        
ram:80004764    a00ba0e1        mov         r0,r0, lsr #0x17                        
ram:80004768    026c60e2        rsb         r6,r0,#0x200                            
ram:8000476c    050056e1        cmp         r6,r5                                   
ram:80004770    040080e0        add         r0,r0,r4                                
ram:80004774    0560a081        movhi       r6,r5                                   
ram:80004778    281080e2        add         r1,r0,#0x28                             
ram:8000477c    0620a0e1        mov         r2,r6                                   
ram:80004780    0700a0e1        mov         r0,r7                                   
ram:80004784    1a0400eb        bl          FUN_800057f4                            ;undefined FUN_800057f4()
                            LAB_80004788:                 ;XREF[1,0]:   800046e0
ram:80004788    000098e5        ldr         r0,[r8,#0x0]                            
ram:8000478c    065055e0        subs        r5,r5,r6                                
ram:80004790    060080e0        add         r0,r0,r6                                
ram:80004794    000088e5        str         r0,[r8,#0x0]                            
ram:80004798    140094e5        ldr         r0,[r4,#0x14]                           
ram:8000479c    067087e0        add         r7,r7,r6                                
ram:800047a0    060080e0        add         r0,r0,r6                                
ram:800047a4    140084e5        str         r0,[r4,#0x14]                           
ram:800047a8    8cffff1a        bne         LAB_800045e0                            
                            LAB_800047ac:                 ;XREF[1,0]:   800045d0
ram:800047ac    0cd08de2        add         sp,sp,#0xc                              
ram:800047b0    f001bde8        ldmia       sp!,{r4 r5 r6 r7 r8}                    
ram:800047b4    0000a0e3        mov         r0,#0x0                                 
ram:800047b8    008ebde8        ldmia       sp!,{r9 r10 r11 pc}                     
                            ;************************************************************************************************
                            ;*                                           FUNCTION                                           *
                            ;************************************************************************************************
                            ;undefined FUN_800047bc()
          ;local_18      undefined4         -18                      ;XREF[1,0]:   800047c0
                                                          ;XREF[1,0]:   80000bf4
ram:800047bc    72402de9        stmdb       sp!,{r1 r4 r5 r6 lr}                    
ram:800047c0    04002de5        str         r0,[sp,#local_18+0x14]!                 
ram:800047c4    30d04de2        sub         sp,sp,#0x30                             
ram:800047c8    0140a0e1        mov         r4,r1                                   
ram:800047cc    0020a0e3        mov         r2,#0x0                                 
ram:800047d0    0d10a0e1        mov         r1,sp                                   
ram:800047d4    30008de2        add         r0,sp,#0x30                             
ram:800047d8    0c0100eb        bl          FUN_80004c10                            ;undefined FUN_80004c10()
ram:800047dc    000050e3        cmp         r0,#0x0                                 
ram:800047e0    38d08d12        addne       sp,sp,#0x38                             
ram:800047e4    7080bd18        ldmiane     sp!,{r4 r5 r6 pc}                       
ram:800047e8    30109de5        ldr         r1,[sp,#0x30]                           
ram:800047ec    0d00a0e1        mov         r0,sp                                   
ram:800047f0    b70200eb        bl          FUN_800052d4                            ;undefined FUN_800052d4()
ram:800047f4    000050e3        cmp         r0,#0x0                                 
ram:800047f8    38d08d12        addne       sp,sp,#0x38                             
ram:800047fc    7080bd18        ldmiane     sp!,{r4 r5 r6 pc}                       
ram:80004800    2b10dde5        ldrb        r1,[sp,#0x2b]                           
ram:80004804    800011e3        tst         r1,#0x80                                
ram:80004808    0600a013        movne       r0,#0x6                                 
ram:8000480c    38d08d12        addne       sp,sp,#0x38                             
ram:80004810    7080bd18        ldmiane     sp!,{r4 r5 r6 pc}                       
ram:80004814    000054e3        cmp         r4,#0x0                                 
ram:80004818    38d08d02        addeq       sp,sp,#0x38                             
ram:8000481c    7080bd08        ldmiaeq     sp!,{r4 r5 r6 pc}                       
ram:80004820    00c0a0e3        mov         r12,#0x0                                
ram:80004824    09c0c4e5        strb        r12,[r4,#0x9]                           
ram:80004828    18109de5        ldr         r1,[sp,#0x18]                           
ram:8000482c    000051e3        cmp         r1,#0x0                                 
ram:80004830    38d08d02        addeq       sp,sp,#0x38                             
ram:80004834    7080bd08        ldmiaeq     sp!,{r4 r5 r6 pc}                       
ram:80004838    0010a0e3        mov         r1,#0x0                                 
ram:8000483c    0120a0e1        mov         r2,r1                                   
ram:80004840    2e50a0e3        mov         r5,#0x2e                                
                            LAB_80004844:                 ;XREF[1,0]:   80004884
ram:80004844    1c309de5        ldr         r3,[sp,#0x1c]                           
ram:80004848    0230d3e7        ldrb        r3,[r3,r2]                              
ram:8000484c    012082e2        add         r2,r2,#0x1                              
ram:80004850    200053e3        cmp         r3,#0x20                                
ram:80004854    0900000a        beq         LAB_80004880                            
ram:80004858    050053e3        cmp         r3,#0x5                                 
ram:8000485c    e530a003        moveq       r3,#0xe5                                
ram:80004860    090052e3        cmp         r2,#0x9                                 
ram:80004864    0200001a        bne         LAB_80004874                            
ram:80004868    016084e0        add         r6,r4,r1                                
ram:8000486c    011081e2        add         r1,r1,#0x1                              
ram:80004870    0950c6e5        strb        r5,[r6,#0x9]                            
                            LAB_80004874:                 ;XREF[1,0]:   80004864
ram:80004874    016084e0        add         r6,r4,r1                                
ram:80004878    011081e2        add         r1,r1,#0x1                              
ram:8000487c    0930c6e5        strb        r3,[r6,#0x9]                            
                            LAB_80004880:                 ;XREF[1,0]:   80004854
ram:80004880    0b0052e3        cmp         r2,#0xb                                 
ram:80004884    eeffff3a        bcc         LAB_80004844                            
ram:80004888    041081e0        add         r1,r1,r4                                
ram:8000488c    09c0c1e5        strb        r12,[r1,#0x9]                           
ram:80004890    1c109de5        ldr         r1,[sp,#0x1c]                           
ram:80004894    0b10d1e5        ldrb        r1,[r1,#0xb]                            
ram:80004898    0810c4e5        strb        r1,[r4,#0x8]                            
ram:8000489c    1c109de5        ldr         r1,[sp,#0x1c]                           
ram:800048a0    1e50d1e5        ldrb        r5,[r1,#0x1e]                           
ram:800048a4    1f20d1e5        ldrb        r2,[r1,#0x1f]                           
ram:800048a8    1d30d1e5        ldrb        r3,[r1,#0x1d]                           
ram:800048ac    1cc0d1e5        ldrb        r12,[r1,#0x1c]                          
ram:800048b0    021485e1        orr         r1,r5,r2, lsl #0x8                      
ram:800048b4    011483e1        orr         r1,r3,r1, lsl #0x8                      
ram:800048b8    01148ce1        orr         r1,r12,r1, lsl #0x8                     
ram:800048bc    001084e5        str         r1,[r4,#0x0]                            
ram:800048c0    1c109de5        ldr         r1,[sp,#0x1c]                           
ram:800048c4    1620d1e5        ldrb        r2,[r1,#0x16]                           
ram:800048c8    1710d1e5        ldrb        r1,[r1,#0x17]                           
ram:800048cc    011482e1        orr         r1,r2,r1, lsl #0x8                      
ram:800048d0    b610c4e1        strh        r1,[r4,#0x6]                            
ram:800048d4    1c109de5        ldr         r1,[sp,#0x1c]                           
ram:800048d8    1820d1e5        ldrb        r2,[r1,#0x18]                           
ram:800048dc    1910d1e5        ldrb        r1,[r1,#0x19]                           
ram:800048e0    011482e1        orr         r1,r2,r1, lsl #0x8                      
ram:800048e4    b410c4e1        strh        r1,[r4,#0x4]                            
ram:800048e8    38d08de2        add         sp,sp,#0x38                             
ram:800048ec    7080bde8        ldmia       sp!,{r4 r5 r6 pc}                       
                            ;************************************************************************************************
                            ;*                                           FUNCTION                                           *
                            ;************************************************************************************************
                            ;undefined FUN_800048f0()
          ;local_10      undefined4         -10                      ;XREF[3,0]:   8000491c,80004958,800049f0
                                                          ;XREF[1,0]:   8000412c
ram:800048f0    38402de9        stmdb       sp!,{r3 r4 r5 lr}                       
ram:800048f4    0040a0e1        mov         r4,r0                                   
ram:800048f8    0d10a0e1        mov         r1,sp                                   
ram:800048fc    040b00eb        bl          FUN_80007514                            ;undefined FUN_80007514()
ram:80004900    000050e3        cmp         r0,#0x0                                 
ram:80004904    3880bd18        ldmiane     sp!,{r3 r4 r5 pc}                       
ram:80004908    1010d4e5        ldrb        r1,[r4,#0x10]                           
ram:8000490c    400011e3        tst         r1,#0x40                                
ram:80004910    3880bd08        ldmiaeq     sp!,{r3 r4 r5 pc}                       
ram:80004914    800011e3        tst         r1,#0x80                                
ram:80004918    0b00000a        beq         LAB_8000494c                            
ram:8000491c    00009de5        ldr         r0,[sp,#0x0]=>local_10                  
ram:80004920    1c2094e5        ldr         r2,[r4,#0x1c]                           
ram:80004924    0100d0e5        ldrb        r0,[r0,#0x1]                            
ram:80004928    0130a0e3        mov         r3,#0x1                                 
ram:8000492c    281084e2        add         r1,r4,#0x28                             
ram:80004930    c5fdffeb        bl          FUN_8000404c                            ;undefined FUN_8000404c()
ram:80004934    000050e3        cmp         r0,#0x0                                 
ram:80004938    1000d405        ldrbeq      r0,[r4,#0x10]                           
ram:8000493c    7f000002        andeq       r0,r0,#0x7f                             
ram:80004940    1000c405        strbeq      r0,[r4,#0x10]                           
ram:80004944    0100a013        movne       r0,#0x1                                 
ram:80004948    3880bd18        ldmiane     sp!,{r3 r4 r5 pc}                       
                            LAB_8000494c:                 ;XREF[1,0]:   80004918
ram:8000494c    650300eb        bl          FUN_800056e8                            ;undefined FUN_800056e8()
ram:80004950    0050a0e1        mov         r5,r0                                   
ram:80004954    201094e5        ldr         r1,[r4,#0x20]                           
ram:80004958    00009de5        ldr         r0,[sp,#0x0]=>local_10                  
ram:8000495c    7f0500eb        bl          FUN_80005f60                            ;undefined FUN_80005f60()
ram:80004960    000050e3        cmp         r0,#0x0                                 
ram:80004964    3880bd18        ldmiane     sp!,{r3 r4 r5 pc}                       
ram:80004968    241094e5        ldr         r1,[r4,#0x24]                           
ram:8000496c    0b00d1e5        ldrb        r0,[r1,#0xb]                            
ram:80004970    200080e3        orr         r0,r0,#0x20                             
ram:80004974    0b00c1e5        strb        r0,[r1,#0xb]                            
ram:80004978    082094e5        ldr         r2,[r4,#0x8]                            
ram:8000497c    003094e5        ldr         r3,[r4,#0x0]                            
ram:80004980    22c4a0e1        mov         r12,r2, lsr #0x8                        
ram:80004984    1a20c1e5        strb        r2,[r1,#0x1a]                           
ram:80004988    1bc0c1e5        strb        r12,[r1,#0x1b]                          
ram:8000498c    0000d3e5        ldrb        r0,[r3,#0x0]                            
ram:80004990    030050e3        cmp         r0,#0x3                                 
ram:80004994    0300001a        bne         LAB_800049a8                            
ram:80004998    2228a0e1        mov         r2,r2, lsr #0x10                        
ram:8000499c    2234a0e1        mov         r3,r2, lsr #0x8                         
ram:800049a0    1420c1e5        strb        r2,[r1,#0x14]                           
ram:800049a4    1530c1e5        strb        r3,[r1,#0x15]                           
                            LAB_800049a8:                 ;XREF[1,0]:   80004994
ram:800049a8    0c2094e5        ldr         r2,[r4,#0xc]                            
ram:800049ac    0000a0e3        mov         r0,#0x0                                 
ram:800049b0    2234a0e1        mov         r3,r2, lsr #0x8                         
ram:800049b4    1c20c1e5        strb        r2,[r1,#0x1c]                           
ram:800049b8    2324a0e1        mov         r2,r3, lsr #0x8                         
ram:800049bc    1d30c1e5        strb        r3,[r1,#0x1d]                           
ram:800049c0    2234a0e1        mov         r3,r2, lsr #0x8                         
ram:800049c4    1e20c1e5        strb        r2,[r1,#0x1e]                           
ram:800049c8    1f30c1e5        strb        r3,[r1,#0x1f]                           
ram:800049cc    2534a0e1        mov         r3,r5, lsr #0x8                         
ram:800049d0    1650c1e5        strb        r5,[r1,#0x16]                           
ram:800049d4    2324a0e1        mov         r2,r3, lsr #0x8                         
ram:800049d8    1730c1e5        strb        r3,[r1,#0x17]                           
ram:800049dc    2234a0e1        mov         r3,r2, lsr #0x8                         
ram:800049e0    1820c1e5        strb        r2,[r1,#0x18]                           
ram:800049e4    1930c1e5        strb        r3,[r1,#0x19]                           
ram:800049e8    1200c1e5        strb        r0,[r1,#0x12]                           
ram:800049ec    1300c1e5        strb        r0,[r1,#0x13]                           
ram:800049f0    00009de5        ldr         r0,[sp,#0x0]=>local_10                  
ram:800049f4    0110a0e3        mov         r1,#0x1                                 
ram:800049f8    0310c0e5        strb        r1,[r0,#0x3]                            
ram:800049fc    880800eb        bl          FUN_80006c24                            ;undefined FUN_80006c24()
ram:80004a00    1010d4e5        ldrb        r1,[r4,#0x10]                           
ram:80004a04    bf1001e2        and         r1,r1,#0xbf                             
ram:80004a08    1010c4e5        strb        r1,[r4,#0x10]                           
ram:80004a0c    3880bde8        ldmia       sp!,{r3 r4 r5 pc}                       
                            ;************************************************************************************************
                            ;*                                           FUNCTION                                           *
                            ;************************************************************************************************
                            ;undefined FUN_80004a10()
                                                          ;XREF[1,0]:   80000ff0
ram:80004a10    e0412de9        stmdb       sp!,{r5 r6 r7 r8 lr}                    
ram:80004a14    11002de9        stmdb       sp!,{r0 r4}                             
ram:80004a18    6cd04de2        sub         sp,sp,#0x6c                             
ram:80004a1c    0220a0e3        mov         r2,#0x2                                 
ram:80004a20    60108de2        add         r1,sp,#0x60                             
ram:80004a24    6c008de2        add         r0,sp,#0x6c                             
ram:80004a28    780000eb        bl          FUN_80004c10                            ;undefined FUN_80004c10()
ram:80004a2c    000050e3        cmp         r0,#0x0                                 
ram:80004a30    70d08d12        addne       sp,sp,#0x70                             
ram:80004a34    f001bd18        ldmiane     sp!,{r4 r5 r6 r7 r8}                    
ram:80004a38    04f09d14        ldrne       pc,[sp],#0x4                            
ram:80004a3c    60009de5        ldr         r0,[sp,#0x60]                           
ram:80004a40    6c109de5        ldr         r1,[sp,#0x6c]                           
ram:80004a44    2c008de5        str         r0,[sp,#0x2c]                           
ram:80004a48    2c008de2        add         r0,sp,#0x2c                             
ram:80004a4c    200200eb        bl          FUN_800052d4                            ;undefined FUN_800052d4()
ram:80004a50    000050e3        cmp         r0,#0x0                                 
ram:80004a54    70d08d12        addne       sp,sp,#0x70                             
ram:80004a58    f001bd18        ldmiane     sp!,{r4 r5 r6 r7 r8}                    
ram:80004a5c    04f09d14        ldrne       pc,[sp],#0x4                            
ram:80004a60    5700dde5        ldrb        r0,[sp,#0x57]                           
ram:80004a64    800010e3        tst         r0,#0x80                                
ram:80004a68    70d08d12        addne       sp,sp,#0x70                             
ram:80004a6c    f001bd18        ldmiane     sp!,{r4 r5 r6 r7 r8}                    
ram:80004a70    0600a013        movne       r0,#0x6                                 
ram:80004a74    04f09d14        ldrne       pc,[sp],#0x4                            
ram:80004a78    3220dde5        ldrb        r2,[sp,#0x32]                           
ram:80004a7c    010012e3        tst         r2,#0x1                                 
ram:80004a80    0300000a        beq         LAB_80004a94                            
                            LAB_80004a84:                 ;XREF[3,0]:   80004b58,80004b80,80004c0c
ram:80004a84    70d08de2        add         sp,sp,#0x70                             
ram:80004a88    f001bde8        ldmia       sp!,{r4 r5 r6 r7 r8}                    
ram:80004a8c    0700a0e3        mov         r0,#0x7                                 
ram:80004a90    04f09de4        ldr         pc,[sp],#0x4                            
                            LAB_80004a94:                 ;XREF[1,0]:   80004a80
ram:80004a94    48009de5        ldr         r0,[sp,#0x48]                           
ram:80004a98    60109de5        ldr         r1,[sp,#0x60]                           
ram:80004a9c    1b30d0e5        ldrb        r3,[r0,#0x1b]                           
ram:80004aa0    1ac0d0e5        ldrb        r12,[r0,#0x1a]                          
ram:80004aa4    03448ce1        orr         r4,r12,r3, lsl #0x8                     
ram:80004aa8    0030d1e5        ldrb        r3,[r1,#0x0]                            
ram:80004aac    030053e3        cmp         r3,#0x3                                 
ram:80004ab0    0300001a        bne         LAB_80004ac4                            
ram:80004ab4    1430d0e5        ldrb        r3,[r0,#0x14]                           
ram:80004ab8    1500d0e5        ldrb        r0,[r0,#0x15]                           
ram:80004abc    000483e1        orr         r0,r3,r0, lsl #0x8                      
ram:80004ac0    004884e1        orr         r4,r4,r0, lsl #0x10                     
                            LAB_80004ac4:                 ;XREF[1,0]:   80004ab0
ram:80004ac4    100012e3        tst         r2,#0x10                                
ram:80004ac8    0160a0e3        mov         r6,#0x1                                 
ram:80004acc    3000000a        beq         LAB_80004b94                            
ram:80004ad0    00108de5        str         r1,[sp,#0x0]                            
ram:80004ad4    0010a0e3        mov         r1,#0x0                                 
ram:80004ad8    0d00a0e1        mov         r0,sp                                   
ram:80004adc    08408de5        str         r4,[sp,#0x8]                            
ram:80004ae0    a7fcffeb        bl          FUN_80003d84                            ;undefined FUN_80003d84()
ram:80004ae4    000050e3        cmp         r0,#0x0                                 
ram:80004ae8    70d08d12        addne       sp,sp,#0x70                             
ram:80004aec    f001bd18        ldmiane     sp!,{r4 r5 r6 r7 r8}                    
ram:80004af0    04f09d14        ldrne       pc,[sp],#0x4                            
ram:80004af4    18109de5        ldr         r1,[sp,#0x18]                           
ram:80004af8    00809de5        ldr         r8,[sp,#0x0]                            
ram:80004afc    000051e3        cmp         r1,#0x0                                 
ram:80004b00    0d50a0e1        mov         r5,sp                                   
ram:80004b04    0070a0e3        mov         r7,#0x0                                 
ram:80004b08    0400a0e3        mov         r0,#0x4                                 
ram:80004b0c    1900000a        beq         LAB_80004b78                            
                            LAB_80004b10:                 ;XREF[1,0]:   80004c08
ram:80004b10    18109de5        ldr         r1,[sp,#0x18]                           
ram:80004b14    0800a0e1        mov         r0,r8                                   
ram:80004b18    100500eb        bl          FUN_80005f60                            ;undefined FUN_80005f60()
ram:80004b1c    000050e3        cmp         r0,#0x0                                 
ram:80004b20    1400001a        bne         LAB_80004b78                            
ram:80004b24    1c109de5        ldr         r1,[sp,#0x1c]                           
ram:80004b28    0000d1e5        ldrb        r0,[r1,#0x0]                            
ram:80004b2c    000050e3        cmp         r0,#0x0                                 
ram:80004b30    0f00000a        beq         LAB_80004b74                            
ram:80004b34    0b10d1e5        ldrb        r1,[r1,#0xb]                            
ram:80004b38    e50050e3        cmp         r0,#0xe5                                
ram:80004b3c    2e005013        cmpne       r0,#0x2e                                
ram:80004b40    3f1001e2        and         r1,r1,#0x3f                             
ram:80004b44    0610c5e5        strb        r1,[r5,#0x6]                            
ram:80004b48    0300000a        beq         LAB_80004b5c                            
ram:80004b4c    0f0051e3        cmp         r1,#0xf                                 
ram:80004b50    2000c113        bicne       r0,r1,#0x20                             
ram:80004b54    08005013        cmpne       r0,#0x8                                 
ram:80004b58    c9ffff1a        bne         LAB_80004a84                            
                            LAB_80004b5c:                 ;XREF[1,0]:   80004b48
ram:80004b5c    0010a0e3        mov         r1,#0x0                                 
ram:80004b60    0500a0e1        mov         r0,r5                                   
ram:80004b64    c9fbffeb        bl          FUN_80003a90                            ;undefined FUN_80003a90()
ram:80004b68    000050e3        cmp         r0,#0x0                                 
ram:80004b6c    0100001a        bne         LAB_80004b78                            
ram:80004b70    220000ea        b           LAB_80004c00                            
                            LAB_80004b74:                 ;XREF[1,0]:   80004b30
ram:80004b74    0400a0e3        mov         r0,#0x4                                 
                            LAB_80004b78:                 ;XREF[3,0]:   80004b0c,80004b20,80004b6c
ram:80004b78    000050e3        cmp         r0,#0x0                                 
ram:80004b7c    18708de5        str         r7,[sp,#0x18]                           
ram:80004b80    bfffff0a        beq         LAB_80004a84                            
ram:80004b84    040050e3        cmp         r0,#0x4                                 
ram:80004b88    70d08d12        addne       sp,sp,#0x70                             
ram:80004b8c    f001bd18        ldmiane     sp!,{r4 r5 r6 r7 r8}                    
ram:80004b90    04f09d14        ldrne       pc,[sp],#0x4                            
                            LAB_80004b94:                 ;XREF[1,0]:   80004acc
ram:80004b94    2c509de5        ldr         r5,[sp,#0x2c]                           
ram:80004b98    44109de5        ldr         r1,[sp,#0x44]                           
ram:80004b9c    0500a0e1        mov         r0,r5                                   
ram:80004ba0    ee0400eb        bl          FUN_80005f60                            ;undefined FUN_80005f60()
ram:80004ba4    000050e3        cmp         r0,#0x0                                 
ram:80004ba8    70d08d12        addne       sp,sp,#0x70                             
ram:80004bac    f001bd18        ldmiane     sp!,{r4 r5 r6 r7 r8}                    
ram:80004bb0    04f09d14        ldrne       pc,[sp],#0x4                            
ram:80004bb4    48109de5        ldr         r1,[sp,#0x48]                           
ram:80004bb8    e500a0e3        mov         r0,#0xe5                                
ram:80004bbc    0000c1e5        strb        r0,[r1,#0x0]                            
ram:80004bc0    000054e3        cmp         r4,#0x0                                 
ram:80004bc4    0360c5e5        strb        r6,[r5,#0x3]                            
ram:80004bc8    0700000a        beq         LAB_80004bec                            
ram:80004bcc    0020a0e3        mov         r2,#0x0                                 
ram:80004bd0    0410a0e1        mov         r1,r4                                   
ram:80004bd4    2c008de2        add         r0,sp,#0x2c                             
ram:80004bd8    7a0500eb        bl          FUN_800061c8                            ;undefined FUN_800061c8()
ram:80004bdc    000050e3        cmp         r0,#0x0                                 
ram:80004be0    70d08d12        addne       sp,sp,#0x70                             
ram:80004be4    f001bd18        ldmiane     sp!,{r4 r5 r6 r7 r8}                    
ram:80004be8    04f09d14        ldrne       pc,[sp],#0x4                            
                            LAB_80004bec:                 ;XREF[1,0]:   80004bc8
ram:80004bec    60009de5        ldr         r0,[sp,#0x60]                           
ram:80004bf0    0b0800eb        bl          FUN_80006c24                            ;undefined FUN_80006c24()
ram:80004bf4    70d08de2        add         sp,sp,#0x70                             
ram:80004bf8    f001bde8        ldmia       sp!,{r4 r5 r6 r7 r8}                    
ram:80004bfc    04f09de4        ldr         pc,[sp],#0x4                            
                            LAB_80004c00:                 ;XREF[1,0]:   80004b70
ram:80004c00    18009de5        ldr         r0,[sp,#0x18]                           
ram:80004c04    000050e3        cmp         r0,#0x0                                 
ram:80004c08    c0ffff1a        bne         LAB_80004b10                            
ram:80004c0c    9cffffea        b           LAB_80004a84                            
                            ;************************************************************************************************
                            ;*                                           FUNCTION                                           *
                            ;************************************************************************************************
                            ;undefined FUN_80004c10()
          ;local_24      undefined4         -24                      ;XREF[1,0]:   80004c78
                                                          ;XREF[4,0]:   800041f8,80004234,800047d8,80004a28
ram:80004c10    004f2de9        stmdb       sp!,{r8 r9 r10 r11 lr}                  
ram:80004c14    f0002de9        stmdb       sp!,{r4 r5 r6 r7}                       
ram:80004c18    14d04de2        sub         sp,sp,#0x14                             
ram:80004c1c    0060a0e3        mov         r6,#0x0                                 
ram:80004c20    006081e5        str         r6,[r1,#0x0]                            
ram:80004c24    00c090e5        ldr         r12,[r0,#0x0]                           
ram:80004c28    00005ce3        cmp         r12,#0x0                                
ram:80004c2c    0c30a0e1        mov         r3,r12                                  
ram:80004c30    0f00000a        beq         LAB_80004c74                            
                            LAB_80004c34:                 ;XREF[1,0]:   80004c44
ram:80004c34    0140d3e4        ldrb        r4,[r3],#0x1                            
ram:80004c38    210054e3        cmp         r4,#0x21                                
ram:80004c3c    1000003a        bcc         LAB_80004c84                            
ram:80004c40    3a0054e3        cmp         r4,#0x3a                                
ram:80004c44    faffff1a        bne         LAB_80004c34                            
ram:80004c48    0040dce5        ldrb        r4,[r12,#0x0]                           
ram:80004c4c    305044e2        sub         r5,r4,#0x30                             
ram:80004c50    090055e3        cmp         r5,#0x9                                 
ram:80004c54    02c08c92        addls       r12,r12,#0x2                            
ram:80004c58    03005c91        cmpls       r12,r3                                  
ram:80004c5c    0400001a        bne         LAB_80004c74                            
ram:80004c60    010055e3        cmp         r5,#0x1                                 
ram:80004c64    020000aa        bge         LAB_80004c74                            
ram:80004c68    000055e3        cmp         r5,#0x0                                 
ram:80004c6c    003080e5        str         r3,[r0,#0x0]                            
ram:80004c70    040000aa        bge         LAB_80004c88                            
                            LAB_80004c74:                 ;XREF[3,0]:   80004c30,80004c5c,80004c64
ram:80004c74    14d08de2        add         sp,sp,#0x14                             
ram:80004c78    f001bde8        ldmia       sp!,{r4 r5 r6 r7 r8}=>local_24          
ram:80004c7c    0b00a0e3        mov         r0,#0xb                                 
ram:80004c80    008ebde8        ldmia       sp!,{r9 r10 r11 pc}                     
                            LAB_80004c84:                 ;XREF[1,0]:   80004c3c
ram:80004c84    0050a0e3        mov         r5,#0x0                                 
                            LAB_80004c88:                 ;XREF[1,0]:   80004c70
ram:80004c88    3c049fe5        ldr         r0,[PTR_DAT_800050cc]                   ;= 8000786c
ram:80004c8c    054190e7        ldr         r4,[r0,r5,lsl #0x2]=>DAT_8000786c       ;= A4A60904h
ram:80004c90    000054e3        cmp         r4,#0x0                                 
ram:80004c94    14d08d02        addeq       sp,sp,#0x14                             
ram:80004c98    f001bd08        ldmiaeq     sp!,{r4 r5 r6 r7 r8}                    
ram:80004c9c    0c00a003        moveq       r0,#0xc                                 
ram:80004ca0    008ebd08        ldmiaeq     sp!,{r9 r10 r11 pc}                     
ram:80004ca4    004081e5        str         r4,[r1,#0x0]                            
ram:80004ca8    0000d4e5        ldrb        r0,[r4,#0x0]                            
ram:80004cac    fe7002e2        and         r7,r2,#0xfe                             
ram:80004cb0    000050e3        cmp         r0,#0x0                                 
ram:80004cb4    0300000a        beq         LAB_80004cc8                            
ram:80004cb8    0100d4e5        ldrb        r0,[r4,#0x1]                            
ram:80004cbc    e0fcffeb        bl          FUN_80004044                            ;undefined FUN_80004044()
ram:80004cc0    010010e3        tst         r0,#0x1                                 
ram:80004cc4    0f00000a        beq         LAB_80004d08                            
                            LAB_80004cc8:                 ;XREF[1,0]:   80004cb4
ram:80004cc8    ff0005e2        and         r0,r5,#0xff                             
ram:80004ccc    0060c4e5        strb        r6,[r4,#0x0]                            
ram:80004cd0    0100c4e5        strb        r0,[r4,#0x1]                            
ram:80004cd4    6cfcffeb        bl          FUN_80003e8c                            ;undefined FUN_80003e8c()
ram:80004cd8    010010e3        tst         r0,#0x1                                 
ram:80004cdc    14d08d12        addne       sp,sp,#0x14                             
ram:80004ce0    f001bd18        ldmiane     sp!,{r4 r5 r6 r7 r8}                    
ram:80004ce4    0300a013        movne       r0,#0x3                                 
ram:80004ce8    008ebd18        ldmiane     sp!,{r9 r10 r11 pc}                     
ram:80004cec    000057e3        cmp         r7,#0x0                                 
ram:80004cf0    04001013        tstne       r0,#0x4                                 
ram:80004cf4    0a00000a        beq         LAB_80004d24                            
                            LAB_80004cf8:                 ;XREF[1,0]:   80004d14
ram:80004cf8    14d08de2        add         sp,sp,#0x14                             
ram:80004cfc    f001bde8        ldmia       sp!,{r4 r5 r6 r7 r8}                    
ram:80004d00    0a00a0e3        mov         r0,#0xa                                 
ram:80004d04    008ebde8        ldmia       sp!,{r9 r10 r11 pc}                     
                            LAB_80004d08:                 ;XREF[1,0]:   80004cc4
ram:80004d08    000057e3        cmp         r7,#0x0                                 
ram:80004d0c    04001013        tstne       r0,#0x4                                 
ram:80004d10    0000a003        moveq       r0,#0x0                                 
ram:80004d14    f7ffff1a        bne         LAB_80004cf8                            
ram:80004d18    14d08de2        add         sp,sp,#0x14                             
ram:80004d1c    f001bde8        ldmia       sp!,{r4 r5 r6 r7 r8}                    
ram:80004d20    008ebde8        ldmia       sp!,{r9 r10 r11 pc}                     
                            LAB_80004d24:                 ;XREF[1,0]:   80004cf4
ram:80004d24    0000e0e3        mvn         r0,#0x0                                 
ram:80004d28    0050a0e3        mov         r5,#0x0                                 
ram:80004d2c    2c0084e5        str         r0,[r4,#0x2c]                           
ram:80004d30    0510a0e1        mov         r1,r5                                   
ram:80004d34    0400a0e1        mov         r0,r4                                   
ram:80004d38    0350c4e5        strb        r5,[r4,#0x3]                            
ram:80004d3c    870400eb        bl          FUN_80005f60                            ;undefined FUN_80005f60()
ram:80004d40    000050e3        cmp         r0,#0x0                                 
ram:80004d44    0480a0e3        mov         r8,#0x4                                 
ram:80004d48    7d00001a        bne         LAB_80004f44                            
ram:80004d4c    2e12d4e5        ldrb        r1,[r4,#0x22e]                          
ram:80004d50    2f02d4e5        ldrb        r0,[r4,#0x22f]                          
ram:80004d54    027c84e2        add         r7,r4,#0x200                            
ram:80004d58    2e7087e2        add         r7,r7,#0x2e                             
ram:80004d5c    000481e1        orr         r0,r1,r0, lsl #0x8                      
ram:80004d60    aa1c40e2        sub         r1,r0,#0xaa00                           
ram:80004d64    551051e2        subs        r1,r1,#0x55                             
ram:80004d68    d300001a        bne         LAB_800050bc                            
ram:80004d6c    3000d4e5        ldrb        r0,[r4,#0x30]                           
ram:80004d70    e90050e3        cmp         r0,#0xe9                                
ram:80004d74    eb005013        cmpne       r0,#0xeb                                
ram:80004d78    e8005013        cmpne       r0,#0xe8                                
ram:80004d7c    1900001a        bne         LAB_80004de8                            
ram:80004d80    661084e2        add         r1,r4,#0x66                             
ram:80004d84    d10f8fe2        adr         r0,0x800050d0                           
ram:80004d88    0330a0e3        mov         r3,#0x3                                 
                            LAB_80004d8c:                 ;XREF[1,0]:   80004da4
ram:80004d8c    01c0d1e4        ldrb        r12,[r1],#0x1                           
                                                          ; FWD[2,0]:   800050d0,800050d1
ram:80004d90    0160d0e4        ldrb        r6,[r0],#0x1=>DAT_800050d0              ;= 41h
                                                                                    ;= 46h
ram:80004d94    013053e2        subs        r3,r3,#0x1                              
ram:80004d98    06c04ce0        sub         r12,r12,r6                              
ram:80004d9c    0200000a        beq         LAB_80004dac                            
ram:80004da0    00005ce3        cmp         r12,#0x0                                
ram:80004da4    f8ffff0a        beq         LAB_80004d8c                            
ram:80004da8    010000ea        b           LAB_80004db4                            
                            LAB_80004dac:                 ;XREF[1,0]:   80004d9c
ram:80004dac    00005ce3        cmp         r12,#0x0                                
ram:80004db0    3c00000a        beq         LAB_80004ea8                            
                            LAB_80004db4:                 ;XREF[1,0]:   80004da8
ram:80004db4    821084e2        add         r1,r4,#0x82                             
ram:80004db8    c50f8fe2        adr         r0,0x800050d4                           
ram:80004dbc    0530a0e3        mov         r3,#0x5                                 
                            LAB_80004dc0:                 ;XREF[1,0]:   80004dd8
ram:80004dc0    0160d1e4        ldrb        r6,[r1],#0x1                            
                                                          ; FWD[2,0]:   800050d4,800050d5
ram:80004dc4    01c0d0e4        ldrb        r12,[r0],#0x1=>DAT_800050d4             ;= 41h
                                                                                    ;= 46h
ram:80004dc8    013053e2        subs        r3,r3,#0x1                              
ram:80004dcc    0cc046e0        sub         r12,r6,r12                              
ram:80004dd0    0200000a        beq         LAB_80004de0                            
ram:80004dd4    00005ce3        cmp         r12,#0x0                                
ram:80004dd8    f8ffff0a        beq         LAB_80004dc0                            
ram:80004ddc    010000ea        b           LAB_80004de8                            
                            LAB_80004de0:                 ;XREF[1,0]:   80004dd0
ram:80004de0    00005ce3        cmp         r12,#0x0                                
ram:80004de4    2f00000a        beq         LAB_80004ea8                            
                            LAB_80004de8:                 ;XREF[2,0]:   80004d7c,80004ddc
ram:80004de8    0d90a0e1        mov         r9,sp                                   
ram:80004dec    0000a0e3        mov         r0,#0x0                                 
                            LAB_80004df0:                 ;XREF[1,0]:   80004e34
ram:80004df0    001284e0        add         r1,r4,r0, lsl #0x4                      
ram:80004df4    f2c1d1e5        ldrb        r12,[r1,#0x1f2]                         
ram:80004df8    011c81e2        add         r1,r1,#0x100                            
ram:80004dfc    ee1081e2        add         r1,r1,#0xee                             
ram:80004e00    00005ce3        cmp         r12,#0x0                                
ram:80004e04    0010a003        moveq       r1,#0x0                                 
ram:80004e08    0600000a        beq         LAB_80004e28                            
ram:80004e0c    0aa0d1e5        ldrb        r10,[r1,#0xa]                           
ram:80004e10    0bc0d1e5        ldrb        r12,[r1,#0xb]                           
ram:80004e14    0960d1e5        ldrb        r6,[r1,#0x9]                            
ram:80004e18    0850d1e5        ldrb        r5,[r1,#0x8]                            
ram:80004e1c    0c148ae1        orr         r1,r10,r12, lsl #0x8                    
ram:80004e20    011486e1        orr         r1,r6,r1, lsl #0x8                      
ram:80004e24    011485e1        orr         r1,r5,r1, lsl #0x8                      
                            LAB_80004e28:                 ;XREF[1,0]:   80004e08
ram:80004e28    001189e7        str         r1,[r9,r0,lsl #0x2]                     
ram:80004e2c    010080e2        add         r0,r0,#0x1                              
ram:80004e30    040050e3        cmp         r0,#0x4                                 
ram:80004e34    edffff3a        bcc         LAB_80004df0                            
ram:80004e38    0060a0e3        mov         r6,#0x0                                 
ram:80004e3c    00a0e0e3        mvn         r10,#0x0                                
ram:80004e40    06b0a0e1        mov         r11,r6                                  
                            LAB_80004e44:                 ;XREF[1,0]:   80004e94
ram:80004e44    065199e7        ldr         r5,[r9,r6,lsl #0x2]                     
ram:80004e48    000055e3        cmp         r5,#0x0                                 
ram:80004e4c    0d00000a        beq         LAB_80004e88                            
ram:80004e50    03b0c4e5        strb        r11,[r4,#0x3]                           
ram:80004e54    0510a0e1        mov         r1,r5                                   
ram:80004e58    0400a0e1        mov         r0,r4                                   
ram:80004e5c    2ca084e5        str         r10,[r4,#0x2c]                          
ram:80004e60    3e0400eb        bl          FUN_80005f60                            ;undefined FUN_80005f60()
ram:80004e64    000050e3        cmp         r0,#0x0                                 
ram:80004e68    0800a011        movne       r0,r8                                   
ram:80004e6c    0600001a        bne         LAB_80004e8c                            
ram:80004e70    0010d7e5        ldrb        r1,[r7,#0x0]                            
ram:80004e74    0100d7e5        ldrb        r0,[r7,#0x1]                            
ram:80004e78    000481e1        orr         r0,r1,r0, lsl #0x8                      
ram:80004e7c    aa1c40e2        sub         r1,r0,#0xaa00                           
ram:80004e80    551051e2        subs        r1,r1,#0x55                             
ram:80004e84    0d00000a        beq         LAB_80004ec0                            
                            LAB_80004e88:                 ;XREF[1,0]:   80004e4c
ram:80004e88    0300a0e3        mov         r0,#0x3                                 
                            LAB_80004e8c:                 ;XREF[2,0]:   80004e6c,80004f40
ram:80004e8c    016086e2        add         r6,r6,#0x1                              
ram:80004e90    040056e3        cmp         r6,#0x4                                 
ram:80004e94    eaffff3a        bcc         LAB_80004e44                            
ram:80004e98    040050e3        cmp         r0,#0x4                                 
ram:80004e9c    2800000a        beq         LAB_80004f44                            
ram:80004ea0    020050e3        cmp         r0,#0x2                                 
ram:80004ea4    8400002a        bcs         LAB_800050bc                            
                            LAB_80004ea8:                 ;XREF[4,0]:   80004db0,80004de4,80004f04,80004f38
ram:80004ea8    3b10d4e5        ldrb        r1,[r4,#0x3b]                           
ram:80004eac    3c00d4e5        ldrb        r0,[r4,#0x3c]                           
ram:80004eb0    000481e1        orr         r0,r1,r0, lsl #0x8                      
ram:80004eb4    020c50e3        cmp         r0,#0x200                               
ram:80004eb8    7f00001a        bne         LAB_800050bc                            
ram:80004ebc    240000ea        b           LAB_80004f54                            
                            LAB_80004ec0:                 ;XREF[1,0]:   80004e84
ram:80004ec0    3000d4e5        ldrb        r0,[r4,#0x30]                           
ram:80004ec4    e90050e3        cmp         r0,#0xe9                                
ram:80004ec8    eb005013        cmpne       r0,#0xeb                                
ram:80004ecc    e8005013        cmpne       r0,#0xe8                                
ram:80004ed0    1900001a        bne         LAB_80004f3c                            
ram:80004ed4    661084e2        add         r1,r4,#0x66                             
ram:80004ed8    1f0e8fe2        adr         r0,0x800050d0                           
ram:80004edc    0320a0e3        mov         r2,#0x3                                 
                            LAB_80004ee0:                 ;XREF[1,0]:   80004ef8
ram:80004ee0    0130d1e4        ldrb        r3,[r1],#0x1                            
                                                          ; FWD[2,0]:   800050d0,800050d1
ram:80004ee4    01c0d0e4        ldrb        r12,[r0],#0x1=>DAT_800050d0             ;= 41h
                                                                                    ;= 46h
ram:80004ee8    012052e2        subs        r2,r2,#0x1                              
ram:80004eec    0c3043e0        sub         r3,r3,r12                               
ram:80004ef0    0200000a        beq         LAB_80004f00                            
ram:80004ef4    000053e3        cmp         r3,#0x0                                 
ram:80004ef8    f8ffff0a        beq         LAB_80004ee0                            
ram:80004efc    010000ea        b           LAB_80004f08                            
                            LAB_80004f00:                 ;XREF[1,0]:   80004ef0
ram:80004f00    000053e3        cmp         r3,#0x0                                 
ram:80004f04    e7ffff0a        beq         LAB_80004ea8                            
                            LAB_80004f08:                 ;XREF[1,0]:   80004efc
ram:80004f08    821084e2        add         r1,r4,#0x82                             
ram:80004f0c    070d8fe2        adr         r0,0x800050d4                           
ram:80004f10    0520a0e3        mov         r2,#0x5                                 
                            LAB_80004f14:                 ;XREF[1,0]:   80004f2c
ram:80004f14    0130d1e4        ldrb        r3,[r1],#0x1                            
                                                          ; FWD[2,0]:   800050d4,800050d5
ram:80004f18    01c0d0e4        ldrb        r12,[r0],#0x1=>DAT_800050d4             ;= 41h
                                                                                    ;= 46h
ram:80004f1c    012052e2        subs        r2,r2,#0x1                              
ram:80004f20    0c3043e0        sub         r3,r3,r12                               
ram:80004f24    0200000a        beq         LAB_80004f34                            
ram:80004f28    000053e3        cmp         r3,#0x0                                 
ram:80004f2c    f8ffff0a        beq         LAB_80004f14                            
ram:80004f30    010000ea        b           LAB_80004f3c                            
                            LAB_80004f34:                 ;XREF[1,0]:   80004f24
ram:80004f34    000053e3        cmp         r3,#0x0                                 
ram:80004f38    daffff0a        beq         LAB_80004ea8                            
                            LAB_80004f3c:                 ;XREF[2,0]:   80004ed0,80004f30
ram:80004f3c    0200a0e3        mov         r0,#0x2                                 
ram:80004f40    d1ffffea        b           LAB_80004e8c                            
                            LAB_80004f44:                 ;XREF[2,0]:   80004d48,80004e9c
ram:80004f44    14d08de2        add         sp,sp,#0x14                             
ram:80004f48    f001bde8        ldmia       sp!,{r4 r5 r6 r7 r8}                    
ram:80004f4c    0100a0e3        mov         r0,#0x1                                 
ram:80004f50    008ebde8        ldmia       sp!,{r9 r10 r11 pc}                     
                            LAB_80004f54:                 ;XREF[1,0]:   80004ebc
ram:80004f54    4610d4e5        ldrb        r1,[r4,#0x46]                           
ram:80004f58    4700d4e5        ldrb        r0,[r4,#0x47]                           
ram:80004f5c    000491e1        orrs        r0,r1,r0, lsl #0x8                      
ram:80004f60    0600001a        bne         LAB_80004f80                            
ram:80004f64    5630d4e5        ldrb        r3,[r4,#0x56]                           
ram:80004f68    5700d4e5        ldrb        r0,[r4,#0x57]                           
ram:80004f6c    5520d4e5        ldrb        r2,[r4,#0x55]                           
ram:80004f70    5410d4e5        ldrb        r1,[r4,#0x54]                           
ram:80004f74    000483e1        orr         r0,r3,r0, lsl #0x8                      
ram:80004f78    000482e1        orr         r0,r2,r0, lsl #0x8                      
ram:80004f7c    000481e1        orr         r0,r1,r0, lsl #0x8                      
                            LAB_80004f80:                 ;XREF[1,0]:   80004f60
ram:80004f80    4020d4e5        ldrb        r2,[r4,#0x40]                           
ram:80004f84    180084e5        str         r0,[r4,#0x18]                           
ram:80004f88    10008de5        str         r0,[sp,#0x10]                           
ram:80004f8c    010052e3        cmp         r2,#0x1                                 
ram:80004f90    02005213        cmpne       r2,#0x2                                 
ram:80004f94    0220c4e5        strb        r2,[r4,#0x2]                            
ram:80004f98    4700001a        bne         LAB_800050bc                            
ram:80004f9c    3d10d4e5        ldrb        r1,[r4,#0x3d]                           
ram:80004fa0    92000ae0        mul         r10,r2,r0                               
ram:80004fa4    000051e3        cmp         r1,#0x0                                 
ram:80004fa8    ba10c4e1        strh        r1,[r4,#0xa]                            
ram:80004fac    4200000a        beq         LAB_800050bc                            
ram:80004fb0    010041e2        sub         r0,r1,#0x1                              
ram:80004fb4    000011e1        tst         r1,r0                                   
ram:80004fb8    3f00001a        bne         LAB_800050bc                            
ram:80004fbc    4120d4e5        ldrb        r2,[r4,#0x41]                           
ram:80004fc0    4200d4e5        ldrb        r0,[r4,#0x42]                           
ram:80004fc4    008482e1        orr         r8,r2,r0, lsl #0x8                      
ram:80004fc8    0f0018e3        tst         r8,#0xf                                 
ram:80004fcc    b880c4e1        strh        r8,[r4,#0x8]                            
ram:80004fd0    3900001a        bne         LAB_800050bc                            
ram:80004fd4    4320d4e5        ldrb        r2,[r4,#0x43]                           
ram:80004fd8    4400d4e5        ldrb        r0,[r4,#0x44]                           
ram:80004fdc    000492e1        orrs        r0,r2,r0, lsl #0x8                      
ram:80004fe0    0600001a        bne         LAB_80005000                            
ram:80004fe4    52c0d4e5        ldrb        r12,[r4,#0x52]                          
ram:80004fe8    5300d4e5        ldrb        r0,[r4,#0x53]                           
ram:80004fec    5130d4e5        ldrb        r3,[r4,#0x51]                           
ram:80004ff0    5020d4e5        ldrb        r2,[r4,#0x50]                           
ram:80004ff4    00048ce1        orr         r0,r12,r0, lsl #0x8                     
ram:80004ff8    000483e1        orr         r0,r3,r0, lsl #0x8                      
ram:80004ffc    000482e1        orr         r0,r2,r0, lsl #0x8                      
                            LAB_80005000:                 ;XREF[1,0]:   80004fe0
ram:80005000    3e30d4e5        ldrb        r3,[r4,#0x3e]                           
ram:80005004    3f20d4e5        ldrb        r2,[r4,#0x3f]                           
ram:80005008    029493e1        orrs        r9,r3,r2, lsl #0x8                      
ram:8000500c    2a00000a        beq         LAB_800050bc                            
ram:80005010    0a2089e0        add         r2,r9,r10                               
ram:80005014    28b282e0        add         r11,r2,r8, lsr #0x4                     
ram:80005018    00005be1        cmp         r11,r0                                  
ram:8000501c    2600008a        bhi         LAB_800050bc                            
ram:80005020    0b0040e0        sub         r0,r0,r11                               
ram:80005024    3feeffeb        bl          FUN_80000928                            ;undefined FUN_80000928()
ram:80005028    000050e3        cmp         r0,#0x0                                 
ram:8000502c    2200000a        beq         LAB_800050bc                            
ram:80005030    a4109fe5        ldr         r1,[DAT_800050dc]                       ;= 0000FFF5h
ram:80005034    bf0270e3        cmn         r0,#0xf000000b                          
ram:80005038    0060a0e3        mov         r6,#0x0                                 
ram:8000503c    0360a093        movls       r6,#0x3                                 
ram:80005040    010050e1        cmp         r0,r1                                   
ram:80005044    94109fe5        ldr         r1,[DAT_800050e0]                       ;= 00000FF5h
ram:80005048    0260a093        movls       r6,#0x2                                 
ram:8000504c    010050e1        cmp         r0,r1                                   
ram:80005050    0160a093        movls       r6,#0x1                                 
ram:80005054    0100009a        bls         LAB_80005060                            
ram:80005058    000056e3        cmp         r6,#0x0                                 
ram:8000505c    1600000a        beq         LAB_800050bc                            
                            LAB_80005060:                 ;XREF[1,0]:   80005054
ram:80005060    020080e2        add         r0,r0,#0x2                              
ram:80005064    091085e0        add         r1,r5,r9                                
ram:80005068    140084e5        str         r0,[r4,#0x14]                           
ram:8000506c    0b2085e0        add         r2,r5,r11                               
ram:80005070    201084e5        str         r1,[r4,#0x20]                           
ram:80005074    282084e5        str         r2,[r4,#0x28]                           
ram:80005078    030056e3        cmp         r6,#0x3                                 
ram:8000507c    1c5084e5        str         r5,[r4,#0x1c]                           
ram:80005080    1700000a        beq         LAB_800050e4                            
ram:80005084    000058e3        cmp         r8,#0x0                                 
ram:80005088    0b00000a        beq         LAB_800050bc                            
ram:8000508c    020056e3        cmp         r6,#0x2                                 
ram:80005090    0a1081e0        add         r1,r1,r10                               
ram:80005094    241084e5        str         r1,[r4,#0x24]                           
ram:80005098    8000a001        moveq       r0,r0, lsl #0x1                         
ram:8000509c    01100012        andne       r1,r0,#0x1                              
ram:800050a0    80008010        addne       r0,r0,r0, lsl #0x1                      
ram:800050a4    a0008110        addne       r0,r1,r0, lsr #0x1                      
                            LAB_800050a8:                 ;XREF[1,0]:   8000511c
ram:800050a8    011c80e2        add         r1,r0,#0x100                            
ram:800050ac    10009de5        ldr         r0,[sp,#0x10]                           
ram:800050b0    ff1081e2        add         r1,r1,#0xff                             
ram:800050b4    a10450e1        cmp         r0,r1, lsr #0x9                         
ram:800050b8    1800002a        bcs         LAB_80005120                            
                            LAB_800050bc:                 ;XREF[13,0]:  80004d68,80004ea4,80004eb8,80004f98
                                                          ;             80004fac,80004fb8,80004fd0,8000500c
                                                          ;             8000501c,8000502c,8000505c,80005088
                                                          ;             800050f4
ram:800050bc    14d08de2        add         sp,sp,#0x14                             
ram:800050c0    f001bde8        ldmia       sp!,{r4 r5 r6 r7 r8}                    
ram:800050c4    0d00a0e3        mov         r0,#0xd                                 
ram:800050c8    008ebde8        ldmia       sp!,{r9 r10 r11 pc}                     
                            PTR_DAT_800050cc:             ;XREF[1,0]:   80004c88
ram:800050cc    6c780080        addr        DAT_8000786c                            ;= A4A60904h
                            DAT_800050d0:                 ;XREF[2,0]:   80004d90,80004ee4
ram:800050d0    46              undefined1  46h                                     
                            DAT_800050d1:                 ;XREF[2,0]:   80004d90,80004ee4
ram:800050d1    41              undefined1  41h                                     
ram:800050d2    54              ??          54h    T                                
ram:800050d3    00              ??          00h                                     
                            DAT_800050d4:                 ;XREF[2,0]:   80004dc4,80004f18
ram:800050d4    46              undefined1  46h                                     
                            DAT_800050d5:                 ;XREF[2,0]:   80004dc4,80004f18
ram:800050d5    41              undefined1  41h                                     
ram:800050d6    54              ??          54h    T                                
ram:800050d7    33              ??          33h    3                                
ram:800050d8    32              ??          32h    2                                
ram:800050d9    00              ??          00h                                     
ram:800050da    00              ??          00h                                     
ram:800050db    00              ??          00h                                     
                            DAT_800050dc:                 ;XREF[1,0]:   80005030
ram:800050dc    f5ff0000        undefined4  0000FFF5h                               
                            DAT_800050e0:                 ;XREF[1,0]:   80005044
ram:800050e0    f50f0000        undefined4  00000FF5h                               
                            LAB_800050e4:                 ;XREF[1,0]:   80005080
ram:800050e4    5a20d4e5        ldrb        r2,[r4,#0x5a]                           
ram:800050e8    5b10d4e5        ldrb        r1,[r4,#0x5b]                           
ram:800050ec    011492e1        orrs        r1,r2,r1, lsl #0x8                      
ram:800050f0    00005803        cmpeq       r8,#0x0                                 
ram:800050f4    f0ffff1a        bne         LAB_800050bc                            
ram:800050f8    5ec0d4e5        ldrb        r12,[r4,#0x5e]                          
ram:800050fc    5f10d4e5        ldrb        r1,[r4,#0x5f]                           
ram:80005100    5d30d4e5        ldrb        r3,[r4,#0x5d]                           
ram:80005104    5c20d4e5        ldrb        r2,[r4,#0x5c]                           
ram:80005108    01148ce1        orr         r1,r12,r1, lsl #0x8                     
ram:8000510c    011483e1        orr         r1,r3,r1, lsl #0x8                      
ram:80005110    011482e1        orr         r1,r2,r1, lsl #0x8                      
ram:80005114    0001a0e1        mov         r0,r0, lsl #0x2                         
ram:80005118    241084e5        str         r1,[r4,#0x24]                           
ram:8000511c    e1ffffea        b           LAB_800050a8                            
                            LAB_80005120:                 ;XREF[1,0]:   800050b8
ram:80005120    8010a0e3        mov         r1,#0x80                                
ram:80005124    0000e0e3        mvn         r0,#0x0                                 
ram:80005128    0410c4e5        strb        r1,[r4,#0x4]                            
ram:8000512c    100084e5        str         r0,[r4,#0x10]                           
ram:80005130    030056e3        cmp         r6,#0x3                                 
ram:80005134    0c0084e5        str         r0,[r4,#0xc]                            
ram:80005138    3500001a        bne         LAB_80005214                            
ram:8000513c    6010d4e5        ldrb        r1,[r4,#0x60]                           
ram:80005140    6100d4e5        ldrb        r0,[r4,#0x61]                           
ram:80005144    000481e1        orr         r0,r1,r0, lsl #0x8                      
ram:80005148    010050e3        cmp         r0,#0x1                                 
ram:8000514c    3000001a        bne         LAB_80005214                            
ram:80005150    011085e2        add         r1,r5,#0x1                              
ram:80005154    0400a0e1        mov         r0,r4                                   
ram:80005158    800300eb        bl          FUN_80005f60                            ;undefined FUN_80005f60()
ram:8000515c    000050e3        cmp         r0,#0x0                                 
ram:80005160    2b00001a        bne         LAB_80005214                            
ram:80005164    0000a0e3        mov         r0,#0x0                                 
ram:80005168    0400c4e5        strb        r0,[r4,#0x4]                            
ram:8000516c    0010d7e5        ldrb        r1,[r7,#0x0]                            
ram:80005170    0100d7e5        ldrb        r0,[r7,#0x1]                            
ram:80005174    000481e1        orr         r0,r1,r0, lsl #0x8                      
ram:80005178    aa1c40e2        sub         r1,r0,#0xaa00                           
ram:8000517c    551051e2        subs        r1,r1,#0x55                             
ram:80005180    2300001a        bne         LAB_80005214                            
ram:80005184    3220d4e5        ldrb        r2,[r4,#0x32]                           
ram:80005188    3300d4e5        ldrb        r0,[r4,#0x33]                           
ram:8000518c    3130d4e5        ldrb        r3,[r4,#0x31]                           
ram:80005190    3010d4e5        ldrb        r1,[r4,#0x30]                           
ram:80005194    000482e1        orr         r0,r2,r0, lsl #0x8                      
ram:80005198    000483e1        orr         r0,r3,r0, lsl #0x8                      
ram:8000519c    000481e1        orr         r0,r1,r0, lsl #0x8                      
ram:800051a0    94109fe5        ldr         r1,[DAT_8000523c]                       ;= 41615252h
ram:800051a4    010050e1        cmp         r0,r1                                   
ram:800051a8    1900001a        bne         LAB_80005214                            
ram:800051ac    1712d4e5        ldrb        r1,[r4,#0x217]                          
ram:800051b0    16c2d4e5        ldrb        r12,[r4,#0x216]                         
ram:800051b4    1532d4e5        ldrb        r3,[r4,#0x215]                          
ram:800051b8    1422d4e5        ldrb        r2,[r4,#0x214]                          
ram:800051bc    01048ce1        orr         r0,r12,r1, lsl #0x8                     
ram:800051c0    78109fe5        ldr         r1,[DAT_80005240]                       ;= 61417272h
ram:800051c4    000483e1        orr         r0,r3,r0, lsl #0x8                      
ram:800051c8    000482e1        orr         r0,r2,r0, lsl #0x8                      
ram:800051cc    010050e1        cmp         r0,r1                                   
ram:800051d0    0f00001a        bne         LAB_80005214                            
ram:800051d4    1b12d4e5        ldrb        r1,[r4,#0x21b]                          
ram:800051d8    1ac2d4e5        ldrb        r12,[r4,#0x21a]                         
ram:800051dc    1932d4e5        ldrb        r3,[r4,#0x219]                          
ram:800051e0    1822d4e5        ldrb        r2,[r4,#0x218]                          
ram:800051e4    01048ce1        orr         r0,r12,r1, lsl #0x8                     
ram:800051e8    000483e1        orr         r0,r3,r0, lsl #0x8                      
ram:800051ec    000482e1        orr         r0,r2,r0, lsl #0x8                      
ram:800051f0    100084e5        str         r0,[r4,#0x10]                           
ram:800051f4    1f12d4e5        ldrb        r1,[r4,#0x21f]                          
ram:800051f8    1ec2d4e5        ldrb        r12,[r4,#0x21e]                         
ram:800051fc    1d32d4e5        ldrb        r3,[r4,#0x21d]                          
ram:80005200    1c22d4e5        ldrb        r2,[r4,#0x21c]                          
ram:80005204    01048ce1        orr         r0,r12,r1, lsl #0x8                     
ram:80005208    000483e1        orr         r0,r3,r0, lsl #0x8                      
ram:8000520c    000482e1        orr         r0,r2,r0, lsl #0x8                      
ram:80005210    0c0084e5        str         r0,[r4,#0xc]                            
                            LAB_80005214:                 ;XREF[6,0]:   80005138,8000514c,80005160,80005180
                                                          ;             800051a8,800051d0
ram:80005214    28009fe5        ldr         r0,[PTR_DAT_80005244]                   ;= 80007868
ram:80005218    0060c4e5        strb        r6,[r4,#0x0]                            
ram:8000521c    b010d0e1        ldrh        r1,[r0,#0x0]=>DAT_80007868              ;= 0A11h
ram:80005220    011081e2        add         r1,r1,#0x1                              
ram:80005224    b010c0e1        strh        r1,[r0,#0x0]=>DAT_80007868              ;= 0A11h
ram:80005228    b610c4e1        strh        r1,[r4,#0x6]                            
ram:8000522c    14d08de2        add         sp,sp,#0x14                             
ram:80005230    f001bde8        ldmia       sp!,{r4 r5 r6 r7 r8}                    
ram:80005234    0000a0e3        mov         r0,#0x0                                 
ram:80005238    008ebde8        ldmia       sp!,{r9 r10 r11 pc}                     
                            DAT_8000523c:                 ;XREF[1,0]:   800051a0
ram:8000523c    52526141        undefined4  41615252h                               
                            DAT_80005240:                 ;XREF[1,0]:   800051c0
ram:80005240    72724161        undefined4  61417272h                               
                            PTR_DAT_80005244:             ;XREF[1,0]:   80005214
ram:80005244    68780080        addr        DAT_80007868                            ;= 0A11h
                            ;************************************************************************************************
                            ;*                                           FUNCTION                                           *
                            ;************************************************************************************************
                            ;undefined FUN_80005248()
ram:80005248    10402de9        stmdb       sp!,{r4 lr}                             
ram:8000524c    34409fe5        ldr         r4,[PTR_DAT_80005288]                   ;= 800079c8
ram:80005250    010080e0        add         r0,r0,r1                                
ram:80005254    0c1094e5        ldr         r1,[r4,#0xc]=>DAT_800079d4              
ram:80005258    012040e2        sub         r2,r0,#0x1                              
ram:8000525c    010052e1        cmp         r2,r1                                   
ram:80005260    0000a093        movls       r0,#0x0                                 
ram:80005264    1080bd98        ldmials     sp!,{r4 pc}                             
ram:80005268    0210a0e1        mov         r1,r2                                   
ram:8000526c    18009fe5        ldr         r0=>s_ERROR:_Fai...,[PTR_s_ERROR:_Fai...;= "ERROR: Fail to access invalid sec...
                                                                                    ;= 800077ac
ram:80005270    790700eb        bl          FUN_8000705c                            ;undefined FUN_8000705c()
ram:80005274    0c1094e5        ldr         r1,[r4,#0xc]=>DAT_800079d4              
ram:80005278    10008fe2        adr         r0=>s__The_max_v...,0x80005290          ;= "       The max valid sector numbe...
ram:8000527c    760700eb        bl          FUN_8000705c                            ;undefined FUN_8000705c()
ram:80005280    48009fe5        ldr         r0,[DAT_800052d0]                       ;= FFFCA9A3h
ram:80005284    1080bde8        ldmia       sp!,{r4 pc}                             
                            PTR_DAT_80005288:             ;XREF[1,0]:   8000524c
ram:80005288    c8790080        addr        DAT_800079c8                            
                            PTR_s_ERROR:_Fail_to_access...;XREF[1,0]:   8000526c
ram:8000528c    ac770080        addr        s_ERROR:_Fail_to_access_invalid_se_80...;= "ERROR: Fail to access invalid sec...
                            s__The_max_valid_sector_num...;XREF[5,0]:   800021fc,80002334,800023d4,80002508
                                                          ;             80005278
ram:80005290    202020202...    ds          "       The max valid sector number f...
                            DAT_800052d0:                 ;XREF[1,0]:   80005280
ram:800052d0    a3a9fcff        undefined4  FFFCA9A3h                               
                            ;************************************************************************************************
                            ;*                                           FUNCTION                                           *
                            ;************************************************************************************************
                            ;undefined FUN_800052d4()
          ;local_14      undefined4         -14                      ;XREF[2,0]:   80005328,800053f4
          ;local_28      undefined4         -28                      ;XREF[4,0]:   80005324,800053f0,80005528,80005548
                                                          ;XREF[3,0]:   80004254,800047f0,80004a4c
ram:800052d4    005e2de9        stmdb       sp!,{r9 r10 r11 r12 lr}                 
ram:800052d8    f0012de9        stmdb       sp!,{r4 r5 r6 r7 r8}                    
ram:800052dc    007090e5        ldr         r7,[r0,#0x0]                            
ram:800052e0    0150a0e1        mov         r5,r1                                   
ram:800052e4    0040a0e1        mov         r4,r0                                   
                            LAB_800052e8:                 ;XREF[1,0]:   800052f8
ram:800052e8    0000d5e5        ldrb        r0,[r5,#0x0]                            
ram:800052ec    2f0050e3        cmp         r0,#0x2f                                
ram:800052f0    5c005013        cmpne       r0,#0x5c                                
ram:800052f4    01508502        addeq       r5,r5,#0x1                              
ram:800052f8    faffff0a        beq         LAB_800052e8                            
ram:800052fc    0000a0e3        mov         r0,#0x0                                 
ram:80005300    080084e5        str         r0,[r4,#0x8]                            
ram:80005304    0000d5e5        ldrb        r0,[r5,#0x0]                            
ram:80005308    200050e3        cmp         r0,#0x20                                
ram:8000530c    0660a023        movcs       r6,#0x6                                 
ram:80005310    0590a023        movcs       r9,#0x5                                 
ram:80005314    0600002a        bcs         LAB_80005334                            
ram:80005318    8000a0e3        mov         r0,#0x80                                
ram:8000531c    2b00c4e5        strb        r0,[r4,#0x2b]                           
ram:80005320    0400a0e1        mov         r0,r4                                   
ram:80005324    f001bde8        ldmia       sp!,{r4 r5 r6 r7 r8}=>local_28          
ram:80005328    005ebde8        ldmia       sp!,{r9 r10 r11 r12 lr}=>local_14       
ram:8000532c    0010a0e3        mov         r1,#0x0                                 
ram:80005330    93faffea        b           FUN_80003d84                            
                            LAB_80005334:                 ;XREF[2,0]:   80005314,800055a0
ram:80005334    208084e2        add         r8,r4,#0x20                             
ram:80005338    0b20a0e3        mov         r2,#0xb                                 
ram:8000533c    2010a0e3        mov         r1,#0x20                                
ram:80005340    0800a0e1        mov         r0,r8                                   
ram:80005344    470100eb        bl          FUN_80005868                            ;undefined FUN_80005868()
ram:80005348    00c0a0e3        mov         r12,#0x0                                
ram:8000534c    0c10a0e1        mov         r1,r12                                  
ram:80005350    08a0a0e3        mov         r10,#0x8                                
                            LAB_80005354:                 ;XREF[3,0]:   800053e8,80005444,80005480
ram:80005354    0100d5e7        ldrb        r0,[r5,r1]                              
ram:80005358    011081e2        add         r1,r1,#0x1                              
ram:8000535c    200050e3        cmp         r0,#0x20                                
ram:80005360    0c00009a        bls         LAB_80005398                            
ram:80005364    2f0050e3        cmp         r0,#0x2f                                
ram:80005368    5c005013        cmpne       r0,#0x5c                                
ram:8000536c    0400000a        beq         LAB_80005384                            
ram:80005370    2e0050e3        cmp         r0,#0x2e                                
ram:80005374    1800000a        beq         LAB_800053dc                            
ram:80005378    0a005ce1        cmp         r12,r10                                 
ram:8000537c    1a00002a        bcs         LAB_800053ec                            
ram:80005380    1d0000ea        b           LAB_800053fc                            
                            LAB_80005384:                 ;XREF[2,0]:   8000536c,80005394
ram:80005384    0120d5e7        ldrb        r2,[r5,r1]                              
ram:80005388    2f0052e3        cmp         r2,#0x2f                                
ram:8000538c    5c005213        cmpne       r2,#0x5c                                
ram:80005390    01108102        addeq       r1,r1,#0x1                              
ram:80005394    faffff0a        beq         LAB_80005384                            
                            LAB_80005398:                 ;XREF[1,0]:   80005360
ram:80005398    00005ce3        cmp         r12,#0x0                                
ram:8000539c    015085e0        add         r5,r5,r1                                
ram:800053a0    1100000a        beq         LAB_800053ec                            
ram:800053a4    0010d8e5        ldrb        r1,[r8,#0x0]                            
ram:800053a8    e50051e3        cmp         r1,#0xe5                                
ram:800053ac    0090c805        strbeq      r9,[r8,#0x0]                            
ram:800053b0    200050e3        cmp         r0,#0x20                                
ram:800053b4    0400a093        movls       r0,#0x4                                 
ram:800053b8    0000a083        movhi       r0,#0x0                                 
ram:800053bc    0b00c8e5        strb        r0,[r8,#0xb]                            
ram:800053c0    008094e5        ldr         r8,[r4,#0x0]                            
ram:800053c4    0010a0e3        mov         r1,#0x0                                 
ram:800053c8    0400a0e1        mov         r0,r4                                   
ram:800053cc    6cfaffeb        bl          FUN_80003d84                            ;undefined FUN_80003d84()
ram:800053d0    000050e3        cmp         r0,#0x0                                 
ram:800053d4    4e00001a        bne         LAB_80005514                            
ram:800053d8    290000ea        b           LAB_80005484                            
                            LAB_800053dc:                 ;XREF[1,0]:   80005374
ram:800053dc    0b005ae3        cmp         r10,#0xb                                
ram:800053e0    08c0a013        movne       r12,#0x8                                
ram:800053e4    0ba0a013        movne       r10,#0xb                                
ram:800053e8    d9ffff1a        bne         LAB_80005354                            
                            LAB_800053ec:                 ;XREF[5,0]:   8000537c,800053a0,80005418,80005430
                                                          ;             80005464
ram:800053ec    0600a0e1        mov         r0,r6                                   
ram:800053f0    f001bde8        ldmia       sp!,{r4 r5 r6 r7 r8}=>local_28          
ram:800053f4    001ebde8        ldmia       sp!,{r9 r10 r11 r12}=>local_14          
ram:800053f8    04f09de4        ldr         pc,[sp],#0x4                            
                            LAB_800053fc:                 ;XREF[1,0]:   80005380
ram:800053fc    810050e3        cmp         r0,#0x81                                
ram:80005400    1000003a        bcc         LAB_80005448                            
ram:80005404    fe0050e3        cmp         r0,#0xfe                                
ram:80005408    0e00008a        bhi         LAB_80005448                            
ram:8000540c    0120d5e7        ldrb        r2,[r5,r1]                              
ram:80005410    011081e2        add         r1,r1,#0x1                              
ram:80005414    400052e3        cmp         r2,#0x40                                
ram:80005418    f3ffff3a        bcc         LAB_800053ec                            
ram:8000541c    7e0052e3        cmp         r2,#0x7e                                
ram:80005420    80304282        subhi       r3,r2,#0x80                             
ram:80005424    7e005383        cmphi       r3,#0x7e                                
ram:80005428    01304a92        subls       r3,r10,#0x1                             
ram:8000542c    03005c91        cmpls       r12,r3                                  
ram:80005430    edffff2a        bcs         LAB_800053ec                            
ram:80005434    0c00c8e7        strb        r0,[r8,r12]                             
ram:80005438    01008ce2        add         r0,r12,#0x1                             
ram:8000543c    02c08ce2        add         r12,r12,#0x2                            
ram:80005440    0020c8e7        strb        r2,[r8,r0]                              
ram:80005444    c2ffffea        b           LAB_80005354                            
                            LAB_80005448:                 ;XREF[2,0]:   80005400,80005408
ram:80005448    552f8fe2        adr         r2,0x800055a4                           
                            LAB_8000544c:                 ;XREF[1,0]:   80005460
ram:8000544c    0030d2e5        ldrb        r3,[r2,#0x0]=>DAT_800055a4              ;= 22h
ram:80005450    000053e3        cmp         r3,#0x0                                 
ram:80005454    0300000a        beq         LAB_80005468                            
ram:80005458    000053e1        cmp         r3,r0                                   
ram:8000545c    01208212        addne       r2,r2,#0x1                              
ram:80005460    f9ffff1a        bne         LAB_8000544c                            
ram:80005464    e0ffffea        b           LAB_800053ec                            
                            LAB_80005468:                 ;XREF[1,0]:   80005454
ram:80005468    612040e2        sub         r2,r0,#0x61                             
ram:8000546c    190052e3        cmp         r2,#0x19                                
ram:80005470    20004092        subls       r0,r0,#0x20                             
ram:80005474    ff000092        andls       r0,r0,#0xff                             
ram:80005478    0c00c8e7        strb        r0,[r8,r12]                             
ram:8000547c    01c08ce2        add         r12,r12,#0x1                            
ram:80005480    b3ffffea        b           LAB_80005354                            
                            LAB_80005484:                 ;XREF[2,0]:   800053d8,8000550c
ram:80005484    181094e5        ldr         r1,[r4,#0x18]                           
ram:80005488    0800a0e1        mov         r0,r8                                   
ram:8000548c    b30200eb        bl          FUN_80005f60                            ;undefined FUN_80005f60()
ram:80005490    00a0b0e1        movs        r10,r0                                  
ram:80005494    1d00001a        bne         LAB_80005510                            
ram:80005498    1c2094e5        ldr         r2,[r4,#0x1c]                           
ram:8000549c    0000d2e5        ldrb        r0,[r2,#0x0]                            
ram:800054a0    000050e3        cmp         r0,#0x0                                 
ram:800054a4    0800000a        beq         LAB_800054cc                            
ram:800054a8    0b00d2e5        ldrb        r0,[r2,#0xb]                            
ram:800054ac    3f1000e2        and         r1,r0,#0x3f                             
ram:800054b0    0610c4e5        strb        r1,[r4,#0x6]                            
ram:800054b4    0b00d2e5        ldrb        r0,[r2,#0xb]                            
ram:800054b8    080010e3        tst         r0,#0x8                                 
ram:800054bc    20308402        addeq       r3,r4,#0x20                             
ram:800054c0    0b00a003        moveq       r0,#0xb                                 
ram:800054c4    0200000a        beq         LAB_800054d4                            
ram:800054c8    0b0000ea        b           LAB_800054fc                            
                            LAB_800054cc:                 ;XREF[1,0]:   800054a4
ram:800054cc    04a0a0e3        mov         r10,#0x4                                
ram:800054d0    0e0000ea        b           LAB_80005510                            
                            LAB_800054d4:                 ;XREF[2,0]:   800054c4,800054ec
ram:800054d4    01c0d2e4        ldrb        r12,[r2],#0x1                           
ram:800054d8    0110d3e4        ldrb        r1,[r3],#0x1                            
ram:800054dc    010050e2        subs        r0,r0,#0x1                              
ram:800054e0    01104ce0        sub         r1,r12,r1                               
ram:800054e4    0200000a        beq         LAB_800054f4                            
ram:800054e8    000051e3        cmp         r1,#0x0                                 
ram:800054ec    f8ffff0a        beq         LAB_800054d4                            
ram:800054f0    010000ea        b           LAB_800054fc                            
                            LAB_800054f4:                 ;XREF[1,0]:   800054e4
ram:800054f4    000051e3        cmp         r1,#0x0                                 
ram:800054f8    0400000a        beq         LAB_80005510                            
                            LAB_800054fc:                 ;XREF[2,0]:   800054c8,800054f0
ram:800054fc    0010a0e3        mov         r1,#0x0                                 
ram:80005500    0400a0e1        mov         r0,r4                                   
ram:80005504    61f9ffeb        bl          FUN_80003a90                            ;undefined FUN_80003a90()
ram:80005508    00a0b0e1        movs        r10,r0                                  
ram:8000550c    dcffff0a        beq         LAB_80005484                            
                            LAB_80005510:                 ;XREF[3,0]:   80005494,800054d0,800054f8
ram:80005510    0a00a0e1        mov         r0,r10                                  
                            LAB_80005514:                 ;XREF[1,0]:   800053d4
ram:80005514    2b10d4e5        ldrb        r1,[r4,#0x2b]                           
ram:80005518    000050e3        cmp         r0,#0x0                                 
ram:8000551c    0800000a        beq         LAB_80005544                            
ram:80005520    040050e3        cmp         r0,#0x4                                 
ram:80005524    04001103        tsteq       r1,#0x4                                 
ram:80005528    f001bd18        ldmiane     sp!,{r4 r5 r6 r7 r8}=>local_28          
ram:8000552c    001ebd18        ldmiane     sp!,{r9 r10 r11 r12}                    
ram:80005530    04f09d14        ldrne       pc,[sp],#0x4                            
                            LAB_80005534:                 ;XREF[1,0]:   8000555c
ram:80005534    f001bde8        ldmia       sp!,{r4 r5 r6 r7 r8}                    
ram:80005538    001ebde8        ldmia       sp!,{r9 r10 r11 r12}                    
ram:8000553c    0500a0e3        mov         r0,#0x5                                 
ram:80005540    04f09de4        ldr         pc,[sp],#0x4                            
                            LAB_80005544:                 ;XREF[1,0]:   8000551c
ram:80005544    040011e3        tst         r1,#0x4                                 
ram:80005548    f001bd18        ldmiane     sp!,{r4 r5 r6 r7 r8}=>local_28          
ram:8000554c    001ebd18        ldmiane     sp!,{r9 r10 r11 r12}                    
ram:80005550    04f09d14        ldrne       pc,[sp],#0x4                            
ram:80005554    0600d4e5        ldrb        r0,[r4,#0x6]                            
ram:80005558    100010e3        tst         r0,#0x10                                
ram:8000555c    f4ffff0a        beq         LAB_80005534                            
ram:80005560    b001d4e1        ldrh        r0,[r4,#0x10]                           
ram:80005564    800ba0e1        mov         r0,r0, lsl #0x17                        
ram:80005568    a00ba0e1        mov         r0,r0, lsr #0x17                        
ram:8000556c    070080e0        add         r0,r0,r7                                
ram:80005570    4a20d0e5        ldrb        r2,[r0,#0x4a]                           
ram:80005574    301080e2        add         r1,r0,#0x30                             
ram:80005578    4b00d0e5        ldrb        r0,[r0,#0x4b]                           
ram:8000557c    000482e1        orr         r0,r2,r0, lsl #0x8                      
ram:80005580    0020d7e5        ldrb        r2,[r7,#0x0]                            
ram:80005584    030052e3        cmp         r2,#0x3                                 
ram:80005588    0300001a        bne         LAB_8000559c                            
ram:8000558c    1420d1e5        ldrb        r2,[r1,#0x14]                           
ram:80005590    1510d1e5        ldrb        r1,[r1,#0x15]                           
ram:80005594    011482e1        orr         r1,r2,r1, lsl #0x8                      
ram:80005598    010880e1        orr         r0,r0,r1, lsl #0x10                     
                            LAB_8000559c:                 ;XREF[1,0]:   80005588
ram:8000559c    080084e5        str         r0,[r4,#0x8]                            
ram:800055a0    63ffffea        b           LAB_80005334                            
                            DAT_800055a4:                 ;XREF[1,0]:   8000544c
ram:800055a4    22              undefined1  22h                                     
ram:800055a5    2a              ??          2Ah    *                                
ram:800055a6    2b              ??          2Bh    +                                
ram:800055a7    2c              ??          2Ch    ,                                
ram:800055a8    3a              ??          3Ah    :                                
ram:800055a9    3b              ??          3Bh    ;                                
ram:800055aa    3c              ??          3Ch    <                                
ram:800055ab    3d              ??          3Dh    =                                
ram:800055ac    3e              ??          3Eh    >                                
ram:800055ad    3f              ??          3Fh    ?                                
ram:800055ae    5b              ??          5Bh    [                                
ram:800055af    5d              ??          5Dh    ]                                
ram:800055b0    7c              ??          7Ch    |                                
ram:800055b1    7f              ??          7Fh                                    
ram:800055b2    00              ??          00h                                     
ram:800055b3    00              ??          00h                                     
                            ;************************************************************************************************
                            ;*                                           FUNCTION                                           *
                            ;************************************************************************************************
                            ;undefined FUN_800055b4()
          ;local_18      undefined4         -18                      ;XREF[2,0]:   800055b8,800055fc
                                                          ;XREF[8,0]:   800038a0,80003904,80003980,80003b10
                                                          ;             80003dd8,800044a0,8000467c,8000621c
ram:800055b4    e0412de9        stmdb       sp!,{r5 r6 r7 r8 lr}                    
ram:800055b8    04402de5        str         r4,[sp,#local_18+0x14]!                 
ram:800055bc    004090e5        ldr         r4,[r0,#0x0]                            
ram:800055c0    020051e3        cmp         r1,#0x2                                 
ram:800055c4    14009425        ldrcs       r0,[r4,#0x14]                           
ram:800055c8    0160a0e1        mov         r6,r1                                   
ram:800055cc    06005021        cmpcs       r0,r6                                   
ram:800055d0    0700009a        bls         LAB_800055f4                            
ram:800055d4    0000d4e5        ldrb        r0,[r4,#0x0]                            
ram:800055d8    0050e0e3        mvn         r5,#0x0                                 
ram:800055dc    010050e3        cmp         r0,#0x1                                 
ram:800055e0    0700000a        beq         LAB_80005604                            
ram:800055e4    020050e3        cmp         r0,#0x2                                 
ram:800055e8    2000000a        beq         LAB_80005670                            
ram:800055ec    030050e3        cmp         r0,#0x3                                 
ram:800055f0    2a00000a        beq         LAB_800056a0                            
                            LAB_800055f4:                 ;XREF[1,0]:   800055d0
ram:800055f4    0150a0e3        mov         r5,#0x1                                 
                            LAB_800055f8:                 ;XREF[7,0]:   8000561c,80005648,8000566c,80005684
                                                          ;             8000569c,800056b4,800056e4
ram:800055f8    0500a0e1        mov         r0,r5                                   
ram:800055fc    f001bde8        ldmia       sp!,{r4 r5 r6 r7 r8}=>local_18          
ram:80005600    04f09de4        ldr         pc,[sp],#0x4                            
                            LAB_80005604:                 ;XREF[1,0]:   800055e0
ram:80005604    200094e5        ldr         r0,[r4,#0x20]                           
ram:80005608    a67086e0        add         r7,r6,r6, lsr #0x1                      
ram:8000560c    a71480e0        add         r1,r0,r7, lsr #0x9                      
ram:80005610    0400a0e1        mov         r0,r4                                   
ram:80005614    510200eb        bl          FUN_80005f60                            ;undefined FUN_80005f60()
ram:80005618    000050e3        cmp         r0,#0x0                                 
ram:8000561c    f5ffff1a        bne         LAB_800055f8                            
ram:80005620    870ba0e1        mov         r0,r7, lsl #0x17                        
ram:80005624    a00ba0e1        mov         r0,r0, lsr #0x17                        
ram:80005628    040080e0        add         r0,r0,r4                                
ram:8000562c    3080d0e5        ldrb        r8,[r0,#0x30]                           
ram:80005630    200094e5        ldr         r0,[r4,#0x20]                           
ram:80005634    017087e2        add         r7,r7,#0x1                              
ram:80005638    a71480e0        add         r1,r0,r7, lsr #0x9                      
ram:8000563c    0400a0e1        mov         r0,r4                                   
ram:80005640    460200eb        bl          FUN_80005f60                            ;undefined FUN_80005f60()
ram:80005644    000050e3        cmp         r0,#0x0                                 
ram:80005648    eaffff1a        bne         LAB_800055f8                            
ram:8000564c    870ba0e1        mov         r0,r7, lsl #0x17                        
ram:80005650    a00ba0e1        mov         r0,r0, lsr #0x17                        
ram:80005654    040080e0        add         r0,r0,r4                                
ram:80005658    3000d0e5        ldrb        r0,[r0,#0x30]                           
ram:8000565c    010016e3        tst         r6,#0x1                                 
ram:80005660    000488e1        orr         r0,r8,r0, lsl #0x8                      
ram:80005664    2052a011        movne       r5,r0, lsr #0x4                         
ram:80005668    0f5ac003        biceq       r5,r0,#0xf000                           
ram:8000566c    e1ffffea        b           LAB_800055f8                            
                            LAB_80005670:                 ;XREF[1,0]:   800055e8
ram:80005670    200094e5        ldr         r0,[r4,#0x20]                           
ram:80005674    261480e0        add         r1,r0,r6, lsr #0x8                      
ram:80005678    0400a0e1        mov         r0,r4                                   
ram:8000567c    370200eb        bl          FUN_80005f60                            ;undefined FUN_80005f60()
ram:80005680    000050e3        cmp         r0,#0x0                                 
ram:80005684    dbffff1a        bne         LAB_800055f8                            
ram:80005688    ff0006e2        and         r0,r6,#0xff                             
ram:8000568c    800084e0        add         r0,r4,r0, lsl #0x1                      
ram:80005690    3110d0e5        ldrb        r1,[r0,#0x31]                           
ram:80005694    3000d0e5        ldrb        r0,[r0,#0x30]                           
ram:80005698    015480e1        orr         r5,r0,r1, lsl #0x8                      
ram:8000569c    d5ffffea        b           LAB_800055f8                            
                            LAB_800056a0:                 ;XREF[1,0]:   800055f0
ram:800056a0    200094e5        ldr         r0,[r4,#0x20]                           
ram:800056a4    a61380e0        add         r1,r0,r6, lsr #0x7                      
ram:800056a8    0400a0e1        mov         r0,r4                                   
ram:800056ac    2b0200eb        bl          FUN_80005f60                            ;undefined FUN_80005f60()
ram:800056b0    000050e3        cmp         r0,#0x0                                 
ram:800056b4    cfffff1a        bne         LAB_800055f8                            
ram:800056b8    7f0fa0e3        mov         r0,#0x1fc                               
ram:800056bc    060100e0        and         r0,r0,r6, lsl #0x2                      
ram:800056c0    040080e0        add         r0,r0,r4                                
ram:800056c4    32c0d0e5        ldrb        r12,[r0,#0x32]                          
ram:800056c8    3310d0e5        ldrb        r1,[r0,#0x33]                           
ram:800056cc    3120d0e5        ldrb        r2,[r0,#0x31]                           
ram:800056d0    3030d0e5        ldrb        r3,[r0,#0x30]                           
ram:800056d4    01048ce1        orr         r0,r12,r1, lsl #0x8                     
ram:800056d8    000482e1        orr         r0,r2,r0, lsl #0x8                      
ram:800056dc    000483e1        orr         r0,r3,r0, lsl #0x8                      
ram:800056e0    0f52c0e3        bic         r5,r0,#0xf0000000                       
ram:800056e4    c3ffffea        b           LAB_800055f8                            
                            ;************************************************************************************************
                            ;*                                           FUNCTION                                           *
                            ;************************************************************************************************
                            ;undefined FUN_800056e8()
                                                          ;XREF[2,0]:   800042fc,8000494c
ram:800056e8    00009fe5        ldr         r0,[DAT_800056f0]                       ;= 4D04B61Dh
ram:800056ec    1eff2fe1        bx          lr                                      
                            DAT_800056f0:                 ;XREF[1,0]:   800056e8
ram:800056f0    1db6044d        undefined4  4D04B61Dh                               
ram:800056f4    23              ??          23h    #                                
ram:800056f5    de              ??          DEh                                     
ram:800056f6    4d              ??          4Dh    M                                
ram:800056f7    e2              ??          E2h                                     
ram:800056f8    00              ??          00h                                     
ram:800056f9    00              ??          00h                                     
ram:800056fa    a0              ??          A0h                                     
ram:800056fb    e3              ??          E3h                                     
ram:800056fc    cf              ??          CFh                                     
ram:800056fd    f6              ??          F6h                                     
ram:800056fe    ff              ??          FFh                                     
ram:800056ff    eb              ??          EBh                                     
ram:80005700    b8              ??          B8h                                     
ram:80005701    05              ??          05h                                     
ram:80005702    00              ??          00h                                     
ram:80005703    eb              ??          EBh                                     
ram:80005704    3c              ??          3Ch    <                                
ram:80005705    00              ??          00h                                     
ram:80005706    9f              ??          9Fh                                     
ram:80005707    e5              ??          E5h                                     
ram:80005708    e9              ??          E9h                                     
ram:80005709    f6              ??          F6h                                     
ram:8000570a    ff              ??          FFh                                     
ram:8000570b    eb              ??          EBh                                     
ram:8000570c    bb              ??          BBh                                     
ram:8000570d    f6              ??          F6h                                     
ram:8000570e    ff              ??          FFh                                     
ram:8000570f    eb              ??          EBh                                     
ram:80005710    65              ??          65h    e                                
ram:80005711    f5              ??          F5h                                     
ram:80005712    ff              ??          FFh                                     
ram:80005713    eb              ??          EBh                                     
ram:80005714    27              ??          27h    '                                
ram:80005715    ef              ??          EFh                                     
ram:80005716    ff              ??          FFh                                     
ram:80005717    eb              ??          EBh                                     
ram:80005718    bd              ??          BDh                                     
ram:80005719    f0              ??          F0h                                     
ram:8000571a    ff              ??          FFh                                     
ram:8000571b    eb              ??          EBh                                     
ram:8000571c    ee              ??          EEh                                     
ram:8000571d    f0              ??          F0h                                     
ram:8000571e    ff              ??          FFh                                     
ram:8000571f    eb              ??          EBh                                     
ram:80005720    01              ??          01h                                     
ram:80005721    20              ??          20h                                     
ram:80005722    a0              ??          A0h                                     
ram:80005723    e3              ??          E3h                                     
ram:80005724    20              ??          20h                                     
ram:80005725    10              ??          10h                                     
ram:80005726    8f              ??          8Fh                                     
ram:80005727    e2              ??          E2h                                     
ram:80005728    0d              ??          0Dh                                     
ram:80005729    00              ??          00h                                     
ram:8000572a    a0              ??          A0h                                     
ram:8000572b    e1              ??          E1h                                     
ram:8000572c    88              ??          88h                                     
ram:8000572d    fa              ??          FAh                                     
ram:8000572e    ff              ??          FFh                                     
ram:8000572f    eb              ??          EBh                                     
ram:80005730    18              ??          18h                                     
ram:80005731    10              ??          10h                                     
ram:80005732    9f              ??          9Fh                                     
ram:80005733    e5              ??          E5h                                     
ram:80005734    64              ??          64h    d                                
ram:80005735    00              ??          00h                                     
ram:80005736    a0              ??          A0h                                     
ram:80005737    e3              ??          E3h                                     
ram:80005738    02              ??          02h                                     
ram:80005739    00              ??          00h                                     
ram:8000573a    c1              ??          C1h                                     
ram:8000573b    e5              ??          E5h                                     
ram:8000573c    d7              ??          D7h                                     
ram:8000573d    f0              ??          F0h                                     
ram:8000573e    ff              ??          FFh                                     
ram:8000573f    eb              ??          EBh                                     
ram:80005740    fe              ??          FEh                                     
ram:80005741    ec              ??          ECh                                     
ram:80005742    ff              ??          FFh                                     
ram:80005743    eb              ??          EBh                                     
ram:80005744    fe              ??          FEh                                     
ram:80005745    ff              ??          FFh                                     
ram:80005746    ff              ??          FFh                                     
ram:80005747    ea              ??          EAh                                     
ram:80005748    00              ??          00h                                     
ram:80005749    c2              ??          C2h                                     
ram:8000574a    01              ??          01h                                     
ram:8000574b    00              ??          00h                                     
ram:8000574c    30              ??          30h    0                                
ram:8000574d    3a              ??          3Ah    :                                
ram:8000574e    00              ??          00h                                     
ram:8000574f    00              ??          00h                                     
ram:80005750    40              ??          40h    @                                
ram:80005751    7a              ??          7Ah    z                                
ram:80005752    20              ??          20h                                     
ram:80005753    80              ??          80h                                     
                            ;************************************************************************************************
                            ;*                                           FUNCTION                                           *
                            ;************************************************************************************************
                            ;undefined FUN_80005754(undefined param_1, undefined param_2, undefined param_3, undefined param_4, undefined4 param_5, undefined4 param_6, undefined4 param_7, undefined4 param_8, undefined4 param_9)
          ;param_1       undefined           r0                      
          ;param_2       undefined           r1                      
          ;param_3       undefined           r2                      
          ;param_4       undefined           r3                      
          ;param_5       undefined4           0                      ;XREF[1,0]:   80005760
          ;param_6       undefined4           4                      ;XREF[1,0]:   80005764
          ;param_7       undefined4           8                      ;XREF[1,0]:   80005768
          ;param_8       undefined4           c                      ;XREF[1,0]:   8000576c
          ;param_9       undefined4          10                      ;XREF[1,0]:   80005770
          ;local_24      undefined4         -24                      ;XREF[1,0]:   800057ec
                                                          ;XREF[3,0]:   80006e1c,80006e4c,80006e80
ram:80005754    004f2de9        stmdb       sp!,{r8 r9 r10 r11 lr}                  
ram:80005758    f0002de9        stmdb       sp!,{r4 r5 r6 r7}                       
ram:8000575c    0080a0e1        mov         r8,param_1                              
ram:80005760    24409de5        ldr         r4,[sp,#param_5+0x24]                   
ram:80005764    28509de5        ldr         r5,[sp,#param_6+0x24]                   
ram:80005768    2c609de5        ldr         r6,[sp,#param_7+0x24]                   
ram:8000576c    30709de5        ldr         r7,[sp,#param_8+0x24]                   
ram:80005770    34c09de5        ldr         r12,[sp,#param_9+0x24]                  
ram:80005774    22aaa0e1        mov         r10,param_3, lsr #0x14                  
ram:80005778    03268ae1        orr         param_3,r10,param_4, lsl #0xc           
ram:8000577c    233aa0e1        mov         param_4,param_4, lsr #0x14              
ram:80005780    24aaa0e1        mov         r10,r4, lsr #0x14                       
ram:80005784    05468ae1        orr         r4,r10,r5, lsl #0xc                     
ram:80005788    255aa0e1        mov         r5,r5, lsr #0x14                        
ram:8000578c    26aaa0e1        mov         r10,r6, lsr #0x14                       
ram:80005790    07668ae1        orr         r6,r10,r7, lsl #0xc                     
ram:80005794    277aa0e1        mov         r7,r7, lsr #0x14                        
ram:80005798    03c00ce2        and         r12,r12,#0x3                            
ram:8000579c    0600a0e1        mov         param_1,r6                              
ram:800057a0    0710a0e1        mov         param_2,r7                              
ram:800057a4    0a0000ea        b           LAB_800057d4                            
                            LAB_800057a8:                 ;XREF[1,0]:   800057e8
ram:800057a8    049aa0e1        mov         r9,r4, lsl #0x14                        
ram:800057ac    c1ae89e3        orr         r10,r9,#0xc10                           
ram:800057b0    0ca18ae1        orr         r10,r10,r12, lsl #0x2                   
ram:800057b4    02908ae3        orr         r9,r10,#0x2                             
ram:800057b8    029188e7        str         r9,[r8,param_3,lsl #0x2]                
ram:800057bc    010050e2        subs        param_1,param_1,#0x1                    
ram:800057c0    0010c1e2        sbc         param_2,param_2,#0x0                    
ram:800057c4    012092e2        adds        param_3,param_3,#0x1                    
ram:800057c8    0030a3e2        adc         param_4,param_4,#0x0                    
ram:800057cc    014094e2        adds        r4,r4,#0x1                              
ram:800057d0    0050a5e2        adc         r5,r5,#0x0                              
                            LAB_800057d4:                 ;XREF[1,0]:   800057a4
ram:800057d4    00a0a0e3        mov         r10,#0x0                                
ram:800057d8    0a90a0e1        mov         r9,r10                                  
ram:800057dc    00a02ae0        eor         r10,r10,param_1                         
ram:800057e0    019029e0        eor         r9,r9,param_2                           
ram:800057e4    0a9099e1        orrs        r9,r9,r10                               
ram:800057e8    eeffff1a        bne         LAB_800057a8                            
ram:800057ec    f001bde8        ldmia       sp!,{r4 r5 r6 r7 r8}=>local_24          
ram:800057f0    008ebde8        ldmia       sp!,{r9 r10 r11 pc}                     
                            ;************************************************************************************************
                            ;*                                           FUNCTION                                           *
                            ;************************************************************************************************
                            ;undefined FUN_800057f4()
                                                          ;XREF[3,0]:   80003d70,800046d8,80004784
ram:800057f4    000052e3        cmp         r2,#0x0                                 
ram:800057f8    1eff2f01        bxeq        lr                                      
ram:800057fc    060172e3        cmn         r2,#0x80000001                          
ram:80005800    1300008a        bhi         LAB_80005854                            
ram:80005804    010052e3        cmp         r2,#0x1                                 
ram:80005808    0120a0d3        movle       r2,#0x1                                 
ram:8000580c    010000da        ble         LAB_80005818                            
ram:80005810    000052e3        cmp         r2,#0x0                                 
ram:80005814    1eff2fd1        bxle        lr                                      
                            LAB_80005818:                 ;XREF[1,0]:   8000580c
ram:80005818    010012e3        tst         r2,#0x1                                 
ram:8000581c    010040e2        sub         r0,r0,#0x1                              
ram:80005820    011041e2        sub         r1,r1,#0x1                              
ram:80005824    0100000a        beq         LAB_80005830                            
ram:80005828    0130f1e5        ldrb        r3,[r1,#0x1]!                           
ram:8000582c    0130e0e5        strb        r3,[r0,#0x1]!                           
                            LAB_80005830:                 ;XREF[1,0]:   80005824
ram:80005830    c220b0e1        movs        r2,r2, asr #0x1                         
ram:80005834    1eff2f01        bxeq        lr                                      
                            LAB_80005838:                 ;XREF[1,0]:   8000584c
ram:80005838    0130d1e5        ldrb        r3,[r1,#0x1]                            
ram:8000583c    012052e2        subs        r2,r2,#0x1                              
ram:80005840    0130c0e5        strb        r3,[r0,#0x1]                            
ram:80005844    0230f1e5        ldrb        r3,[r1,#0x2]!                           
ram:80005848    0230e0e5        strb        r3,[r0,#0x2]!                           
ram:8000584c    f9ffff1a        bne         LAB_80005838                            
ram:80005850    1eff2fe1        bx          lr                                      
                            LAB_80005854:                 ;XREF[2,0]:   80005800,80005860
ram:80005854    0130d1e4        ldrb        r3,[r1],#0x1                            
ram:80005858    012052e2        subs        r2,r2,#0x1                              
ram:8000585c    0130c0e4        strb        r3,[r0],#0x1                            
ram:80005860    fbffff1a        bne         LAB_80005854                            
ram:80005864    1eff2fe1        bx          lr                                      
                            ;************************************************************************************************
                            ;*                                           FUNCTION                                           *
                            ;************************************************************************************************
                            ;undefined FUN_80005868()
                                                          ;XREF[5,0]:   80003c2c,80003d60,80004470,80005344
                                                          ;             80006cc4
ram:80005868    060172e3        cmn         r2,#0x80000001                          
ram:8000586c    ff1001e2        and         r1,r1,#0xff                             
ram:80005870    0b00008a        bhi         LAB_800058a4                            
ram:80005874    010052e3        cmp         r2,#0x1                                 
ram:80005878    0120a0d3        movle       r2,#0x1                                 
ram:8000587c    010012e3        tst         r2,#0x1                                 
ram:80005880    010040e2        sub         r0,r0,#0x1                              
ram:80005884    0110e015        strbne      r1,[r0,#0x1]!                           
ram:80005888    c220b0e1        movs        r2,r2, asr #0x1                         
ram:8000588c    1eff2f01        bxeq        lr                                      
                            LAB_80005890:                 ;XREF[1,0]:   8000589c
ram:80005890    0110c0e5        strb        r1,[r0,#0x1]                            
ram:80005894    012052e2        subs        r2,r2,#0x1                              
ram:80005898    0210e0e5        strb        r1,[r0,#0x2]!                           
ram:8000589c    fbffff1a        bne         LAB_80005890                            
ram:800058a0    1eff2fe1        bx          lr                                      
                            LAB_800058a4:                 ;XREF[2,0]:   80005870,800058ac
ram:800058a4    012052e2        subs        r2,r2,#0x1                              
ram:800058a8    0110c0e4        strb        r1,[r0],#0x1                            
ram:800058ac    fcffff1a        bne         LAB_800058a4                            
ram:800058b0    1eff2fe1        bx          lr                                      
                            ;************************************************************************************************
                            ;*                                           FUNCTION                                           *
                            ;************************************************************************************************
                            ;undefined FUN_800058b4()
          ;local_18      undefined4         -18                      ;XREF[3,0]:   800058bc,80005958,80005960
                                                          ;XREF[2,0]:   80002fa8,80003068
ram:800058b4    e0412de9        stmdb       sp!,{r5 r6 r7 r8 lr}                    
ram:800058b8    ac509fe5        ldr         r5,[DAT_8000596c]                       ;= 01C0F000h
ram:800058bc    04402de5        str         r4,[sp,#local_18+0x14]!                 
ram:800058c0    0040b0e1        movs        r4,r0                                   
ram:800058c4    0180a0e1        mov         r8,r1                                   
ram:800058c8    017a85e2        add         r7,r5,#0x1000                           
ram:800058cc    0560a001        moveq       r6,r5                                   
ram:800058d0    0200000a        beq         LAB_800058e0                            
ram:800058d4    010054e3        cmp         r4,#0x1                                 
ram:800058d8    0760a001        moveq       r6,r7                                   
ram:800058dc    0060a013        movne       r6,#0x0                                 
                            LAB_800058e0:                 ;XREF[1,0]:   800058d0
ram:800058e0    000050e3        cmp         r0,#0x0                                 
ram:800058e4    0520a001        moveq       r2,r5                                   
ram:800058e8    0200000a        beq         LAB_800058f8                            
ram:800058ec    010050e3        cmp         r0,#0x1                                 
ram:800058f0    0720a001        moveq       r2,r7                                   
ram:800058f4    0020a013        movne       r2,#0x0                                 
                            LAB_800058f8:                 ;XREF[1,0]:   800058e8
ram:800058f8    041092e5        ldr         r1,[r2,#0x4]                            
ram:800058fc    0118c1e3        bic         r1,r1,#0x10000                          
ram:80005900    041082e5        str         r1,[r2,#0x4]                            
ram:80005904    780100eb        bl          FUN_80005eec                            ;undefined FUN_80005eec()
ram:80005908    000050e3        cmp         r0,#0x0                                 
ram:8000590c    1300001a        bne         LAB_80005960                            
ram:80005910    0810a0e1        mov         r1,r8                                   
ram:80005914    0400a0e1        mov         r0,r4                                   
ram:80005918    3a0000eb        bl          FUN_80005a08                            ;undefined FUN_80005a08()
ram:8000591c    000050e3        cmp         r0,#0x0                                 
ram:80005920    0e00001a        bne         LAB_80005960                            
ram:80005924    040096e5        ldr         r0,[r6,#0x4]                            
ram:80005928    ff00c0e3        bic         r0,r0,#0xff                             
ram:8000592c    040086e5        str         r0,[r6,#0x4]                            
ram:80005930    0400b0e1        movs        r0,r4                                   
ram:80005934    0200000a        beq         LAB_80005944                            
ram:80005938    010050e3        cmp         r0,#0x1                                 
ram:8000593c    0750a001        moveq       r5,r7                                   
ram:80005940    0050a013        movne       r5,#0x0                                 
                            LAB_80005944:                 ;XREF[1,0]:   80005934
ram:80005944    041095e5        ldr         r1,[r5,#offset DAT_01c0f004 &0xff]      
ram:80005948    011881e3        orr         r1,r1,#0x10000                          
ram:8000594c    041085e5        str         r1,[r5,#offset DAT_01c0f004 &0xff]      
ram:80005950    650100eb        bl          FUN_80005eec                            ;undefined FUN_80005eec()
ram:80005954    000050e3        cmp         r0,#0x0                                 
ram:80005958    f001bd08        ldmiaeq     sp!,{r4 r5 r6 r7 r8}=>local_18          
ram:8000595c    04f09d04        ldreq       pc,[sp],#0x4                            
                            LAB_80005960:                 ;XREF[2,0]:   8000590c,80005920
ram:80005960    f001bde8        ldmia       sp!,{r4 r5 r6 r7 r8}=>local_18          
ram:80005964    0000e0e3        mvn         r0,#0x0                                 
ram:80005968    04f09de4        ldr         pc,[sp],#0x4                            
                            DAT_8000596c:                 ;XREF[1,0]:   800058b8
ram:8000596c    00f0c001        undefined4  01C0F000h                               
ram:80005970    02              ??          02h                                     
ram:80005971    c0              ??          C0h                                     
ram:80005972    a0              ??          A0h                                     
ram:80005973    e1              ??          E1h                                     
ram:80005974    70              ??          70h    p                                
ram:80005975    40              ??          40h    @                                
ram:80005976    2d              ??          2Dh    -                                
ram:80005977    e9              ??          E9h                                     
ram:80005978    00              ??          00h                                     
ram:80005979    00              ??          00h                                     
ram:8000597a    50              ??          50h    P                                
ram:8000597b    e3              ??          E3h                                     
ram:8000597c    01              ??          01h                                     
ram:8000597d    20              ??          20h                                     
ram:8000597e    a0              ??          A0h                                     
ram:8000597f    e1              ??          E1h                                     
ram:80005980    50              ??          50h    P                                
ram:80005981    10              ??          10h                                     
ram:80005982    9f              ??          9Fh                                     
ram:80005983    05              ??          05h                                     
ram:80005984    02              ??          02h                                     
ram:80005985    00              ??          00h                                     
ram:80005986    00              ??          00h                                     
ram:80005987    0a              ??          0Ah                                     
ram:80005988    01              ??          01h                                     
ram:80005989    00              ??          00h                                     
ram:8000598a    50              ??          50h    P                                
ram:8000598b    e3              ??          E3h                                     
ram:8000598c    48              ??          48h    H                                
ram:8000598d    10              ??          10h                                     
ram:8000598e    9f              ??          9Fh                                     
ram:8000598f    05              ??          05h                                     
ram:80005990    00              ??          00h                                     
ram:80005991    10              ??          10h                                     
ram:80005992    a0              ??          A0h                                     
ram:80005993    13              ??          13h                                     
ram:80005994    44              ??          44h    D                                
ram:80005995    40              ??          40h    @                                
ram:80005996    9f              ??          9Fh                                     
ram:80005997    e5              ??          E5h                                     
ram:80005998    38              ??          38h    8                                
ram:80005999    30              ??          30h    0                                
ram:8000599a    81              ??          81h                                     
ram:8000599b    e2              ??          E2h                                     
ram:8000599c    00              ??          00h                                     
ram:8000599d    10              ??          10h                                     
ram:8000599e    93              ??          93h                                     
ram:8000599f    e5              ??          E5h                                     
ram:800059a0    01              ??          01h                                     
ram:800059a1    20              ??          20h                                     
ram:800059a2    52              ??          52h    R                                
ram:800059a3    e2              ??          E2h                                     
ram:800059a4    01              ??          01h                                     
ram:800059a5    00              ??          00h                                     
ram:800059a6    00              ??          00h                                     
ram:800059a7    3a              ??          3Ah    :                                
ram:800059a8    04              ??          04h                                     
ram:800059a9    00              ??          00h                                     
ram:800059aa    11              ??          11h                                     
ram:800059ab    e1              ??          E1h                                     
ram:800059ac    05              ??          05h                                     
ram:800059ad    00              ??          00h                                     
ram:800059ae    00              ??          00h                                     
ram:800059af    0a              ??          0Ah                                     
ram:800059b0    04              ??          04h                                     
ram:800059b1    30              ??          30h    0                                
ram:800059b2    01              ??          01h                                     
ram:800059b3    e0              ??          E0h                                     
ram:800059b4    00              ??          00h                                     
ram:800059b5    10              ??          10h                                     
ram:800059b6    a0              ??          A0h                                     
ram:800059b7    e1              ??          E1h                                     
ram:800059b8    24              ??          24h    $                                
ram:800059b9    00              ??          00h                                     
ram:800059ba    8f              ??          8Fh                                     
ram:800059bb    e2              ??          E2h                                     
ram:800059bc    a6              ??          A6h                                     
ram:800059bd    05              ??          05h                                     
ram:800059be    00              ??          00h                                     
ram:800059bf    eb              ??          EBh                                     
ram:800059c0    97              ??          97h                                     
ram:800059c1    00              ??          00h                                     
ram:800059c2    e0              ??          E0h                                     
ram:800059c3    e3              ??          E3h                                     
ram:800059c4    70              ??          70h    p                                
ram:800059c5    80              ??          80h                                     
ram:800059c6    bd              ??          BDh                                     
ram:800059c7    e8              ??          E8h                                     
ram:800059c8    0c              ??          0Ch                                     
ram:800059c9    00              ??          00h                                     
ram:800059ca    11              ??          11h                                     
ram:800059cb    e1              ??          E1h                                     
ram:800059cc    f2              ??          F2h                                     
ram:800059cd    ff              ??          FFh                                     
ram:800059ce    ff              ??          FFh                                     
ram:800059cf    0a              ??          0Ah                                     
ram:800059d0    00              ??          00h                                     
ram:800059d1    00              ??          00h                                     
ram:800059d2    a0              ??          A0h                                     
ram:800059d3    e3              ??          E3h                                     
ram:800059d4    70              ??          70h    p                                
ram:800059d5    80              ??          80h                                     
ram:800059d6    bd              ??          BDh                                     
ram:800059d7    e8              ??          E8h                                     
ram:800059d8    00              ??          00h                                     
ram:800059d9    f0              ??          F0h                                     
ram:800059da    c0              ??          C0h                                     
ram:800059db    01              ??          01h                                     
ram:800059dc    00              ??          00h                                     
ram:800059dd    00              ??          00h                                     
ram:800059de    c1              ??          C1h                                     
ram:800059df    01              ??          01h                                     
ram:800059e0    c2              ??          C2h                                     
ram:800059e1    bf              ??          BFh                                     
ram:800059e2    00              ??          00h                                     
ram:800059e3    00              ??          00h                                     
                            s_ERR:_mmc%d_tmier=[%d]_tim...;XREF[3,0]:   8000697c,80006a44,80006ba4
ram:800059e4    4552523a2...    ds          "ERR: mmc%d tmier=[%d] timeout %x\r\n"  
                            ;************************************************************************************************
                            ;*                                           FUNCTION                                           *
                            ;************************************************************************************************
                            ;undefined FUN_80005a08()
          ;local_1c      undefined4         -1c                      ;XREF[2,0]:   80005b08,80005bac
          ;local_20      undefined4         -20                      ;XREF[1,0]:   80005b88
          ;local_24      undefined4         -24                      ;XREF[1,0]:   80005b9c
          ;local_28      undefined4         -28                      ;XREF[1,0]:   80005ba0
                                                          ;XREF[2,0]:   80001c14,80005918
ram:80005a08    c0432de9        stmdb       sp!,{r6 r7 r8 r9 lr}                    
ram:80005a0c    30002de9        stmdb       sp!,{r4 r5}                             
ram:80005a10    a0519fe5        ldr         r5,[DAT_80005bb8]                       ;= 016E3600h
ram:80005a14    0cd04de2        sub         sp,sp,#0xc                              
ram:80005a18    050051e1        cmp         r1,r5                                   
ram:80005a1c    0160a0e1        mov         r6,r1                                   
ram:80005a20    0090a0e1        mov         r9,r0                                   
ram:80005a24    0170a0e3        mov         r7,#0x1                                 
ram:80005a28    0080a093        movls       r8,#0x0                                 
ram:80005a2c    2000009a        bls         LAB_80005ab4                            
ram:80005a30    84119fe5        ldr         r1,[DAT_80005bbc]                       ;= 22551000h
ram:80005a34    84019fe5        ldr         r0=>s_clock_set_...,[DAT_80005bc0]      ;= 8000386Ch
                                                                                    ;= "clock_set_pll6: %d hz\r\n"
ram:80005a38    0184a0e3        mov         r8,#0x1000000                           
ram:80005a3c    860500eb        bl          FUN_8000705c                            ;undefined FUN_8000705c()
ram:80005a40    7c019fe5        ldr         r0,[DAT_80005bc4]                       ;= 01C20028h
ram:80005a44    001090e5        ldr         r1,[r0,#0x0]=>DAT_01c20028              
ram:80005a48    0211c1e3        bic         r1,r1,#0x80000000                       
ram:80005a4c    001080e5        str         r1,[r0,#0x0]=>DAT_01c20028              
ram:80005a50    001090e5        ldr         r1,[r0,#0x0]=>DAT_01c20028              
ram:80005a54    2116a0e1        mov         r1,r1, lsr #0xc                         
ram:80005a58    0116a0e1        mov         r1,r1, lsl #0xc                         
ram:80005a5c    001080e5        str         r1,[r0,#0x0]=>DAT_01c20028              
ram:80005a60    001090e5        ldr         r1,[r0,#0x0]=>DAT_01c20028              
ram:80005a64    171c81e3        orr         r1,r1,#0x1700                           
ram:80005a68    001080e5        str         r1,[r0,#0x0]=>DAT_01c20028              
ram:80005a6c    001090e5        ldr         r1,[r0,#0x0]=>DAT_01c20028              
ram:80005a70    021181e3        orr         r1,r1,#0x80000000                       
ram:80005a74    001080e5        str         r1,[r0,#0x0]=>DAT_01c20028              
ram:80005a78    000090e5        ldr         r0,[r0,#0x0]=>DAT_01c20028              
ram:80005a7c    001da0e1        mov         r1,r0, lsl #0x1a                        
ram:80005a80    8039a0e1        mov         r3,r0, lsl #0x13                        
ram:80005a84    032000e2        and         r2,r0,#0x3                              
ram:80005a88    a30d87e0        add         r0,r7,r3, lsr #0x1b                     
ram:80005a8c    211f87e0        add         r1,r7,r1, lsr #0x1e                     
ram:80005a90    800160e1        smulbb      r0,r0,r1                                
ram:80005a94    1c319fe5        ldr         r3,[DAT_80005bb8]                       ;= 016E3600h
ram:80005a98    011082e2        add         r1,r2,#0x1                              
ram:80005a9c    930000e0        mul         r0,r3,r0                                
ram:80005aa0    a1eaffeb        bl          FUN_8000052c                            ;undefined FUN_8000052c()
ram:80005aa4    0050a0e1        mov         r5,r0                                   
ram:80005aa8    0010a0e1        mov         r1,r0                                   
ram:80005aac    450f8fe2        adr         r0=>s_pll_hz:_%d_hz_80005bc8,0x80005bc8 ;= "pll_hz: %d hz\r\n"
ram:80005ab0    690500eb        bl          FUN_8000705c                            ;undefined FUN_8000705c()
                            LAB_80005ab4:                 ;XREF[1,0]:   80005a2c
ram:80005ab4    0610a0e1        mov         r1,r6                                   
ram:80005ab8    0500a0e1        mov         r0,r5                                   
ram:80005abc    99ebffeb        bl          FUN_80000928                            ;undefined FUN_80000928()
ram:80005ac0    000051e3        cmp         r1,#0x0                                 
ram:80005ac4    0040a0e1        mov         r4,r0                                   
ram:80005ac8    01408012        addne       r4,r0,#0x1                              
ram:80005acc    100054e3        cmp         r4,#0x10                                
ram:80005ad0    0000a0e3        mov         r0,#0x0                                 
ram:80005ad4    0e00009a        bls         LAB_80005b14                            
                            LAB_80005ad8:                 ;XREF[1,0]:   80005ae8
ram:80005ad8    011084e2        add         r1,r4,#0x1                              
ram:80005adc    a140a0e1        mov         r4,r1, lsr #0x1                         
ram:80005ae0    100054e3        cmp         r4,#0x10                                
ram:80005ae4    010080e2        add         r0,r0,#0x1                              
ram:80005ae8    faffff8a        bhi         LAB_80005ad8                            
ram:80005aec    030050e3        cmp         r0,#0x3                                 
ram:80005af0    0700009a        bls         LAB_80005b14                            
ram:80005af4    0620a0e1        mov         r2,r6                                   
ram:80005af8    0910a0e1        mov         r1,r9                                   
ram:80005afc    d4008fe2        adr         r0=>s_mmc_%u_err...,0x80005bd8          ;= "mmc %u error cannot set clock to ...
ram:80005b00    550500eb        bl          FUN_8000705c                            ;undefined FUN_8000705c()
ram:80005b04    0cd08de2        add         sp,sp,#0xc                              
ram:80005b08    f001bde8        ldmia       sp!,{r4 r5 r6 r7 r8}=>local_1c          
ram:80005b0c    0000e0e3        mvn         r0,#0x0                                 
ram:80005b10    0082bde8        ldmia       sp!,{r9 pc}                             
                            LAB_80005b14:                 ;XREF[2,0]:   80005ad4,80005af0
ram:80005b14    e4109fe5        ldr         r1,[DAT_80005c00]                       ;= 00061A80h
ram:80005b18    060051e1        cmp         r1,r6                                   
ram:80005b1c    0020a023        movcs       r2,#0x0                                 
ram:80005b20    0210a021        movcs       r1,r2                                   
ram:80005b24    0900002a        bcs         LAB_80005b50                            
ram:80005b28    d4109fe5        ldr         r1,[DAT_80005c04]                       ;= 017D7840h
ram:80005b2c    060051e1        cmp         r1,r6                                   
ram:80005b30    0020a023        movcs       r2,#0x0                                 
ram:80005b34    0510a023        movcs       r1,#0x5                                 
ram:80005b38    0400002a        bcs         LAB_80005b50                            
ram:80005b3c    c4109fe5        ldr         r1,[DAT_80005c08]                       ;= 02FAF080h
ram:80005b40    060051e1        cmp         r1,r6                                   
ram:80005b44    0320a023        movcs       r2,#0x3                                 
ram:80005b48    0120a033        movcc       r2,#0x1                                 
ram:80005b4c    0410a0e3        mov         r1,#0x4                                 
                            LAB_80005b50:                 ;XREF[2,0]:   80005b24,80005b38
ram:80005b50    013a88e1        orr         r3,r8,r1, lsl #0x14                     
ram:80005b54    00c883e1        orr         r12,r3,r0, lsl #0x10                    
ram:80005b58    011044e2        sub         r1,r4,#0x1                              
ram:80005b5c    02248ce1        orr         r2,r12,r2, lsl #0x8                     
ram:80005b60    a4309fe5        ldr         r3,[DAT_80005c0c]                       ;= 01C20088h
ram:80005b64    021081e1        orr         r1,r1,r2                                
ram:80005b68    021181e3        orr         r1,r1,#0x80000000                       
ram:80005b6c    091183e7        str         r1,[r3,r9,lsl #0x2]                     
ram:80005b70    1770a0e1        mov         r7,r7, lsl r0                           
ram:80005b74    0710a0e1        mov         r1,r7                                   
ram:80005b78    0500a0e1        mov         r0,r5                                   
ram:80005b7c    69ebffeb        bl          FUN_80000928                            ;undefined FUN_80000928()
ram:80005b80    0410a0e1        mov         r1,r4                                   
ram:80005b84    67ebffeb        bl          FUN_80000928                            ;undefined FUN_80000928()
ram:80005b88    08008de5        str         r0,[sp,#local_20+0x28]                  
ram:80005b8c    7c009fe5        ldr         r0=>s_mmc_%u_set...,[PTR_s_mmc_%u_set...;= "mmc %u set [mod-clk req %u]-[pare...
                                                                                    ;= 800077f0
ram:80005b90    0530a0e1        mov         r3,r5                                   
ram:80005b94    0620a0e1        mov         r2,r6                                   
ram:80005b98    0910a0e1        mov         r1,r9                                   
ram:80005b9c    04408de5        str         r4,[sp,#local_24+0x28]                  
ram:80005ba0    00708de5        str         r7,[sp,#0x0]=>local_28                  
ram:80005ba4    2c0500eb        bl          FUN_8000705c                            ;undefined FUN_8000705c()
ram:80005ba8    0cd08de2        add         sp,sp,#0xc                              
ram:80005bac    f001bde8        ldmia       sp!,{r4 r5 r6 r7 r8}=>local_1c          
ram:80005bb0    0000a0e3        mov         r0,#0x0                                 
ram:80005bb4    0082bde8        ldmia       sp!,{r9 pc}                             
                            DAT_80005bb8:                 ;XREF[2,0]:   80005a10,80005a94
ram:80005bb8    00366e01        undefined4  016E3600h                               
                            DAT_80005bbc:                 ;XREF[1,0]:   80005a30
ram:80005bbc    00105522        undefined4  22551000h                               
                            DAT_80005bc0:                 ;XREF[1,0]:   80005a34
ram:80005bc0    6c380080        undefined4  8000386Ch                               ;?  ->  8000386c
                            DAT_80005bc4:                 ;XREF[1,0]:   80005a40
ram:80005bc4    2800c201        undefined4  01C20028h                               
                            s_pll_hz:_%d_hz_80005bc8:     ;XREF[1,0]:   80005aac
ram:80005bc8    706c6c5f6...    ds          "pll_hz: %d hz\r\n"                     
                            s_mmc_%u_error_cannot_set_c...;XREF[1,0]:   80005afc
ram:80005bd8    6d6d63202...    ds          "mmc %u error cannot set clock to %u\...
                            DAT_80005c00:                 ;XREF[1,0]:   80005b14
ram:80005c00    801a0600        undefined4  00061A80h                               
                            DAT_80005c04:                 ;XREF[1,0]:   80005b28
ram:80005c04    40787d01        undefined4  017D7840h                               
                            DAT_80005c08:                 ;XREF[1,0]:   80005b3c
ram:80005c08    80f0fa02        undefined4  02FAF080h                               
                            DAT_80005c0c:                 ;XREF[1,0]:   80005b60
ram:80005c0c    8800c201        undefined4  01C20088h                               
                            PTR_s_mmc_%u_set_[mod-clk_r...;XREF[1,0]:   80005b8c
ram:80005c10    f0770080        addr        s_mmc_%u_set_[mod-clk_req_%u]-[par_80...;= "mmc %u set [mod-clk req %u]-[pare...
                            ;************************************************************************************************
                            ;*                                           FUNCTION                                           *
                            ;************************************************************************************************
                            ;undefined FUN_80005c14()
          ;local_14      undefined4         -14                      ;XREF[2,0]:   80005cb8,80005cf4
          ;local_28      undefined4         -28                      ;XREF[2,0]:   80005cb4,80005cf0
                                                          ;XREF[1,0]:   80006914
ram:80005c14    005e2de9        stmdb       sp!,{r9 r10 r11 r12 lr}                 
ram:80005c18    f0012de9        stmdb       sp!,{r4 r5 r6 r7 r8}                    
ram:80005c1c    0420d1e5        ldrb        r2,[r1,#0x4]                            
ram:80005c20    089091e4        ldr         r9,[r1],#0x8                            
ram:80005c24    00c091e5        ldr         r12,[r1,#0x0]                           
ram:80005c28    043091e5        ldr         r3,[r1,#0x4]                            
ram:80005c2c    017012e2        ands        r7,r2,#0x1                              
ram:80005c30    930c06e0        mul         r6,r3,r12                               
ram:80005c34    04a0a013        movne       r10,#0x4                                
ram:80005c38    08a0a003        moveq       r10,#0x8                                
ram:80005c3c    fa2fa0e3        mov         r2,#0x3e8                               
ram:80005c40    2614a0e1        mov         r1,r6, lsr #0x8                         
ram:80005c44    000050e3        cmp         r0,#0x0                                 
ram:80005c48    910205e0        mul         r5,r1,r2                                
ram:80005c4c    ac009f05        ldreq       r0,[DAT_80005d00]                       ;= 01C0F000h
ram:80005c50    0200000a        beq         LAB_80005c60                            
ram:80005c54    010050e3        cmp         r0,#0x1                                 
ram:80005c58    a4009f05        ldreq       r0,[DAT_80005d04]                       ;= 01C10000h
ram:80005c5c    0000a013        movne       r0,#0x0                                 
                            LAB_80005c60:                 ;XREF[1,0]:   80005c50
ram:80005c60    a0109fe5        ldr         r1,[DAT_80005d08]                       ;= 001E8480h
ram:80005c64    002090e5        ldr         r2,[r0,#0x0]                            
ram:80005c68    010055e1        cmp         r5,r1                                   
ram:80005c6c    0150a031        movcc       r5,r1                                   
ram:80005c70    0010a0e3        mov         r1,#0x0                                 
ram:80005c74    022182e3        orr         r2,r2,#0x80000000                       
ram:80005c78    002080e5        str         r2,[r0,#0x0]                            
ram:80005c7c    260151e1        cmp         r1,r6, lsr #0x2                         
ram:80005c80    0140a0e1        mov         r4,r1                                   
ram:80005c84    028c8032        addcc       r8,r0,#0x200                            
ram:80005c88    3cb08032        addcc       r11,r0,#0x3c                            
ram:80005c8c    1700002a        bcs         LAB_80005cf0                            
                            LAB_80005c90:                 ;XREF[2,0]:   80005ccc,80005cec
ram:80005c90    00009be5        ldr         r0,[r11,#0x0]                           
ram:80005c94    0a0010e1        tst         r0,r10                                  
ram:80005c98    0c00000a        beq         LAB_80005cd0                            
ram:80005c9c    015055e2        subs        r5,r5,#0x1                              
ram:80005ca0    0700002a        bcs         LAB_80005cc4                            
ram:80005ca4    00209be5        ldr         r2,[r11,#0x0]                           
ram:80005ca8    0410a0e1        mov         r1,r4                                   
ram:80005cac    58008fe2        adr         r0=>s_Data[%d]_t...,0x80005d0c          ;= "Data[%d] timeout BIT=0x%08x...\r\n"
ram:80005cb0    e90400eb        bl          FUN_8000705c                            ;undefined FUN_8000705c()
ram:80005cb4    f001bde8        ldmia       sp!,{r4 r5 r6 r7 r8}=>local_28          
ram:80005cb8    001ebde8        ldmia       sp!,{r9 r10 r11 r12}=>local_14          
ram:80005cbc    0000e0e3        mvn         r0,#0x0                                 
ram:80005cc0    04f09de4        ldr         pc,[sp],#0x4                            
                            LAB_80005cc4:                 ;XREF[1,0]:   80005ca0
ram:80005cc4    0500a0e3        mov         r0,#0x5                                 
ram:80005cc8    12edffeb        bl          FUN_80001118                            ;undefined FUN_80001118()
ram:80005ccc    efffffea        b           LAB_80005c90                            
                            LAB_80005cd0:                 ;XREF[1,0]:   80005c98
ram:80005cd0    000057e3        cmp         r7,#0x0                                 
ram:80005cd4    00009815        ldrne       r0,[r8,#0x0]                            
ram:80005cd8    04018917        strne       r0,[r9,r4,lsl #0x2]                     
ram:80005cdc    04019907        ldreq       r0,[r9,r4,lsl #0x2]                     
ram:80005ce0    00008805        streq       r0,[r8,#0x0]                            
ram:80005ce4    014084e2        add         r4,r4,#0x1                              
ram:80005ce8    260154e1        cmp         r4,r6, lsr #0x2                         
ram:80005cec    e7ffff3a        bcc         LAB_80005c90                            
                            LAB_80005cf0:                 ;XREF[1,0]:   80005c8c
ram:80005cf0    f001bde8        ldmia       sp!,{r4 r5 r6 r7 r8}=>local_28          
ram:80005cf4    001ebde8        ldmia       sp!,{r9 r10 r11 r12}=>local_14          
ram:80005cf8    0000a0e3        mov         r0,#0x0                                 
ram:80005cfc    04f09de4        ldr         pc,[sp],#0x4                            
                            DAT_80005d00:                 ;XREF[1,0]:   80005c4c
ram:80005d00    00f0c001        undefined4  01C0F000h                               
                            DAT_80005d04:                 ;XREF[1,0]:   80005c58
ram:80005d04    0000c101        undefined4  01C10000h                               
                            DAT_80005d08:                 ;XREF[1,0]:   80005c60
ram:80005d08    80841e00        undefined4  001E8480h                               
                            s_Data[%d]_timeout_BIT=0x%0...;XREF[1,0]:   80005cac
ram:80005d0c    446174615...    ds          "Data[%d] timeout BIT=0x%08x...\r\n"    
                            ;************************************************************************************************
                            ;*                                           FUNCTION                                           *
                            ;************************************************************************************************
                            ;undefined FUN_80005d30()
          ;local_24      undefined4         -24                      ;XREF[1,0]:   80005d7c
                                                          ;XREF[1,0]:   800068dc
ram:80005d30    004f2de9        stmdb       sp!,{r8 r9 r10 r11 lr}                  
ram:80005d34    f0002de9        stmdb       sp!,{r4 r5 r6 r7}                       
ram:80005d38    0c3091e5        ldr         r3,[r1,#0xc]                            
ram:80005d3c    08c091e5        ldr         r12,[r1,#0x8]                           
ram:80005d40    000050e3        cmp         r0,#0x0                                 
ram:80005d44    9c0303e0        mul         r3,r12,r3                               
ram:80005d48    90c19f05        ldreq       r12,[DAT_80005ee0]                      ;= 01C0F000h
ram:80005d4c    0050a0e3        mov         r5,#0x0                                 
ram:80005d50    0200000a        beq         LAB_80005d60                            
ram:80005d54    010050e3        cmp         r0,#0x1                                 
ram:80005d58    84c19f05        ldreq       r12,[DAT_80005ee4]                      ;= 01C10000h
ram:80005d5c    00c0a013        movne       r12,#0x0                                
                            LAB_80005d60:                 ;XREF[1,0]:   80005d50
ram:80005d60    038aa0e1        mov         r8,r3, lsl #0x14                        
ram:80005d64    288ab0e1        movs        r8,r8, lsr #0x14                        
ram:80005d68    2346a0e1        mov         r4,r3, lsr #0xc                         
ram:80005d6c    01408412        addne       r4,r4,#0x1                              
ram:80005d70    018aa003        moveq       r8,#0x1000                              
ram:80005d74    007091e5        ldr         r7,[r1,#0x0]                            
ram:80005d78    010c54e3        cmp         r4,#0x100                               
ram:80005d7c    f001bd88        ldmiahi     sp!,{r4 r5 r6 r7 r8}=>local_24          
ram:80005d80    0000e083        mvnhi       r0,#0x0                                 
ram:80005d84    008ebd88        ldmiahi     sp!,{r9 r10 r11 pc}                     
ram:80005d88    073083e0        add         r3,r3,r7                                
ram:80005d8c    1f00c7e3        bic         r0,r7,#0x1f                             
ram:80005d90    1f30c3e3        bic         r3,r3,#0x1f                             
ram:80005d94    030050e1        cmp         r0,r3                                   
ram:80005d98    0400008a        bhi         LAB_80005db0                            
                            LAB_80005d9c:                 ;XREF[1,0]:   80005dac
ram:80005d9c    3e0f07ee        mcr         p15,0x0,r0,cr7,cr14,0x1                 
ram:80005da0    350f07ee        mcr         p15,0x0,r0,cr7,cr5,0x1                  
ram:80005da4    200080e2        add         r0,r0,#0x20                             
ram:80005da8    030050e1        cmp         r0,r3                                   
ram:80005dac    faffff9a        bls         LAB_80005d9c                            
                            LAB_80005db0:                 ;XREF[1,0]:   80005d98
ram:80005db0    0060a0e3        mov         r6,#0x0                                 
ram:80005db4    000054e3        cmp         r4,#0x0                                 
ram:80005db8    0630a0e1        mov         r3,r6                                   
ram:80005dbc    1e00009a        bls         LAB_80005e3c                            
ram:80005dc0    019044e2        sub         r9,r4,#0x1                              
ram:80005dc4    4aa1a0e3        mov         r10,#0x80000012                         
ram:80005dc8    6ab1a0e3        mov         r11,#0x8000001a                         
                            LAB_80005dcc:                 ;XREF[1,0]:   80005e38
ram:80005dcc    050282e0        add         r0,r2,r5, lsl #0x4                      
ram:80005dd0    046080e5        str         r6,[r0,#0x4]                            
ram:80005dd4    086080e5        str         r6,[r0,#0x8]                            
ram:80005dd8    0c6080e5        str         r6,[r0,#0xc]                            
ram:80005ddc    010054e3        cmp         r4,#0x1                                 
ram:80005de0    00a080e5        str         r10=>DAT_80000012,[r0,#0x0]             ;= 21h    !
ram:80005de4    0300009a        bls         LAB_80005df8                            
ram:80005de8    090053e1        cmp         r3,r9                                   
ram:80005dec    01eaa013        movne       lr,#0x1000                              
ram:80005df0    b4e0c011        strhne      lr,[r0,#0x4]                            
ram:80005df4    0000001a        bne         LAB_80005dfc                            
                            LAB_80005df8:                 ;XREF[1,0]:   80005de4
ram:80005df8    b480c0e1        strh        r8,[r0,#0x4]                            
                            LAB_80005dfc:                 ;XREF[1,0]:   80005df4
ram:80005dfc    03e687e0        add         lr,r7,r3, lsl #0xc                      
ram:80005e00    000053e3        cmp         r3,#0x0                                 
ram:80005e04    08e080e5        str         lr,[r0,#0x8]                            
ram:80005e08    00b08005        streq       r11=>DAT_8000001a,[r0,#0x0]             ;= 21h    !
ram:80005e0c    090053e1        cmp         r3,r9                                   
ram:80005e10    10e08012        addne       lr,r0,#0x10                             
ram:80005e14    0ce08015        strne       lr,[r0,#0xc]                            
ram:80005e18    0300001a        bne         LAB_80005e2c                            
ram:80005e1c    00e090e5        ldr         lr,[r0,#0x0]                            
ram:80005e20    02e0cee3        bic         lr,lr,#0x2                              
ram:80005e24    24e08ee3        orr         lr,lr,#0x24                             
ram:80005e28    00e080e5        str         lr,[r0,#0x0]                            
                            LAB_80005e2c:                 ;XREF[1,0]:   80005e18
ram:80005e2c    013083e2        add         r3,r3,#0x1                              
ram:80005e30    040053e1        cmp         r3,r4                                   
ram:80005e34    015085e2        add         r5,r5,#0x1                              
ram:80005e38    e3ffff3a        bcc         LAB_80005dcc                            
                            LAB_80005e3c:                 ;XREF[1,0]:   80005dbc
ram:80005e3c    0502a0e1        mov         r0,r5, lsl #0x4                         
ram:80005e40    100080e2        add         r0,r0,#0x10                             
ram:80005e44    003082e0        add         r3,r2,r0                                
ram:80005e48    1f00c2e3        bic         r0,r2,#0x1f                             
ram:80005e4c    1f30c3e3        bic         r3,r3,#0x1f                             
ram:80005e50    000053e1        cmp         r3,r0                                   
ram:80005e54    0400003a        bcc         LAB_80005e6c                            
                            LAB_80005e58:                 ;XREF[1,0]:   80005e68
ram:80005e58    3e0f07ee        mcr         p15,0x0,r0,cr7,cr14,0x1                 
ram:80005e5c    350f07ee        mcr         p15,0x0,r0,cr7,cr5,0x1                  
ram:80005e60    200080e2        add         r0,r0,#0x20                             
ram:80005e64    000053e1        cmp         r3,r0                                   
ram:80005e68    faffff2a        bcs         LAB_80005e58                            
                            LAB_80005e6c:                 ;XREF[1,0]:   80005e54
ram:80005e6c    00009ce5        ldr         r0,[r12,#0x0]                           
ram:80005e70    0201c0e3        bic         r0,r0,#0x80000000                       
ram:80005e74    00008ce5        str         r0,[r12,#0x0]                           
ram:80005e78    00009ce5        ldr         r0,[r12,#0x0]                           
ram:80005e7c    240080e3        orr         r0,r0,#0x24                             
ram:80005e80    00008ce5        str         r0,[r12,#0x0]                           
ram:80005e84    0130a0e3        mov         r3,#0x1                                 
ram:80005e88    80008ce2        add         r0,r12,#0x80                            
ram:80005e8c    80308ce5        str         r3,[r12,#0x80]                          
                            LAB_80005e90:                 ;XREF[1,0]:   80005e98
ram:80005e90    003090e5        ldr         r3,[r0,#0x0]                            
ram:80005e94    010013e3        tst         r3,#0x1                                 
ram:80005e98    fcffff1a        bne         LAB_80005e90                            
ram:80005e9c    8230a0e3        mov         r3,#0x82                                
ram:80005ea0    003080e5        str         r3,[r0,#0x0]                            
ram:80005ea4    8c008ce2        add         r0,r12,#0x8c                            
ram:80005ea8    0030a0e1        mov         r3,r0                                   
ram:80005eac    8c009ce5        ldr         r0,[r12,#0x8c]                          
ram:80005eb0    0410d1e5        ldrb        r1,[r1,#0x4]                            
ram:80005eb4    0300c0e3        bic         r0,r0,#0x3                              
ram:80005eb8    020011e3        tst         r1,#0x2                                 
ram:80005ebc    01008013        orrne       r0,r0,#0x1                              
ram:80005ec0    02008003        orreq       r0,r0,#0x2                              
ram:80005ec4    000083e5        str         r0,[r3,#0x0]                            
ram:80005ec8    84208ce5        str         r2,[r12,#0x84]                          
ram:80005ecc    14009fe5        ldr         r0,[DAT_80005ee8]                       ;= 20070008h
ram:80005ed0    40008ce5        str         r0,[r12,#0x40]                          
ram:80005ed4    f001bde8        ldmia       sp!,{r4 r5 r6 r7 r8}                    
ram:80005ed8    0000a0e3        mov         r0,#0x0                                 
ram:80005edc    008ebde8        ldmia       sp!,{r9 r10 r11 pc}                     
                            DAT_80005ee0:                 ;XREF[1,0]:   80005d48
ram:80005ee0    00f0c001        undefined4  01C0F000h                               
                            DAT_80005ee4:                 ;XREF[1,0]:   80005d58
ram:80005ee4    0000c101        undefined4  01C10000h                               
                            DAT_80005ee8:                 ;XREF[1,0]:   80005ecc
ram:80005ee8    08000720        undefined4  20070008h                               
                            ;************************************************************************************************
                            ;*                                           FUNCTION                                           *
                            ;************************************************************************************************
                            ;undefined FUN_80005eec()
                                                          ;XREF[3,0]:   80001d24,80005904,80005950
ram:80005eec    70402de9        stmdb       sp!,{r4 r5 r6 lr}                       
ram:80005ef0    000050e3        cmp         r0,#0x0                                 
ram:80005ef4    48409f05        ldreq       r4,[DAT_80005f44]                       ;= 01C0F000h
ram:80005ef8    7d5ea0e3        mov         r5,#0x7d0                               
ram:80005efc    0200000a        beq         LAB_80005f0c                            
ram:80005f00    010050e3        cmp         r0,#0x1                                 
ram:80005f04    3c409f05        ldreq       r4,[DAT_80005f48]                       ;= 01C10000h
ram:80005f08    0040a013        movne       r4,#0x0                                 
                            LAB_80005f0c:                 ;XREF[1,0]:   80005efc
ram:80005f0c    38009fe5        ldr         r0,[DAT_80005f4c]                       ;= 80202000h
ram:80005f10    1800a4e5        str         r0,[r4,#0x18]!                          
                            LAB_80005f14:                 ;XREF[1,0]:   80005f40
ram:80005f14    000094e5        ldr         r0,[r4,#0x0]                            
ram:80005f18    020110e2        ands        r0,r0,#0x80000000                       
ram:80005f1c    7080bd08        ldmiaeq     sp!,{r4 r5 r6 pc}                       
ram:80005f20    015055e2        subs        r5,r5,#0x1                              
ram:80005f24    0300002a        bcs         LAB_80005f38                            
ram:80005f28    20008fe2        adr         r0=>s_timeout..._80005f50,0x80005f50    ;= "timeout...\r\n"
ram:80005f2c    4a0400eb        bl          FUN_8000705c                            ;undefined FUN_8000705c()
ram:80005f30    0000e0e3        mvn         r0,#0x0                                 
ram:80005f34    7080bde8        ldmia       sp!,{r4 r5 r6 pc}                       
                            LAB_80005f38:                 ;XREF[1,0]:   80005f24
ram:80005f38    0500a0e3        mov         r0,#0x5                                 
ram:80005f3c    75ecffeb        bl          FUN_80001118                            ;undefined FUN_80001118()
ram:80005f40    f3ffffea        b           LAB_80005f14                            
                            DAT_80005f44:                 ;XREF[1,0]:   80005ef4
ram:80005f44    00f0c001        undefined4  01C0F000h                               
                            DAT_80005f48:                 ;XREF[1,0]:   80005f04
ram:80005f48    0000c101        undefined4  01C10000h                               
                            DAT_80005f4c:                 ;XREF[1,0]:   80005f0c
ram:80005f4c    00202080        undefined4  80202000h                               
                            s_timeout..._80005f50:        ;XREF[3,0]:   80005f28,80006ad8,80006be0
ram:80005f50    74696d656...    ds          "timeout...\r\n"                        
                            ;************************************************************************************************
                            ;*                                           FUNCTION                                           *
                            ;************************************************************************************************
                            ;undefined FUN_80005f60()
                                                          ;XREF[18,0]:  80003cfc,80003d48,80004394,8000495c
                                                          ;             80004b18,80004ba0,80004d3c,80004e60
                                                          ;             80005158,8000548c,80005614,80005640
                                                          ;             8000567c,800056ac,8000606c,800060e8
                                                          ;             80006134,80006188
ram:80005f60    70402de9        stmdb       sp!,{r4 r5 r6 lr}                       
ram:80005f64    2c2090e5        ldr         r2,[r0,#0x2c]                           
ram:80005f68    0160a0e1        mov         r6,r1                                   
ram:80005f6c    060052e1        cmp         r2,r6                                   
ram:80005f70    0040a0e1        mov         r4,r0                                   
ram:80005f74    0050a0e3        mov         r5,#0x0                                 
ram:80005f78    2200000a        beq         LAB_80006008                            
ram:80005f7c    0300d4e5        ldrb        r0,[r4,#0x3]                            
ram:80005f80    000050e3        cmp         r0,#0x0                                 
ram:80005f84    1600000a        beq         LAB_80005fe4                            
ram:80005f88    0100d4e5        ldrb        r0,[r4,#0x1]                            
ram:80005f8c    0130a0e3        mov         r3,#0x1                                 
ram:80005f90    301084e2        add         r1,r4,#0x30                             
ram:80005f94    2cf8ffeb        bl          FUN_8000404c                            ;undefined FUN_8000404c()
ram:80005f98    000050e3        cmp         r0,#0x0                                 
ram:80005f9c    0150a013        movne       r5,#0x1                                 
ram:80005fa0    1800001a        bne         LAB_80006008                            
ram:80005fa4    2c2094e5        ldr         r2,[r4,#0x2c]                           
ram:80005fa8    20c094e5        ldr         r12,[r4,#0x20]                          
ram:80005fac    181094e5        ldr         r1,[r4,#0x18]                           
ram:80005fb0    0030a0e3        mov         r3,#0x0                                 
ram:80005fb4    0cc042e0        sub         r12,r2,r12                              
ram:80005fb8    01005ce1        cmp         r12,r1                                  
ram:80005fbc    0330c4e5        strb        r3,[r4,#0x3]                            
ram:80005fc0    0700002a        bcs         LAB_80005fe4                            
ram:80005fc4    0200d4e5        ldrb        r0,[r4,#0x2]                            
ram:80005fc8    020050e3        cmp         r0,#0x2                                 
ram:80005fcc    0400001a        bne         LAB_80005fe4                            
ram:80005fd0    012082e0        add         r2,r2,r1                                
ram:80005fd4    0100d4e5        ldrb        r0,[r4,#0x1]                            
ram:80005fd8    0130a0e3        mov         r3,#0x1                                 
ram:80005fdc    301084e2        add         r1,r4,#0x30                             
ram:80005fe0    19f8ffeb        bl          FUN_8000404c                            ;undefined FUN_8000404c()
                            LAB_80005fe4:                 ;XREF[3,0]:   80005f84,80005fc0,80005fcc
ram:80005fe4    0100d4e5        ldrb        r0,[r4,#0x1]                            
ram:80005fe8    0130a0e3        mov         r3,#0x1                                 
ram:80005fec    0620a0e1        mov         r2,r6                                   
ram:80005ff0    301084e2        add         r1,r4,#0x30                             
ram:80005ff4    e3f7ffeb        bl          FUN_80003f88                            ;undefined FUN_80003f88()
ram:80005ff8    000050e3        cmp         r0,#0x0                                 
ram:80005ffc    0060e013        mvnne       r6,#0x0                                 
ram:80006000    0150a013        movne       r5,#0x1                                 
ram:80006004    2c6084e5        str         r6,[r4,#0x2c]                           
                            LAB_80006008:                 ;XREF[2,0]:   80005f78,80005fa0
ram:80006008    0500a0e1        mov         r0,r5                                   
ram:8000600c    7080bde8        ldmia       sp!,{r4 r5 r6 pc}                       
                            ;************************************************************************************************
                            ;*                                           FUNCTION                                           *
                            ;************************************************************************************************
                            ;undefined FUN_80006010()
          ;local_18      undefined4         -18                      ;XREF[2,0]:   80006014,80006030
                                                          ;XREF[4,0]:   800039bc,800039dc,80006204,80006244
ram:80006010    e0412de9        stmdb       sp!,{r5 r6 r7 r8 lr}                    
ram:80006014    04402de5        str         r4,[sp,#local_18+0x14]!                 
ram:80006018    020051e3        cmp         r1,#0x2                                 
ram:8000601c    0150a0e1        mov         r5,r1                                   
ram:80006020    0040a0e1        mov         r4,r0                                   
ram:80006024    14109425        ldrcs       r1,[r4,#0x14]                           
ram:80006028    0260a0e1        mov         r6,r2                                   
ram:8000602c    05005121        cmpcs       r1,r5                                   
ram:80006030    f001bd98        ldmials     sp!,{r4 r5 r6 r7 r8}=>local_18          
ram:80006034    0200a0e3        mov         r0,#0x2                                 
ram:80006038    04f09d94        ldrls       pc,[sp],#0x4                            
ram:8000603c    0010d4e5        ldrb        r1,[r4,#0x0]                            
ram:80006040    0170a0e3        mov         r7,#0x1                                 
ram:80006044    010051e3        cmp         r1,#0x1                                 
ram:80006048    2200000a        beq         LAB_800060d8                            
ram:8000604c    020051e3        cmp         r1,#0x2                                 
ram:80006050    4900000a        beq         LAB_8000617c                            
ram:80006054    030051e3        cmp         r1,#0x3                                 
ram:80006058    f001bd18        ldmiane     sp!,{r4 r5 r6 r7 r8}                    
ram:8000605c    04f09d14        ldrne       pc,[sp],#0x4                            
ram:80006060    200094e5        ldr         r0,[r4,#0x20]                           
ram:80006064    a51380e0        add         r1,r0,r5, lsr #0x7                      
ram:80006068    0400a0e1        mov         r0,r4                                   
ram:8000606c    bbffffeb        bl          FUN_80005f60                            ;undefined FUN_80005f60()
ram:80006070    000050e3        cmp         r0,#0x0                                 
ram:80006074    f001bd18        ldmiane     sp!,{r4 r5 r6 r7 r8}                    
ram:80006078    04f09d14        ldrne       pc,[sp],#0x4                            
ram:8000607c    7f1fa0e3        mov         r1,#0x1fc                               
ram:80006080    051101e0        and         r1,r1,r5, lsl #0x2                      
ram:80006084    041081e0        add         r1,r1,r4                                
ram:80006088    3330d1e5        ldrb        r3,[r1,#0x33]                           
ram:8000608c    3280d1e5        ldrb        r8,[r1,#0x32]                           
ram:80006090    3150d1e5        ldrb        r5,[r1,#0x31]                           
ram:80006094    30c0d1e5        ldrb        r12,[r1,#0x30]                          
ram:80006098    032488e1        orr         r2,r8,r3, lsl #0x8                      
ram:8000609c    022485e1        orr         r2,r5,r2, lsl #0x8                      
ram:800060a0    02248ce1        orr         r2,r12,r2, lsl #0x8                     
ram:800060a4    0f2202e2        and         r2,r2,#0xf0000000                       
ram:800060a8    0f32c6e3        bic         r3,r6,#0xf0000000                       
ram:800060ac    032082e1        orr         r2,r2,r3                                
ram:800060b0    2234a0e1        mov         r3,r2, lsr #0x8                         
ram:800060b4    3020c1e5        strb        r2,[r1,#0x30]                           
ram:800060b8    2324a0e1        mov         r2,r3, lsr #0x8                         
ram:800060bc    3130c1e5        strb        r3,[r1,#0x31]                           
ram:800060c0    2234a0e1        mov         r3,r2, lsr #0x8                         
ram:800060c4    3220c1e5        strb        r2,[r1,#0x32]                           
ram:800060c8    3330c1e5        strb        r3,[r1,#0x33]                           
ram:800060cc    0370c4e5        strb        r7,[r4,#0x3]                            
ram:800060d0    f001bde8        ldmia       sp!,{r4 r5 r6 r7 r8}                    
ram:800060d4    04f09de4        ldr         pc,[sp],#0x4                            
                            LAB_800060d8:                 ;XREF[1,0]:   80006048
ram:800060d8    200094e5        ldr         r0,[r4,#0x20]                           
ram:800060dc    a58085e0        add         r8,r5,r5, lsr #0x1                      
ram:800060e0    a81480e0        add         r1,r0,r8, lsr #0x9                      
ram:800060e4    0400a0e1        mov         r0,r4                                   
ram:800060e8    9cffffeb        bl          FUN_80005f60                            ;undefined FUN_80005f60()
ram:800060ec    000050e3        cmp         r0,#0x0                                 
ram:800060f0    f001bd18        ldmiane     sp!,{r4 r5 r6 r7 r8}                    
ram:800060f4    04f09d14        ldrne       pc,[sp],#0x4                            
ram:800060f8    880ba0e1        mov         r0,r8, lsl #0x17                        
ram:800060fc    a00ba0e1        mov         r0,r0, lsr #0x17                        
ram:80006100    040080e0        add         r0,r0,r4                                
ram:80006104    010015e3        tst         r5,#0x1                                 
ram:80006108    300080e2        add         r0,r0,#0x30                             
ram:8000610c    0010d015        ldrbne      r1,[r0,#0x0]                            
ram:80006110    018088e2        add         r8,r8,#0x1                              
ram:80006114    0f100112        andne       r1,r1,#0xf                              
ram:80006118    06128111        orrne       r1,r1,r6, lsl #0x4                      
ram:8000611c    0610a001        moveq       r1,r6                                   
ram:80006120    0010c0e5        strb        r1,[r0,#0x0]                            
ram:80006124    0370c4e5        strb        r7,[r4,#0x3]                            
ram:80006128    200094e5        ldr         r0,[r4,#0x20]                           
ram:8000612c    a81480e0        add         r1,r0,r8, lsr #0x9                      
ram:80006130    0400a0e1        mov         r0,r4                                   
ram:80006134    89ffffeb        bl          FUN_80005f60                            ;undefined FUN_80005f60()
ram:80006138    000050e3        cmp         r0,#0x0                                 
ram:8000613c    f001bd18        ldmiane     sp!,{r4 r5 r6 r7 r8}                    
ram:80006140    04f09d14        ldrne       pc,[sp],#0x4                            
ram:80006144    881ba0e1        mov         r1,r8, lsl #0x17                        
ram:80006148    010015e3        tst         r5,#0x1                                 
ram:8000614c    a11ba0e1        mov         r1,r1, lsr #0x17                        
ram:80006150    041081e0        add         r1,r1,r4                                
ram:80006154    062aa011        movne       r2,r6, lsl #0x14                        
ram:80006158    301081e2        add         r1,r1,#0x30                             
ram:8000615c    222ca011        movne       r2,r2, lsr #0x18                        
ram:80006160    0300001a        bne         LAB_80006174                            
ram:80006164    0020d1e5        ldrb        r2,[r1,#0x0]                            
ram:80006168    063aa0e1        mov         r3,r6, lsl #0x14                        
ram:8000616c    f02002e2        and         r2,r2,#0xf0                             
ram:80006170    232e82e1        orr         r2,r2,r3, lsr #0x1c                     
                            LAB_80006174:                 ;XREF[1,0]:   80006160
ram:80006174    0020c1e5        strb        r2,[r1,#0x0]                            
ram:80006178    0b0000ea        b           LAB_800061ac                            
                            LAB_8000617c:                 ;XREF[1,0]:   80006050
ram:8000617c    200094e5        ldr         r0,[r4,#0x20]                           
ram:80006180    251480e0        add         r1,r0,r5, lsr #0x8                      
ram:80006184    0400a0e1        mov         r0,r4                                   
ram:80006188    74ffffeb        bl          FUN_80005f60                            ;undefined FUN_80005f60()
ram:8000618c    000050e3        cmp         r0,#0x0                                 
ram:80006190    f001bd18        ldmiane     sp!,{r4 r5 r6 r7 r8}                    
ram:80006194    04f09d14        ldrne       pc,[sp],#0x4                            
ram:80006198    ff1005e2        and         r1,r5,#0xff                             
ram:8000619c    811084e0        add         r1,r4,r1, lsl #0x1                      
ram:800061a0    2624a0e1        mov         r2,r6, lsr #0x8                         
ram:800061a4    3060c1e5        strb        r6,[r1,#0x30]                           
ram:800061a8    3120c1e5        strb        r2,[r1,#0x31]                           
                            LAB_800061ac:                 ;XREF[1,0]:   80006178
ram:800061ac    0370c4e5        strb        r7,[r4,#0x3]                            
ram:800061b0    f001bde8        ldmia       sp!,{r4 r5 r6 r7 r8}                    
ram:800061b4    04f09de4        ldr         pc,[sp],#0x4                            
                            ;************************************************************************************************
                            ;*                                           FUNCTION                                           *
                            ;************************************************************************************************
                            ;undefined FUN_800061b8()
                                                          ;XREF[7,0]:   800033c8,800035b0,800035fc,80003648
                                                          ;             80003694,800036fc,8000374c
ram:800061b8    0020a0e1        mov         r2,r0                                   
ram:800061bc    0130a0e1        mov         r3,r1                                   
ram:800061c0    000092e5        ldr         r0,[r2,#0x0]                            
ram:800061c4    1eff2fe1        bx          lr                                      
                            ;************************************************************************************************
                            ;*                                           FUNCTION                                           *
                            ;************************************************************************************************
                            ;undefined FUN_800061c8()
          ;local_18      undefined4         -18                      ;XREF[3,0]:   800061cc,8000620c,80006294
                                                          ;XREF[2,0]:   80004380,80004bd8
ram:800061c8    e0412de9        stmdb       sp!,{r5 r6 r7 r8 lr}                    
ram:800061cc    04402de5        str         r4,[sp,#local_18+0x14]!                 
ram:800061d0    005090e5        ldr         r5,[r0,#0x0]                            
ram:800061d4    020051e3        cmp         r1,#0x2                                 
ram:800061d8    0070a0e1        mov         r7,r0                                   
ram:800061dc    14009525        ldrcs       r0,[r5,#0x14]                           
ram:800061e0    0160a0e1        mov         r6,r1                                   
ram:800061e4    06005021        cmpcs       r0,r6                                   
ram:800061e8    0230a0e1        mov         r3,r2                                   
ram:800061ec    2800009a        bls         LAB_80006294                            
ram:800061f0    000053e3        cmp         r3,#0x0                                 
ram:800061f4    0600000a        beq         LAB_80006214                            
ram:800061f8    0020e0e3        mvn         r2,#0x0                                 
ram:800061fc    0310a0e1        mov         r1,r3                                   
ram:80006200    0500a0e1        mov         r0,r5                                   
ram:80006204    81ffffeb        bl          FUN_80006010                            ;undefined FUN_80006010()
ram:80006208    000050e3        cmp         r0,#0x0                                 
ram:8000620c    f001bd18        ldmiane     sp!,{r4 r5 r6 r7 r8}=>local_18          
ram:80006210    04f09d14        ldrne       pc,[sp],#0x4                            
                            LAB_80006214:                 ;XREF[2,0]:   800061f4,80006284
ram:80006214    0610a0e1        mov         r1,r6                                   
ram:80006218    0700a0e1        mov         r0,r7                                   
ram:8000621c    e4fcffeb        bl          FUN_800055b4                            ;undefined FUN_800055b4()
ram:80006220    0040b0e1        movs        r4,r0                                   
ram:80006224    1700000a        beq         LAB_80006288                            
ram:80006228    010054e3        cmp         r4,#0x1                                 
ram:8000622c    1800000a        beq         LAB_80006294                            
ram:80006230    010074e3        cmn         r4,#0x1                                 
ram:80006234    1900000a        beq         LAB_800062a0                            
ram:80006238    0020a0e3        mov         r2,#0x0                                 
ram:8000623c    0610a0e1        mov         r1,r6                                   
ram:80006240    0500a0e1        mov         r0,r5                                   
ram:80006244    71ffffeb        bl          FUN_80006010                            ;undefined FUN_80006010()
ram:80006248    000050e3        cmp         r0,#0x0                                 
ram:8000624c    f001bd18        ldmiane     sp!,{r4 r5 r6 r7 r8}                    
ram:80006250    04f09d14        ldrne       pc,[sp],#0x4                            
ram:80006254    140095e5        ldr         r0,[r5,#0x14]                           
ram:80006258    101095e5        ldr         r1,[r5,#0x10]                           
ram:8000625c    022040e2        sub         r2,r0,#0x2                              
ram:80006260    020051e1        cmp         r1,r2                                   
ram:80006264    0400002a        bcs         LAB_8000627c                            
ram:80006268    0420d5e5        ldrb        r2,[r5,#0x4]                            
ram:8000626c    011081e2        add         r1,r1,#0x1                              
ram:80006270    101085e5        str         r1,[r5,#0x10]                           
ram:80006274    012082e3        orr         r2,r2,#0x1                              
ram:80006278    0420c5e5        strb        r2,[r5,#0x4]                            
                            LAB_8000627c:                 ;XREF[1,0]:   80006264
ram:8000627c    0460a0e1        mov         r6,r4                                   
ram:80006280    060050e1        cmp         r0,r6                                   
ram:80006284    e2ffff8a        bhi         LAB_80006214                            
                            LAB_80006288:                 ;XREF[1,0]:   80006224
ram:80006288    f001bde8        ldmia       sp!,{r4 r5 r6 r7 r8}                    
ram:8000628c    0000a0e3        mov         r0,#0x0                                 
ram:80006290    04f09de4        ldr         pc,[sp],#0x4                            
                            LAB_80006294:                 ;XREF[2,0]:   800061ec,8000622c
ram:80006294    f001bde8        ldmia       sp!,{r4 r5 r6 r7 r8}=>local_18          
ram:80006298    0200a0e3        mov         r0,#0x2                                 
ram:8000629c    04f09de4        ldr         pc,[sp],#0x4                            
                            LAB_800062a0:                 ;XREF[1,0]:   80006234
ram:800062a0    f001bde8        ldmia       sp!,{r4 r5 r6 r7 r8}                    
ram:800062a4    0100a0e3        mov         r0,#0x1                                 
ram:800062a8    04f09de4        ldr         pc,[sp],#0x4                            
ram:800062ac    70              ??          70h    p                                
ram:800062ad    40              ??          40h    @                                
ram:800062ae    2d              ??          2Dh    -                                
ram:800062af    e9              ??          E9h                                     
ram:800062b0    00              ??          00h                                     
ram:800062b1    40              ??          40h    @                                
ram:800062b2    b0              ??          B0h                                     
ram:800062b3    e1              ??          E1h                                     
ram:800062b4    02              ??          02h                                     
ram:800062b5    00              ??          00h                                     
ram:800062b6    00              ??          00h                                     
ram:800062b7    0a              ??          0Ah                                     
ram:800062b8    01              ??          01h                                     
ram:800062b9    00              ??          00h                                     
ram:800062ba    54              ??          54h    T                                
ram:800062bb    e3              ??          E3h                                     
ram:800062bc    16              ??          16h                                     
ram:800062bd    00              ??          00h                                     
ram:800062be    00              ??          00h                                     
ram:800062bf    0a              ??          0Ah                                     
ram:800062c0    2a              ??          2Ah    *                                
ram:800062c1    00              ??          00h                                     
ram:800062c2    00              ??          00h                                     
ram:800062c3    ea              ??          EAh                                     
ram:800062c4    34              ??          34h    4                                
ram:800062c5    51              ??          51h    Q                                
ram:800062c6    9f              ??          9Fh                                     
ram:800062c7    e5              ??          E5h                                     
ram:800062c8    00              ??          00h                                     
ram:800062c9    30              ??          30h    0                                
ram:800062ca    a0              ??          A0h                                     
ram:800062cb    e3              ??          E3h                                     
ram:800062cc    02              ??          02h                                     
ram:800062cd    20              ??          20h                                     
ram:800062ce    a0              ??          A0h                                     
ram:800062cf    e3              ??          E3h                                     
ram:800062d0    03              ??          03h                                     
ram:800062d1    10              ??          10h                                     
ram:800062d2    a0              ??          A0h                                     
ram:800062d3    e1              ??          E1h                                     
ram:800062d4    05              ??          05h                                     
ram:800062d5    00              ??          00h                                     
ram:800062d6    a0              ??          A0h                                     
ram:800062d7    e1              ??          E1h                                     
ram:800062d8    cb              ??          CBh                                     
ram:800062d9    ec              ??          ECh                                     
ram:800062da    ff              ??          FFh                                     
ram:800062db    eb              ??          EBh                                     
ram:800062dc    00              ??          00h                                     
ram:800062dd    30              ??          30h    0                                
ram:800062de    a0              ??          A0h                                     
ram:800062df    e3              ??          E3h                                     
ram:800062e0    02              ??          02h                                     
ram:800062e1    20              ??          20h                                     
ram:800062e2    a0              ??          A0h                                     
ram:800062e3    e3              ??          E3h                                     
ram:800062e4    01              ??          01h                                     
ram:800062e5    10              ??          10h                                     
ram:800062e6    a0              ??          A0h                                     
ram:800062e7    e3              ??          E3h                                     
ram:800062e8    05              ??          05h                                     
ram:800062e9    00              ??          00h                                     
ram:800062ea    a0              ??          A0h                                     
ram:800062eb    e1              ??          E1h                                     
ram:800062ec    c6              ??          C6h                                     
ram:800062ed    ec              ??          ECh                                     
ram:800062ee    ff              ??          FFh                                     
ram:800062ef    eb              ??          EBh                                     
ram:800062f0    02              ??          02h                                     
ram:800062f1    20              ??          20h                                     
ram:800062f2    a0              ??          A0h                                     
ram:800062f3    e3              ??          E3h                                     
ram:800062f4    00              ??          00h                                     
ram:800062f5    30              ??          30h    0                                
ram:800062f6    a0              ??          A0h                                     
ram:800062f7    e3              ??          E3h                                     
ram:800062f8    02              ??          02h                                     
ram:800062f9    10              ??          10h                                     
ram:800062fa    a0              ??          A0h                                     
ram:800062fb    e1              ??          E1h                                     
ram:800062fc    05              ??          05h                                     
ram:800062fd    00              ??          00h                                     
ram:800062fe    a0              ??          A0h                                     
ram:800062ff    e1              ??          E1h                                     
ram:80006300    c1              ??          C1h                                     
ram:80006301    ec              ??          ECh                                     
ram:80006302    ff              ??          FFh                                     
ram:80006303    eb              ??          EBh                                     
ram:80006304    00              ??          00h                                     
ram:80006305    30              ??          30h    0                                
ram:80006306    a0              ??          A0h                                     
ram:80006307    e3              ??          E3h                                     
ram:80006308    02              ??          02h                                     
ram:80006309    20              ??          20h                                     
ram:8000630a    a0              ??          A0h                                     
ram:8000630b    e3              ??          E3h                                     
ram:8000630c    03              ??          03h                                     
ram:8000630d    10              ??          10h                                     
ram:8000630e    a0              ??          A0h                                     
ram:8000630f    e3              ??          E3h                                     
ram:80006310    05              ??          05h                                     
ram:80006311    00              ??          00h                                     
ram:80006312    a0              ??          A0h                                     
ram:80006313    e1              ??          E1h                                     
ram:80006314    bc              ??          BCh                                     
ram:80006315    ec              ??          ECh                                     
ram:80006316    ff              ??          FFh                                     
ram:80006317    eb              ??          EBh                                     
ram:80006318    14              ??          14h                                     
ram:80006319    00              ??          00h                                     
ram:8000631a    00              ??          00h                                     
ram:8000631b    ea              ??          EAh                                     
ram:8000631c    e0              ??          E0h                                     
ram:8000631d    50              ??          50h    P                                
ram:8000631e    9f              ??          9Fh                                     
ram:8000631f    e5              ??          E5h                                     
ram:80006320    00              ??          00h                                     
ram:80006321    30              ??          30h    0                                
ram:80006322    a0              ??          A0h                                     
ram:80006323    e3              ??          E3h                                     
ram:80006324    04              ??          04h                                     
ram:80006325    20              ??          20h                                     
ram:80006326    a0              ??          A0h                                     
ram:80006327    e3              ??          E3h                                     
ram:80006328    07              ??          07h                                     
ram:80006329    10              ??          10h                                     
ram:8000632a    a0              ??          A0h                                     
ram:8000632b    e3              ??          E3h                                     
ram:8000632c    05              ??          05h                                     
ram:8000632d    00              ??          00h                                     
ram:8000632e    a0              ??          A0h                                     
ram:8000632f    e1              ??          E1h                                     
ram:80006330    b5              ??          B5h                                     
ram:80006331    ec              ??          ECh                                     
ram:80006332    ff              ??          FFh                                     
ram:80006333    eb              ??          EBh                                     
ram:80006334    00              ??          00h                                     
ram:80006335    30              ??          30h    0                                
ram:80006336    a0              ??          A0h                                     
ram:80006337    e3              ??          E3h                                     
ram:80006338    04              ??          04h                                     
ram:80006339    20              ??          20h                                     
ram:8000633a    a0              ??          A0h                                     
ram:8000633b    e3              ??          E3h                                     
ram:8000633c    08              ??          08h                                     
ram:8000633d    10              ??          10h                                     
ram:8000633e    a0              ??          A0h                                     
ram:8000633f    e3              ??          E3h                                     
ram:80006340    05              ??          05h                                     
ram:80006341    00              ??          00h                                     
ram:80006342    a0              ??          A0h                                     
ram:80006343    e1              ??          E1h                                     
ram:80006344    b0              ??          B0h                                     
ram:80006345    ec              ??          ECh                                     
ram:80006346    ff              ??          FFh                                     
ram:80006347    eb              ??          EBh                                     
ram:80006348    00              ??          00h                                     
ram:80006349    30              ??          30h    0                                
ram:8000634a    a0              ??          A0h                                     
ram:8000634b    e3              ??          E3h                                     
ram:8000634c    04              ??          04h                                     
ram:8000634d    20              ??          20h                                     
ram:8000634e    a0              ??          A0h                                     
ram:8000634f    e3              ??          E3h                                     
ram:80006350    09              ??          09h                                     
ram:80006351    10              ??          10h                                     
ram:80006352    a0              ??          A0h                                     
ram:80006353    e3              ??          E3h                                     
ram:80006354    05              ??          05h                                     
ram:80006355    00              ??          00h                                     
ram:80006356    a0              ??          A0h                                     
ram:80006357    e1              ??          E1h                                     
ram:80006358    ab              ??          ABh                                     
ram:80006359    ec              ??          ECh                                     
ram:8000635a    ff              ??          FFh                                     
ram:8000635b    eb              ??          EBh                                     
ram:8000635c    00              ??          00h                                     
ram:8000635d    30              ??          30h    0                                
ram:8000635e    a0              ??          A0h                                     
ram:8000635f    e3              ??          E3h                                     
ram:80006360    04              ??          04h                                     
ram:80006361    20              ??          20h                                     
ram:80006362    a0              ??          A0h                                     
ram:80006363    e3              ??          E3h                                     
ram:80006364    0a              ??          0Ah                                     
ram:80006365    10              ??          10h                                     
ram:80006366    a0              ??          A0h                                     
ram:80006367    e3              ??          E3h                                     
ram:80006368    05              ??          05h                                     
ram:80006369    00              ??          00h                                     
ram:8000636a    a0              ??          A0h                                     
ram:8000636b    e1              ??          E1h                                     
ram:8000636c    a6              ??          A6h                                     
ram:8000636d    ec              ??          ECh                                     
ram:8000636e    ff              ??          FFh                                     
ram:8000636f    eb              ??          EBh                                     
ram:80006370    90              ??          90h                                     
ram:80006371    50              ??          50h    P                                
ram:80006372    9f              ??          9Fh                                     
ram:80006373    e5              ??          E5h                                     
ram:80006374    00              ??          00h                                     
ram:80006375    60              ??          60h    `                                
ram:80006376    95              ??          95h                                     
ram:80006377    e5              ??          E5h                                     
ram:80006378    01              ??          01h                                     
ram:80006379    00              ??          00h                                     
ram:8000637a    a0              ??          A0h                                     
ram:8000637b    e3              ??          E3h                                     
ram:8000637c    00              ??          00h                                     
ram:8000637d    10              ??          10h                                     
ram:8000637e    a0              ??          A0h                                     
ram:8000637f    e3              ??          E3h                                     
ram:80006380    14              ??          14h                                     
ram:80006381    20              ??          20h                                     
ram:80006382    84              ??          84h                                     
ram:80006383    e2              ??          E2h                                     
ram:80006384    bc              ??          BCh                                     
ram:80006385    e7              ??          E7h                                     
ram:80006386    ff              ??          FFh                                     
ram:80006387    eb              ??          EBh                                     
ram:80006388    00              ??          00h                                     
ram:80006389    10              ??          10h                                     
ram:8000638a    86              ??          86h                                     
ram:8000638b    e1              ??          E1h                                     
ram:8000638c    00              ??          00h                                     
ram:8000638d    10              ??          10h                                     
ram:8000638e    85              ??          85h                                     
ram:8000638f    e5              ??          E5h                                     
ram:80006390    26              ??          26h    &                                
ram:80006391    1e              ??          1Eh                                     
ram:80006392    45              ??          45h    E                                
ram:80006393    e2              ??          E2h                                     
ram:80006394    00              ??          00h                                     
ram:80006395    20              ??          20h                                     
ram:80006396    91              ??          91h                                     
ram:80006397    e5              ??          E5h                                     
ram:80006398    02              ??          02h                                     
ram:80006399    00              ??          00h                                     
ram:8000639a    80              ??          80h                                     
ram:8000639b    e1              ??          E1h                                     
ram:8000639c    00              ??          00h                                     
ram:8000639d    00              ??          00h                                     
ram:8000639e    81              ??          81h                                     
ram:8000639f    e5              ??          E5h                                     
ram:800063a0    64              ??          64h    d                                
ram:800063a1    00              ??          00h                                     
ram:800063a2    9f              ??          9Fh                                     
ram:800063a3    e5              ??          E5h                                     
ram:800063a4    64              ??          64h    d                                
ram:800063a5    20              ??          20h                                     
ram:800063a6    9f              ??          9Fh                                     
ram:800063a7    e5              ??          E5h                                     
ram:800063a8    04              ??          04h                                     
ram:800063a9    06              ??          06h                                     
ram:800063aa    80              ??          80h                                     
ram:800063ab    e0              ??          E0h                                     
ram:800063ac    24              ??          24h    $                                
ram:800063ad    10              ??          10h                                     
ram:800063ae    90              ??          90h                                     
ram:800063af    e2              ??          E2h                                     
ram:800063b0    00              ??          00h                                     
ram:800063b1    20              ??          20h                                     
ram:800063b2    81              ??          81h                                     
ram:800063b3    e5              ??          E5h                                     
ram:800063b4    04              ??          04h                                     
ram:800063b5    10              ??          10h                                     
ram:800063b6    90              ??          90h                                     
ram:800063b7    e2              ??          E2h                                     
ram:800063b8    00              ??          00h                                     
ram:800063b9    20              ??          20h                                     
ram:800063ba    91              ??          91h                                     
ram:800063bb    e5              ??          E5h                                     
ram:800063bc    02              ??          02h                                     
ram:800063bd    21              ??          21h    !                                
ram:800063be    82              ??          82h                                     
ram:800063bf    e3              ??          E3h                                     
ram:800063c0    83              ??          83h                                     
ram:800063c1    20              ??          20h                                     
ram:800063c2    82              ??          82h                                     
ram:800063c3    e3              ??          E3h                                     
ram:800063c4    00              ??          00h                                     
ram:800063c5    20              ??          20h                                     
ram:800063c6    81              ??          81h                                     
ram:800063c7    e5              ??          E5h                                     
ram:800063c8    00              ??          00h                                     
ram:800063c9    20              ??          20h                                     
ram:800063ca    91              ??          91h                                     
ram:800063cb    e5              ??          E5h                                     
ram:800063cc    02              ??          02h                                     
ram:800063cd    01              ??          01h                                     
ram:800063ce    12              ??          12h                                     
ram:800063cf    e3              ??          E3h                                     
ram:800063d0    fc              ??          FCh                                     
ram:800063d1    ff              ??          FFh                                     
ram:800063d2    ff              ??          FFh                                     
ram:800063d3    1a              ??          1Ah                                     
ram:800063d4    08              ??          08h                                     
ram:800063d5    10              ??          10h                                     
ram:800063d6    90              ??          90h                                     
ram:800063d7    e2              ??          E2h                                     
ram:800063d8    00              ??          00h                                     
ram:800063d9    20              ??          20h                                     
ram:800063da    91              ??          91h                                     
ram:800063db    e5              ??          E5h                                     
ram:800063dc    03              ??          03h                                     
ram:800063dd    20              ??          20h                                     
ram:800063de    c2              ??          C2h                                     
ram:800063df    e3              ??          E3h                                     
ram:800063e0    44              ??          44h    D                                
ram:800063e1    20              ??          20h                                     
ram:800063e2    82              ??          82h                                     
ram:800063e3    e3              ??          E3h                                     
ram:800063e4    00              ??          00h                                     
ram:800063e5    20              ??          20h                                     
ram:800063e6    81              ??          81h                                     
ram:800063e7    e5              ??          E5h                                     
ram:800063e8    18              ??          18h                                     
ram:800063e9    00              ??          00h                                     
ram:800063ea    90              ??          90h                                     
ram:800063eb    e2              ??          E2h                                     
ram:800063ec    00              ??          00h                                     
ram:800063ed    10              ??          10h                                     
ram:800063ee    90              ??          90h                                     
ram:800063ef    e5              ??          E5h                                     
ram:800063f0    02              ??          02h                                     
ram:800063f1    11              ??          11h                                     
ram:800063f2    81              ??          81h                                     
ram:800063f3    e3              ??          E3h                                     
ram:800063f4    02              ??          02h                                     
ram:800063f5    19              ??          19h                                     
ram:800063f6    81              ??          81h                                     
ram:800063f7    e3              ??          E3h                                     
ram:800063f8    00              ??          00h                                     
ram:800063f9    10              ??          10h                                     
ram:800063fa    80              ??          80h                                     
ram:800063fb    e5              ??          E5h                                     
ram:800063fc    70              ??          70h    p                                
ram:800063fd    80              ??          80h                                     
ram:800063fe    bd              ??          BDh                                     
ram:800063ff    e8              ??          E8h                                     
ram:80006400    48              ??          48h    H                                
ram:80006401    08              ??          08h                                     
ram:80006402    c2              ??          C2h                                     
ram:80006403    01              ??          01h                                     
ram:80006404    90              ??          90h                                     
ram:80006405    08              ??          08h                                     
ram:80006406    c2              ??          C2h                                     
ram:80006407    01              ??          01h                                     
ram:80006408    c0              ??          C0h                                     
ram:80006409    02              ??          02h                                     
ram:8000640a    c2              ??          C2h                                     
ram:8000640b    01              ??          01h                                     
ram:8000640c    00              ??          00h                                     
ram:8000640d    50              ??          50h    P                                
ram:8000640e    c0              ??          C0h                                     
ram:8000640f    01              ??          01h                                     
ram:80006410    01              ??          01h                                     
ram:80006411    10              ??          10h                                     
ram:80006412    00              ??          00h                                     
ram:80006413    00              ??          00h                                     
                            LAB_80006414:                 ;XREF[1,0]:   80002d54
ram:80006414    004f2de9        stmdb       sp!,{r8 r9 r10 r11 lr}                  
ram:80006418    f8002de9        stmdb       sp!,{r3 r4 r5 r6 r7}                    
ram:8000641c    07002de9        stmdb       sp!,{r0 r1 r2}                          
ram:80006420    14d04de2        sub         sp,sp,#0x14                             
ram:80006424    1c009de5        ldr         r0,[sp,#local_2c+0x48]                  
ram:80006428    a4139fe5        ldr         r1,[DAT_800067d4]                       ;= 01C05000h
ram:8000642c    006aa0e1        mov         r6,r0, lsl #0x14                        
ram:80006430    2006a0e1        mov         r0,r0, lsr #0xc                         
ram:80006434    04008de5        str         r0,[sp,#local_44+0x48]                  
ram:80006438    20009de5        ldr         r0,[sp,#local_28+0x48]                  
ram:8000643c    266aa0e1        mov         r6,r6, lsr #0x14                        
ram:80006440    015a66e2        rsb         r5,r6,#0x1000                           
ram:80006444    050050e1        cmp         r0,r5                                   
ram:80006448    0050a091        movls       r5,r0                                   
ram:8000644c    14009de5        ldr         r0,[sp,#local_34+0x48]                  
ram:80006450    000681e0        add         r0,r1,r0, lsl #0xc                      
ram:80006454    080090e2        adds        r0,r0,#0x8                              
ram:80006458    08008de5        str         r0,[sp,#local_40+0x48]                  
                            LAB_8000645c:                 ;XREF[1,0]:   800067d0
ram:8000645c    04109de5        ldr         r1,[sp,#local_44+0x48]                  
ram:80006460    14809de5        ldr         r8,[sp,#local_34+0x48]                  
ram:80006464    0176a0e1        mov         r7,r1, lsl #0xc                         
ram:80006468    0714a0e1        mov         r1,r7, lsl #0x8                         
ram:8000646c    21aca0e1        mov         r10,r1, lsr #0x18                       
ram:80006470    0728a0e1        mov         r2,r7, lsl #0x10                        
ram:80006474    0310a0e3        mov         r1,#0x3                                 
ram:80006478    229ca0e1        mov         r9,r2, lsr #0x18                        
ram:8000647c    0010cde5        strb        r1,[sp,#0x0]=>local_48                  
ram:80006480    01a0cde5        strb        r10,[sp,#local_47+0x48]                 
ram:80006484    08409de5        ldr         r4,[sp,#local_40+0x48]                  
ram:80006488    0020a0e3        mov         r2,#0x0                                 
ram:8000648c    0290cde5        strb        r9,[sp,#local_46+0x48]                  
ram:80006490    0320cde5        strb        r2,[sp,#local_45+0x48]                  
ram:80006494    3c039fe5        ldr         r0,[DAT_800067d8]                       ;= 80452050h
ram:80006498    001094e5        ldr         r1,[r4,#0x0]                            
ram:8000649c    01baa0e3        mov         r11,#0x1000                             
ram:800064a0    b010c1e3        bic         r1,r1,#0xb0                             
ram:800064a4    001084e5        str         r1,[r4,#0x0]                            
ram:800064a8    0c008de5        str         r0,[sp,#local_3c+0x48]                  
ram:800064ac    0d10a0e1        mov         r1,sp                                   
ram:800064b0    0430a0e3        mov         r3,#0x4                                 
ram:800064b4    0800a0e1        mov         r0,r8                                   
ram:800064b8    a50200eb        bl          FUN_80006f54                            ;undefined FUN_80006f54()
ram:800064bc    040050e3        cmp         r0,#0x4                                 
ram:800064c0    0400001a        bne         LAB_800064d8                            
ram:800064c4    0c209de5        ldr         r2,[sp,#local_3c+0x48]                  
ram:800064c8    0b30a0e1        mov         r3,r11                                  
ram:800064cc    0010a0e3        mov         r1,#0x0                                 
ram:800064d0    0800a0e1        mov         r0,r8                                   
ram:800064d4    9e0200eb        bl          FUN_80006f54                            ;undefined FUN_80006f54()
                            LAB_800064d8:                 ;XREF[1,0]:   800064c0
ram:800064d8    000094e5        ldr         r0,[r4,#0x0]                            
ram:800064dc    b000c0e3        bic         r0,r0,#0xb0                             
ram:800064e0    800080e3        orr         r0,r0,#0x80                             
ram:800064e4    000084e5        str         r0,[r4,#0x0]                            
ram:800064e8    000055e3        cmp         r5,#0x0                                 
ram:800064ec    e4129f85        ldrhi       r1,[DAT_800067d8]                       ;= 80452050h
ram:800064f0    0000a0e3        mov         r0,#0x0                                 
ram:800064f4    0700009a        bls         LAB_80006518                            
                            LAB_800064f8:                 ;XREF[1,0]:   80006514
ram:800064f8    002086e0        add         r2,r6,r0                                
ram:800064fc    0220d1e7        ldrb        r2,[r1,r2]                              
ram:80006500    ff0052e3        cmp         r2,#0xff                                
ram:80006504    0300001a        bne         LAB_80006518                            
ram:80006508    010080e2        add         r0,r0,#0x1                              
ram:8000650c    0108c0e3        bic         r0,r0,#0x10000                          
ram:80006510    050050e1        cmp         r0,r5                                   
ram:80006514    f7ffff3a        bcc         LAB_800064f8                            
                            LAB_80006518:                 ;XREF[2,0]:   800064f4,80006504
ram:80006518    000055e1        cmp         r5,r0                                   
ram:8000651c    5e00009a        bls         LAB_8000669c                            
ram:80006520    14b09de5        ldr         r11,[sp,#local_34+0x48]                 
ram:80006524    2010a0e3        mov         r1,#0x20                                
ram:80006528    0010cde5        strb        r1,[sp,#0x0]=>local_48                  
ram:8000652c    01a0cde5        strb        r10,[sp,#local_47+0x48]                 
ram:80006530    0000a0e3        mov         r0,#0x0                                 
ram:80006534    0290cde5        strb        r9,[sp,#local_46+0x48]                  
ram:80006538    0300cde5        strb        r0,[sp,#local_45+0x48]                  
ram:8000653c    0b00a0e1        mov         r0,r11                                  
ram:80006540    bdf1ffeb        bl          FUN_80002c3c                            ;undefined FUN_80002c3c()
ram:80006544    0b00a0e1        mov         r0,r11                                  
ram:80006548    d9f1ffeb        bl          FUN_80002cb4                            ;undefined FUN_80002cb4()
ram:8000654c    08809de5        ldr         r8,[sp,#local_40+0x48]                  
ram:80006550    7c429fe5        ldr         r4,[DAT_800067d4]                       ;= 01C05000h
ram:80006554    000098e5        ldr         r0,[r8,#0x0]                            
ram:80006558    b000c0e3        bic         r0,r0,#0xb0                             
ram:8000655c    000088e5        str         r0,[r8,#0x0]                            
ram:80006560    0430a0e3        mov         r3,#0x4                                 
ram:80006564    0020a0e3        mov         r2,#0x0                                 
ram:80006568    0d10a0e1        mov         r1,sp                                   
ram:8000656c    0b00a0e1        mov         r0,r11                                  
ram:80006570    770200eb        bl          FUN_80006f54                            ;undefined FUN_80006f54()
ram:80006574    000098e5        ldr         r0,[r8,#0x0]                            
ram:80006578    b000c0e3        bic         r0,r0,#0xb0                             
ram:8000657c    800080e3        orr         r0,r0,#0x80                             
ram:80006580    000088e5        str         r0,[r8,#0x0]                            
ram:80006584    0b00a0e1        mov         r0,r11                                  
ram:80006588    c9f1ffeb        bl          FUN_80002cb4                            ;undefined FUN_80002cb4()
ram:8000658c    000055e3        cmp         r5,#0x0                                 
ram:80006590    1000000a        beq         LAB_800065d8                            
ram:80006594    3c029fe5        ldr         r0,[DAT_800067d8]                       ;= 80452050h
ram:80006598    010015e3        tst         r5,#0x1                                 
ram:8000659c    061080e0        add         r1,r0,r6                                
ram:800065a0    18009de5        ldr         r0,[sp,#local_30+0x48]                  
ram:800065a4    011041e2        sub         r1,r1,#0x1                              
ram:800065a8    010040e2        sub         r0,r0,#0x1                              
ram:800065ac    0100000a        beq         LAB_800065b8                            
ram:800065b0    0120f0e5        ldrb        r2,[r0,#0x1]!                           
ram:800065b4    0120e1e5        strb        r2,[r1,#0x1]!                           
                            LAB_800065b8:                 ;XREF[1,0]:   800065ac
ram:800065b8    a520b0e1        movs        r2,r5, lsr #0x1                         
ram:800065bc    0500000a        beq         LAB_800065d8                            
                            LAB_800065c0:                 ;XREF[1,0]:   800065d4
ram:800065c0    0130d0e5        ldrb        r3,[r0,#0x1]                            
ram:800065c4    012052e2        subs        r2,r2,#0x1                              
ram:800065c8    0130c1e5        strb        r3,[r1,#0x1]                            
ram:800065cc    0230f0e5        ldrb        r3,[r0,#0x2]!                           
ram:800065d0    0230e1e5        strb        r3,[r1,#0x2]!                           
ram:800065d4    f9ffff1a        bne         LAB_800065c0                            
                            LAB_800065d8:                 ;XREF[2,0]:   80006590,800065bc
ram:800065d8    14909de5        ldr         r9,[sp,#local_34+0x48]                  
ram:800065dc    f4819fe5        ldr         r8,[DAT_800067d8]                       ;= 80452050h
ram:800065e0    090684e0        add         r0,r4,r9, lsl #0xc                      
ram:800065e4    084090e2        adds        r4,r0,#0x8                              
ram:800065e8    01aaa0e3        mov         r10,#0x1000                             
ram:800065ec    02b0a0e3        mov         r11,#0x2                                
ram:800065f0    016ca0e3        mov         r6,#0x100                               
                            LAB_800065f4:                 ;XREF[1,0]:   80006698
ram:800065f4    4708a0e1        mov         r0,r7, asr #0x10                        
ram:800065f8    00b0cde5        strb        r11,[sp,#0x0]=>local_48                 
ram:800065fc    0100cde5        strb        r0,[sp,#local_47+0x48]                  
ram:80006600    4714a0e1        mov         r1,r7, asr #0x8                         
ram:80006604    0210cde5        strb        r1,[sp,#local_46+0x48]                  
ram:80006608    0900a0e1        mov         r0,r9                                   
ram:8000660c    0370cde5        strb        r7,[sp,#local_45+0x48]                  
ram:80006610    89f1ffeb        bl          FUN_80002c3c                            ;undefined FUN_80002c3c()
ram:80006614    0900a0e1        mov         r0,r9                                   
ram:80006618    a5f1ffeb        bl          FUN_80002cb4                            ;undefined FUN_80002cb4()
ram:8000661c    000094e5        ldr         r0,[r4,#0x0]=>DAT_01c05008              
ram:80006620    b000c0e3        bic         r0,r0,#0xb0                             
ram:80006624    000084e5        str         r0,[r4,#0x0]=>DAT_01c05008              
ram:80006628    0d10a0e1        mov         r1,sp                                   
ram:8000662c    0430a0e3        mov         r3,#0x4                                 
ram:80006630    0020a0e3        mov         r2,#0x0                                 
ram:80006634    0900a0e1        mov         r0,r9                                   
ram:80006638    450200eb        bl          FUN_80006f54                            ;undefined FUN_80006f54()
ram:8000663c    040050e3        cmp         r0,#0x4                                 
ram:80006640    0400001a        bne         LAB_80006658                            
ram:80006644    0630a0e1        mov         r3,r6                                   
ram:80006648    0020a0e3        mov         r2,#0x0                                 
ram:8000664c    0810a0e1        mov         r1,r8                                   
ram:80006650    0900a0e1        mov         r0,r9                                   
ram:80006654    3e0200eb        bl          FUN_80006f54                            ;undefined FUN_80006f54()
                            LAB_80006658:                 ;XREF[1,0]:   80006640
ram:80006658    001094e5        ldr         r1,[r4,#0x0]=>DAT_01c05008              
ram:8000665c    b010c1e3        bic         r1,r1,#0xb0                             
ram:80006660    801081e3        orr         r1,r1,#0x80                             
ram:80006664    001084e5        str         r1,[r4,#0x0]=>DAT_01c05008              
ram:80006668    0900a0e1        mov         r0,r9                                   
ram:8000666c    90f1ffeb        bl          FUN_80002cb4                            ;undefined FUN_80002cb4()
ram:80006670    06005ae1        cmp         r10,r6                                  
ram:80006674    3e00000a        beq         LAB_80006774                            
ram:80006678    06004ae0        sub         r0,r10,r6                               
ram:8000667c    00a8a0e1        mov         r10,r0, lsl #0x10                       
ram:80006680    2aa8a0e1        mov         r10,r10, lsr #0x10                      
ram:80006684    010c5ae3        cmp         r10,#0x100                              
ram:80006688    068088e0        add         r8,r8,r6                                
ram:8000668c    067087e0        add         r7,r7,r6                                
ram:80006690    0a60a091        movls       r6,r10                                  
ram:80006694    016ca083        movhi       r6,#0x100                               
ram:80006698    d5ffffea        b           LAB_800065f4                            
                            LAB_8000669c:                 ;XREF[1,0]:   8000651c
ram:8000669c    1c709de5        ldr         r7,[sp,#local_2c+0x48]                  
ram:800066a0    14a09de5        ldr         r10,[sp,#local_34+0x48]                 
ram:800066a4    ff0007e2        and         r0,r7,#0xff                             
ram:800066a8    016c60e2        rsb         r6,r0,#0x100                            
ram:800066ac    20019fe5        ldr         r0,[DAT_800067d4]                       ;= 01C05000h
ram:800066b0    060055e1        cmp         r5,r6                                   
ram:800066b4    18909de5        ldr         r9,[sp,#local_30+0x48]                  
ram:800066b8    0560a091        movls       r6,r5                                   
ram:800066bc    0a0680e0        add         r0,r0,r10, lsl #0xc                     
ram:800066c0    084090e2        adds        r4,r0,#0x8                              
ram:800066c4    0580a0e1        mov         r8,r5                                   
ram:800066c8    02b0a0e3        mov         r11,#0x2                                
                            LAB_800066cc:                 ;XREF[1,0]:   80006770
ram:800066cc    4708a0e1        mov         r0,r7, asr #0x10                        
ram:800066d0    00b0cde5        strb        r11,[sp,#0x0]=>local_48                 
ram:800066d4    0100cde5        strb        r0,[sp,#local_47+0x48]                  
ram:800066d8    4714a0e1        mov         r1,r7, asr #0x8                         
ram:800066dc    0210cde5        strb        r1,[sp,#local_46+0x48]                  
ram:800066e0    0a00a0e1        mov         r0,r10                                  
ram:800066e4    0370cde5        strb        r7,[sp,#local_45+0x48]                  
ram:800066e8    53f1ffeb        bl          FUN_80002c3c                            ;undefined FUN_80002c3c()
ram:800066ec    0a00a0e1        mov         r0,r10                                  
ram:800066f0    6ff1ffeb        bl          FUN_80002cb4                            ;undefined FUN_80002cb4()
ram:800066f4    000094e5        ldr         r0,[r4,#0x0]=>DAT_01c05008              
ram:800066f8    b000c0e3        bic         r0,r0,#0xb0                             
ram:800066fc    000084e5        str         r0,[r4,#0x0]=>DAT_01c05008              
ram:80006700    0d10a0e1        mov         r1,sp                                   
ram:80006704    0430a0e3        mov         r3,#0x4                                 
ram:80006708    0020a0e3        mov         r2,#0x0                                 
ram:8000670c    0a00a0e1        mov         r0,r10                                  
ram:80006710    0f0200eb        bl          FUN_80006f54                            ;undefined FUN_80006f54()
ram:80006714    040050e3        cmp         r0,#0x4                                 
ram:80006718    0400001a        bne         LAB_80006730                            
ram:8000671c    0630a0e1        mov         r3,r6                                   
ram:80006720    0020a0e3        mov         r2,#0x0                                 
ram:80006724    0910a0e1        mov         r1,r9                                   
ram:80006728    0a00a0e1        mov         r0,r10                                  
ram:8000672c    080200eb        bl          FUN_80006f54                            ;undefined FUN_80006f54()
                            LAB_80006730:                 ;XREF[1,0]:   80006718
ram:80006730    001094e5        ldr         r1,[r4,#0x0]=>DAT_01c05008              
ram:80006734    b010c1e3        bic         r1,r1,#0xb0                             
ram:80006738    801081e3        orr         r1,r1,#0x80                             
ram:8000673c    001084e5        str         r1,[r4,#0x0]=>DAT_01c05008              
ram:80006740    0a00a0e1        mov         r0,r10                                  
ram:80006744    5af1ffeb        bl          FUN_80002cb4                            ;undefined FUN_80002cb4()
ram:80006748    060058e1        cmp         r8,r6                                   
ram:8000674c    0800000a        beq         LAB_80006774                            
ram:80006750    060048e0        sub         r0,r8,r6                                
ram:80006754    0088a0e1        mov         r8,r0, lsl #0x10                        
ram:80006758    2888a0e1        mov         r8,r8, lsr #0x10                        
ram:8000675c    010c58e3        cmp         r8,#0x100                               
ram:80006760    069089e0        add         r9,r9,r6                                
ram:80006764    067087e0        add         r7,r7,r6                                
ram:80006768    0860a091        movls       r6,r8                                   
ram:8000676c    016ca083        movhi       r6,#0x100                               
ram:80006770    d5ffffea        b           LAB_800066cc                            
                            LAB_80006774:                 ;XREF[2,0]:   80006674,8000674c
ram:80006774    20009de5        ldr         r0,[sp,#local_28+0x48]                  
ram:80006778    050050e1        cmp         r0,r5                                   
ram:8000677c    24d08d02        addeq       sp,sp,#0x24                             
ram:80006780    f001bd08        ldmiaeq     sp!,{r4 r5 r6 r7 r8}                    
ram:80006784    008ebd08        ldmiaeq     sp!,{r9 r10 r11 pc}                     
ram:80006788    051040e0        sub         r1,r0,r5                                
ram:8000678c    04009de5        ldr         r0,[sp,#0x4]                            
ram:80006790    0060a0e3        mov         r6,#0x0                                 
ram:80006794    010080e2        add         r0,r0,#0x1                              
ram:80006798    04008de5        str         r0,[sp,#0x4]                            
ram:8000679c    0108a0e1        mov         r0,r1, lsl #0x10                        
ram:800067a0    2008a0e1        mov         r0,r0, lsr #0x10                        
ram:800067a4    20008de5        str         r0,[sp,#0x20]                           
ram:800067a8    18009de5        ldr         r0,[sp,#0x18]                           
ram:800067ac    050080e0        add         r0,r0,r5                                
ram:800067b0    18008de5        str         r0,[sp,#0x18]                           
ram:800067b4    1c009de5        ldr         r0,[sp,#0x1c]                           
ram:800067b8    050080e0        add         r0,r0,r5                                
ram:800067bc    1c008de5        str         r0,[sp,#0x1c]                           
ram:800067c0    20009de5        ldr         r0,[sp,#0x20]                           
ram:800067c4    010a50e3        cmp         r0,#0x1000                              
ram:800067c8    0050a091        movls       r5,r0                                   
ram:800067cc    015aa083        movhi       r5,#0x1000                              
ram:800067d0    21ffffea        b           LAB_8000645c                            
                            DAT_800067d4:                 ;XREF[3,0]:   80006428,80006550,800066ac
ram:800067d4    0050c001        undefined4  01C05000h                               
                            DAT_800067d8:                 ;XREF[4,0]:   80006494,800064ec,80006594,800065dc
ram:800067d8    50204580        undefined4  80452050h                               
                            ;************************************************************************************************
                            ;*                                           FUNCTION                                           *
                            ;************************************************************************************************
                            ;undefined FUN_800067dc()
          ;local_28      undefined4         -28                      ;XREF[1,0]:   8000681c
                                                          ;XREF[36,0]:  80000a4c,80000ab4,800016cc,80001794
                                                          ;             80001d48,80001d78,80001dac,80001dd8
                                                          ;             80001e30,80001e58,80001e88,80001eac
                                                          ;             80001efc,80001f54,80001f8c,80001fbc
                                                          ;             80001ff4,80002054,80002084,800020a8
                                                          ;             80002178,800022a0,800022e8,80002318
                                                          ;             80002474,800024bc,800024ec,80002e98
                                                          ;             80002f00,80002f54,80002fe0,8000301c
                                                          ;             800030a0,800030dc,8000313c,80003160
ram:800067dc    005e2de9        stmdb       sp!,{r9 r10 r11 r12 lr}                 
ram:800067e0    f0012de9        stmdb       sp!,{r4 r5 r6 r7 r8}                    
ram:800067e4    7c939fe5        ldr         r9,[DAT_80006b68]                       ;= 01C0F000h
ram:800067e8    0050b0e1        movs        r5,r0                                   
ram:800067ec    0281a0e3        mov         r8,#0x80000000                          
ram:800067f0    0260a0e1        mov         r6,r2                                   
ram:800067f4    0170a0e1        mov         r7,r1                                   
ram:800067f8    00b0a0e3        mov         r11,#0x0                                
ram:800067fc    c8a949e0        sub         r10,r9,r8, asr #0x13                    
ram:80006800    0940a001        moveq       r4,r9                                   
ram:80006804    0200000a        beq         LAB_80006814                            
ram:80006808    010055e3        cmp         r5,#0x1                                 
ram:8000680c    0a40a001        moveq       r4,r10                                  
ram:80006810    0040a013        movne       r4,#0x0                                 
                            LAB_80006814:                 ;XREF[1,0]:   80006804
ram:80006814    b000d7e1        ldrh        r0,[r7,#0x0]                            
ram:80006818    0c0050e3        cmp         r0,#0xc                                 
ram:8000681c    f001bd08        ldmiaeq     sp!,{r4 r5 r6 r7 r8}=>local_28          
ram:80006820    001ebd08        ldmiaeq     sp!,{r9 r10 r11 r12}                    
ram:80006824    0000a003        moveq       r0,#0x0                                 
ram:80006828    04f09d04        ldreq       pc,[sp],#0x4                            
ram:8000682c    000050e3        cmp         r0,#0x0                                 
ram:80006830    040097e5        ldr         r0,[r7,#0x4]                            
ram:80006834    30839f05        ldreq       r8,[DAT_80006b6c]                       ;= 80008000h
ram:80006838    010010e3        tst         r0,#0x1                                 
ram:8000683c    40808813        orrne       r8,r8,#0x40                             
ram:80006840    020010e3        tst         r0,#0x2                                 
ram:80006844    80808813        orrne       r8,r8,#0x80                             
ram:80006848    040010e3        tst         r0,#0x4                                 
ram:8000684c    018c8813        orrne       r8,r8,#0x100                            
ram:80006850    000056e3        cmp         r6,#0x0                                 
ram:80006854    1300000a        beq         LAB_800068a8                            
ram:80006858    0000d6e5        ldrb        r0,[r6,#0x0]                            
ram:8000685c    030010e3        tst         r0,#0x3                                 
ram:80006860    0300000a        beq         LAB_80006874                            
ram:80006864    0080e0e3        mvn         r8,#0x0                                 
ram:80006868    030c8fe2        adr         r0=>s_Addr_Align...,0x80006b70          ;= "Addr Align Err ...\r\n"
ram:8000686c    fa0100eb        bl          FUN_8000705c                            ;undefined FUN_8000705c()
ram:80006870    870000ea        b           LAB_80006a94                            
                            LAB_80006874:                 ;XREF[1,0]:   80006860
ram:80006874    0400d6e5        ldrb        r0,[r6,#0x4]                            
ram:80006878    228c88e3        orr         r8,r8,#0x2200                           
ram:8000687c    020010e3        tst         r0,#0x2                                 
ram:80006880    080096e5        ldr         r0,[r6,#0x8]                            
ram:80006884    018b8813        orrne       r8,r8,#0x400                            
ram:80006888    010050e3        cmp         r0,#0x1                                 
ram:8000688c    0c0096e5        ldr         r0,[r6,#0xc]                            
ram:80006890    018a8883        orrhi       r8,r8,#0x1000                           
ram:80006894    100084e5        str         r0,[r4,#0x10]                           
ram:80006898    080096e5        ldr         r0,[r6,#0x8]                            
ram:8000689c    0c2096e5        ldr         r2,[r6,#0xc]                            
ram:800068a0    920000e0        mul         r0,r2,r0                                
ram:800068a4    140084e5        str         r0,[r4,#0x14]                           
                            LAB_800068a8:                 ;XREF[1,0]:   80006854
ram:800068a8    081097e5        ldr         r1,[r7,#0x8]                            
ram:800068ac    1c1084e5        str         r1,[r4,#0x1c]                           
ram:800068b0    000056e3        cmp         r6,#0x0                                 
ram:800068b4    0d00000a        beq         LAB_800068f0                            
ram:800068b8    0c0096e5        ldr         r0,[r6,#0xc]                            
ram:800068bc    081096e5        ldr         r1,[r6,#0x8]                            
ram:800068c0    910000e0        mul         r0,r1,r0                                
ram:800068c4    400050e3        cmp         r0,#0x40                                
ram:800068c8    0c00009a        bls         LAB_80006900                            
ram:800068cc    b4229fe5        ldr         r2,[DAT_80006b88]                       ;= 80440000h
ram:800068d0    01b0a0e3        mov         r11,#0x1                                
ram:800068d4    0610a0e1        mov         r1,r6                                   
ram:800068d8    0500a0e1        mov         r0,r5                                   
ram:800068dc    13fdffeb        bl          FUN_80005d30                            ;undefined FUN_80005d30()
ram:800068e0    b000d7e1        ldrh        r0,[r7,#0x0]                            
ram:800068e4    080080e1        orr         r0,r0,r8                                
ram:800068e8    180084e5        str         r0,[r4,#0x18]                           
ram:800068ec    110000ea        b           LAB_80006938                            
                            LAB_800068f0:                 ;XREF[1,0]:   800068b4
ram:800068f0    b000d7e1        ldrh        r0,[r7,#0x0]                            
ram:800068f4    081080e1        orr         r1,r0,r8                                
ram:800068f8    181084e5        str         r1,[r4,#0x18]                           
ram:800068fc    0d0000ea        b           LAB_80006938                            
                            LAB_80006900:                 ;XREF[1,0]:   800068c8
ram:80006900    b000d7e1        ldrh        r0,[r7,#0x0]                            
ram:80006904    081080e1        orr         r1,r0,r8                                
ram:80006908    181084e5        str         r1,[r4,#0x18]                           
ram:8000690c    0610a0e1        mov         r1,r6                                   
ram:80006910    0500a0e1        mov         r0,r5                                   
ram:80006914    befcffeb        bl          FUN_80005c14                            ;undefined FUN_80005c14()
ram:80006918    000050e3        cmp         r0,#0x0                                 
ram:8000691c    0500000a        beq         LAB_80006938                            
ram:80006920    380094e5        ldr         r0,[r4,#0x38]                           
ram:80006924    60129fe5        ldr         r1,[DAT_80006b8c]                       ;= 0000BFC2h
ram:80006928    001001e0        and         r1,r1,r0                                
ram:8000692c    970f8fe2        adr         r0=>s_error_%08x_80006b90,0x80006b90    ;= "error %08x \r\n"
ram:80006930    c90100eb        bl          FUN_8000705c                            ;undefined FUN_8000705c()
ram:80006934    550000ea        b           LAB_80006a90                            
                            LAB_80006938:                 ;XREF[3,0]:   800068ec,800068fc,8000691c
ram:80006938    60229fe5        ldr         r2,[DAT_80006ba0]                       ;= 00030D40h
ram:8000693c    000055e3        cmp         r5,#0x0                                 
ram:80006940    04c0a0e3        mov         r12,#0x4                                
ram:80006944    0900a001        moveq       r0,r9                                   
ram:80006948    0200000a        beq         LAB_80006958                            
ram:8000694c    010055e3        cmp         r5,#0x1                                 
ram:80006950    0a00a001        moveq       r0,r10                                  
ram:80006954    0000a013        movne       r0,#0x0                                 
                            LAB_80006958:                 ;XREF[1,0]:   80006948
ram:80006958    2c329fe5        ldr         r3,[DAT_80006b8c]                       ;= 0000BFC2h
ram:8000695c    0080a0e3        mov         r8,#0x0                                 
ram:80006960    381080e2        add         r1,r0,#0x38                             
                            LAB_80006964:                 ;XREF[1,0]:   80006998
ram:80006964    000091e5        ldr         r0,[r1,#0x0]                            
ram:80006968    012052e2        subs        r2,r2,#0x1                              
ram:8000696c    0100003a        bcc         LAB_80006978                            
ram:80006970    030010e1        tst         r0,r3                                   
ram:80006974    0600000a        beq         LAB_80006994                            
                            LAB_80006978:                 ;XREF[1,0]:   8000696c
ram:80006978    003003e0        and         r3,r3,r0                                
ram:8000697c    20029fe5        ldr         r0=>s_ERR:_mmc%d...,[PTR_s_ERR:_mmc%d...;= "ERR: mmc%d tmier=[%d] timeout %x\...
                                                                                    ;= 800059e4
ram:80006980    0510a0e1        mov         r1,r5                                   
ram:80006984    b40100eb        bl          FUN_8000705c                            ;undefined FUN_8000705c()
ram:80006988    9780e0e3        mvn         r8,#0x97                                
ram:8000698c    850f8fe2        adr         r0=>s_ERR1_80006ba8,0x80006ba8          ;= "ERR1\r\n"
ram:80006990    2f0000ea        b           LAB_80006a54                            
                            LAB_80006994:                 ;XREF[1,0]:   80006974
ram:80006994    0c0010e1        tst         r0,r12                                  
ram:80006998    f1ffff0a        beq         LAB_80006964                            
ram:8000699c    01005be3        cmp         r11,#0x1                                
ram:800069a0    1200001a        bne         LAB_800069f0                            
                            LAB_800069a4:                 ;XREF[1,0]:   800069ec
ram:800069a4    000055e3        cmp         r5,#0x0                                 
ram:800069a8    0010a0e3        mov         r1,#0x0                                 
ram:800069ac    0900a001        moveq       r0,r9                                   
ram:800069b0    0200000a        beq         LAB_800069c0                            
ram:800069b4    010055e3        cmp         r5,#0x1                                 
ram:800069b8    0a00a001        moveq       r0,r10                                  
ram:800069bc    0000a013        movne       r0,#0x0                                 
                            LAB_800069c0:                 ;XREF[1,0]:   800069b0
ram:800069c0    882090e5        ldr         r2,[r0,#0x88]                           
ram:800069c4    010012e3        tst         r2,#0x1                                 
ram:800069c8    0110a013        movne       r1,#0x1                                 
ram:800069cc    020012e3        tst         r2,#0x2                                 
ram:800069d0    02108113        orrne       r1,r1,#0x2                              
ram:800069d4    000051e3        cmp         r1,#0x0                                 
ram:800069d8    030000da        ble         LAB_800069ec                            
ram:800069dc    882090e5        ldr         r2,[r0,#0x88]                           
ram:800069e0    021081e1        orr         r1,r1,r2                                
ram:800069e4    881080e5        str         r1,[r0,#0x88]                           
ram:800069e8    000000ea        b           LAB_800069f0                            
                            LAB_800069ec:                 ;XREF[1,0]:   800069d8
ram:800069ec    ecffff0a        beq         LAB_800069a4                            
                            LAB_800069f0:                 ;XREF[2,0]:   800069a0,800069e8
ram:800069f0    000056e3        cmp         r6,#0x0                                 
ram:800069f4    1b00000a        beq         LAB_80006a68                            
ram:800069f8    080096e5        ldr         r0,[r6,#0x8]                            
ram:800069fc    0510a0e1        mov         r1,r5                                   
ram:80006a00    010050e3        cmp         r0,#0x1                                 
ram:80006a04    08c0a093        movls       r12,#0x8                                
ram:80006a08    01c9a083        movhi       r12,#0x4000                             
ram:80006a0c    8c219fe5        ldr         r2,[DAT_80006ba0]                       ;= 00030D40h
ram:80006a10    000051e3        cmp         r1,#0x0                                 
ram:80006a14    0900a001        moveq       r0,r9                                   
ram:80006a18    0200000a        beq         LAB_80006a28                            
ram:80006a1c    010051e3        cmp         r1,#0x1                                 
ram:80006a20    0a00a001        moveq       r0,r10                                  
ram:80006a24    0000a013        movne       r0,#0x0                                 
                            LAB_80006a28:                 ;XREF[1,0]:   80006a18
ram:80006a28    38e080e2        add         lr,r0,#0x38                             
                            LAB_80006a2c:                 ;XREF[1,0]:   80006a60
ram:80006a2c    00009ee5        ldr         r0,[lr,#0x0]                            
ram:80006a30    012052e2        subs        r2,r2,#0x1                              
ram:80006a34    0100003a        bcc         LAB_80006a40                            
ram:80006a38    030010e1        tst         r0,r3                                   
ram:80006a3c    0600000a        beq         LAB_80006a5c                            
                            LAB_80006a40:                 ;XREF[1,0]:   80006a34
ram:80006a40    003003e0        and         r3,r3,r0                                
ram:80006a44    58019fe5        ldr         r0=>s_ERR:_mmc%d...,[PTR_s_ERR:_mmc%d...;= "ERR: mmc%d tmier=[%d] timeout %x\...
                                                                                    ;= 800059e4
ram:80006a48    830100eb        bl          FUN_8000705c                            ;undefined FUN_8000705c()
ram:80006a4c    9780e0e3        mvn         r8,#0x97                                
ram:80006a50    560f8fe2        adr         r0=>s_ERR2_80006bb0,0x80006bb0          ;= "ERR2\r\n"
                            LAB_80006a54:                 ;XREF[1,0]:   80006990
ram:80006a54    800100eb        bl          FUN_8000705c                            ;undefined FUN_8000705c()
ram:80006a58    0d0000ea        b           LAB_80006a94                            
                            LAB_80006a5c:                 ;XREF[1,0]:   80006a3c
ram:80006a5c    0c0010e1        tst         r0,r12                                  
ram:80006a60    f1ffff0a        beq         LAB_80006a2c                            
ram:80006a64    0080a0e3        mov         r8,#0x0                                 
                            LAB_80006a68:                 ;XREF[1,0]:   800069f4
ram:80006a68    043097e5        ldr         r3,[r7,#0x4]                            
ram:80006a6c    080013e3        tst         r3,#0x8                                 
ram:80006a70    40019f15        ldrne       r0,[DAT_80006bb8]                       ;= 01312D00h
ram:80006a74    3c208412        addne       r2,r4,#0x3c                             
ram:80006a78    5b00000a        beq         LAB_80006bec                            
                            LAB_80006a7c:                 ;XREF[1,0]:   80006be8
ram:80006a7c    001092e5        ldr         r1,[r2,#0x0]                            
ram:80006a80    010050e2        subs        r0,r0,#0x1                              
ram:80006a84    5600002a        bcs         LAB_80006be4                            
ram:80006a88    4b0f8fe2        adr         r0=>s_busy_timeout_80006bbc,0x80006bbc  ;= "busy timeout\r\n"
ram:80006a8c    720100eb        bl          FUN_8000705c                            ;undefined FUN_8000705c()
                            LAB_80006a90:                 ;XREF[1,0]:   80006934
ram:80006a90    9780e0e3        mvn         r8,#0x97                                
                            LAB_80006a94:                 ;XREF[2,0]:   80006870,80006a58
ram:80006a94    130e8fe2        adr         r0=>s_err_reset..._80006bcc,0x80006bcc  ;= "err_reset...\r\n"
ram:80006a98    6f0100eb        bl          FUN_8000705c                            ;undefined FUN_8000705c()
ram:80006a9c    0700a0e3        mov         r0,#0x7                                 
ram:80006aa0    000084e5        str         r0,[r4,#0x0]                            
ram:80006aa4    000055e3        cmp         r5,#0x0                                 
ram:80006aa8    7d7ea0e3        mov         r7,#0x7d0                               
ram:80006aac    0200000a        beq         LAB_80006abc                            
ram:80006ab0    010055e3        cmp         r5,#0x1                                 
ram:80006ab4    0a90a001        moveq       r9,r10                                  
ram:80006ab8    0090a013        movne       r9,#0x0                                 
                            LAB_80006abc:                 ;XREF[1,0]:   80006aac
ram:80006abc    18019fe5        ldr         r0,[DAT_80006bdc]                       ;= 80202000h
ram:80006ac0    1800a9e5        str         r0,[r9,#0x18]!                          
                            LAB_80006ac4:                 ;XREF[1,0]:   80006c20
ram:80006ac4    000099e5        ldr         r0,[r9,#0x0]                            
ram:80006ac8    020110e3        tst         r0,#0x80000000                          
ram:80006acc    0300000a        beq         LAB_80006ae0                            
ram:80006ad0    017057e2        subs        r7,r7,#0x1                              
ram:80006ad4    4f00002a        bcs         LAB_80006c18                            
ram:80006ad8    00019fe5        ldr         r0=>s_timeout......,[PTR_s_timeout......;= 80005f50
                                                                                    ;= "timeout...\r\n"
ram:80006adc    5e0100eb        bl          FUN_8000705c                            ;undefined FUN_8000705c()
                            LAB_80006ae0:                 ;XREF[3,0]:   80006acc,80006c00,80006c14
ram:80006ae0    000056e3        cmp         r6,#0x0                                 
ram:80006ae4    00005b13        cmpne       r11,#0x0                                
ram:80006ae8    0400000a        beq         LAB_80006b00                            
ram:80006aec    880094e5        ldr         r0,[r4,#0x88]                           
ram:80006af0    0010a0e3        mov         r1,#0x0                                 
ram:80006af4    880084e5        str         r0,[r4,#0x88]                           
ram:80006af8    8c1084e5        str         r1,[r4,#0x8c]                           
ram:80006afc    801084e5        str         r1,[r4,#0x80]                           
                            LAB_80006b00:                 ;XREF[1,0]:   80006ae8
ram:80006b00    380094e5        ldr         r0,[r4,#0x38]                           
ram:80006b04    380084e5        str         r0,[r4,#0x38]                           
ram:80006b08    000094e5        ldr         r0,[r4,#0x0]                            
ram:80006b0c    060080e3        orr         r0,r0,#0x6                              
ram:80006b10    000084e5        str         r0,[r4,#0x0]                            
ram:80006b14    000056e3        cmp         r6,#0x0                                 
ram:80006b18    0400d615        ldrbne      r0,[r6,#0x4]                            
ram:80006b1c    01001013        tstne       r0,#0x1                                 
ram:80006b20    0c00000a        beq         LAB_80006b58                            
ram:80006b24    0c0096e5        ldr         r0,[r6,#0xc]                            
ram:80006b28    081096e5        ldr         r1,[r6,#0x8]                            
ram:80006b2c    002096e5        ldr         r2,[r6,#0x0]                            
ram:80006b30    902121e0        mla         r1,r0,r1,r2                             
ram:80006b34    1f00c2e3        bic         r0,r2,#0x1f                             
ram:80006b38    1f10c1e3        bic         r1,r1,#0x1f                             
ram:80006b3c    010050e1        cmp         r0,r1                                   
ram:80006b40    0400008a        bhi         LAB_80006b58                            
                            LAB_80006b44:                 ;XREF[1,0]:   80006b54
ram:80006b44    3e0f07ee        mcr         p15,0x0,r0,cr7,cr14,0x1                 
ram:80006b48    350f07ee        mcr         p15,0x0,r0,cr7,cr5,0x1                  
ram:80006b4c    200080e2        add         r0,r0,#0x20                             
ram:80006b50    010050e1        cmp         r0,r1                                   
ram:80006b54    faffff9a        bls         LAB_80006b44                            
                            LAB_80006b58:                 ;XREF[2,0]:   80006b20,80006b40
ram:80006b58    0800a0e1        mov         r0,r8                                   
ram:80006b5c    f001bde8        ldmia       sp!,{r4 r5 r6 r7 r8}                    
ram:80006b60    001ebde8        ldmia       sp!,{r9 r10 r11 r12}                    
ram:80006b64    04f09de4        ldr         pc,[sp],#0x4                            
                            DAT_80006b68:                 ;XREF[1,0]:   800067e4
ram:80006b68    00f0c001        undefined4  01C0F000h                               
                            DAT_80006b6c:                 ;XREF[1,0]:   80006834
ram:80006b6c    00800080        undefined4  80008000h                               
                            s_Addr_Align_Err_..._80006b70:;XREF[1,0]:   80006868
ram:80006b70    416464722...    ds          "Addr Align Err ...\r\n"                
                            DAT_80006b88:                 ;XREF[1,0]:   800068cc
ram:80006b88    00004480        undefined4  80440000h                               
                            DAT_80006b8c:                 ;XREF[2,0]:   80006924,80006958
ram:80006b8c    c2bf0000        undefined4  0000BFC2h                               
                            s_error_%08x_80006b90:        ;XREF[1,0]:   8000692c
ram:80006b90    6572726f7...    ds          "error %08x \r\n"                       
                            DAT_80006ba0:                 ;XREF[2,0]:   80006938,80006a0c
ram:80006ba0    400d0300        undefined4  00030D40h                               
                            PTR_s_ERR:_mmc%d_tmier=[%d]...;XREF[2,0]:   8000697c,80006a44
ram:80006ba4    e4590080        addr        s_ERR:_mmc%d_tmier=[%d]_timeout_%x_80...;= "ERR: mmc%d tmier=[%d] timeout %x\...
                            s_ERR1_80006ba8:              ;XREF[1,0]:   8000698c
ram:80006ba8    455252310...    ds          "ERR1\r\n"                              
ram:80006baf    00              ??          00h                                     
                            s_ERR2_80006bb0:              ;XREF[1,0]:   80006a50
ram:80006bb0    455252320...    ds          "ERR2\r\n"                              
ram:80006bb7    00              ??          00h                                     
                            DAT_80006bb8:                 ;XREF[1,0]:   80006a70
ram:80006bb8    002d3101        undefined4  01312D00h                               
                            s_busy_timeout_80006bbc:      ;XREF[1,0]:   80006a88
ram:80006bbc    627573792...    ds          "busy timeout\r\n"                      
                            s_err_reset..._80006bcc:      ;XREF[1,0]:   80006a94
ram:80006bcc    6572725f7...    ds          "err_reset...\r\n"                      
                            DAT_80006bdc:                 ;XREF[1,0]:   80006abc
ram:80006bdc    00202080        undefined4  80202000h                               
                            PTR_s_timeout..._80006be0:    ;XREF[1,0]:   80006ad8
ram:80006be0    505f0080        addr        s_timeout..._80005f50                   ;= "timeout...\r\n"
                            LAB_80006be4:                 ;XREF[1,0]:   80006a84
ram:80006be4    020c11e3        tst         r1,#0x200                               
ram:80006be8    a3ffff1a        bne         LAB_80006a7c                            
                            LAB_80006bec:                 ;XREF[1,0]:   80006a78
ram:80006bec    200094e5        ldr         r0,[r4,#0x20]                           
ram:80006bf0    020013e3        tst         r3,#0x2                                 
ram:80006bf4    0c0087e5        str         r0,[r7,#0xc]                            
ram:80006bf8    240094e5        ldr         r0,[r4,#0x24]                           
ram:80006bfc    100087e5        str         r0,[r7,#0x10]                           
ram:80006c00    b6ffff0a        beq         LAB_80006ae0                            
ram:80006c04    280094e5        ldr         r0,[r4,#0x28]                           
ram:80006c08    140087e5        str         r0,[r7,#0x14]                           
ram:80006c0c    2c0094e5        ldr         r0,[r4,#0x2c]                           
ram:80006c10    180087e5        str         r0,[r7,#0x18]                           
ram:80006c14    b1ffffea        b           LAB_80006ae0                            
                            LAB_80006c18:                 ;XREF[1,0]:   80006ad4
ram:80006c18    0500a0e3        mov         r0,#0x5                                 
ram:80006c1c    3de9ffeb        bl          FUN_80001118                            ;undefined FUN_80001118()
ram:80006c20    a7ffffea        b           LAB_80006ac4                            
                            ;************************************************************************************************
                            ;*                                           FUNCTION                                           *
                            ;************************************************************************************************
                            ;undefined FUN_80006c24()
                                                          ;XREF[2,0]:   800049fc,80004bf0
ram:80006c24    70402de9        stmdb       sp!,{r4 r5 r6 lr}                       
ram:80006c28    0040a0e1        mov         r4,r0                                   
ram:80006c2c    0300d0e5        ldrb        r0,[r0,#0x3]                            
ram:80006c30    0050a0e3        mov         r5,#0x0                                 
ram:80006c34    0560a0e1        mov         r6,r5                                   
ram:80006c38    000050e3        cmp         r0,#0x0                                 
ram:80006c3c    1500000a        beq         LAB_80006c98                            
ram:80006c40    2c2094e5        ldr         r2,[r4,#0x2c]                           
ram:80006c44    0100d4e5        ldrb        r0,[r4,#0x1]                            
ram:80006c48    0130a0e3        mov         r3,#0x1                                 
ram:80006c4c    301084e2        add         r1,r4,#0x30                             
ram:80006c50    fdf4ffeb        bl          FUN_8000404c                            ;undefined FUN_8000404c()
ram:80006c54    000050e3        cmp         r0,#0x0                                 
ram:80006c58    1400001a        bne         LAB_80006cb0                            
ram:80006c5c    2c2094e5        ldr         r2,[r4,#0x2c]                           
ram:80006c60    203094e5        ldr         r3,[r4,#0x20]                           
ram:80006c64    181094e5        ldr         r1,[r4,#0x18]                           
ram:80006c68    033042e0        sub         r3,r2,r3                                
ram:80006c6c    010053e1        cmp         r3,r1                                   
ram:80006c70    0350c4e5        strb        r5,[r4,#0x3]                            
ram:80006c74    0700002a        bcs         LAB_80006c98                            
ram:80006c78    0200d4e5        ldrb        r0,[r4,#0x2]                            
ram:80006c7c    020050e3        cmp         r0,#0x2                                 
ram:80006c80    0400001a        bne         LAB_80006c98                            
ram:80006c84    012082e0        add         r2,r2,r1                                
ram:80006c88    0100d4e5        ldrb        r0,[r4,#0x1]                            
ram:80006c8c    0130a0e3        mov         r3,#0x1                                 
ram:80006c90    301084e2        add         r1,r4,#0x30                             
ram:80006c94    ecf4ffeb        bl          FUN_8000404c                            ;undefined FUN_8000404c()
                            LAB_80006c98:                 ;XREF[3,0]:   80006c3c,80006c74,80006c80
ram:80006c98    0000d4e5        ldrb        r0,[r4,#0x0]                            
ram:80006c9c    030050e3        cmp         r0,#0x3                                 
ram:80006ca0    0400d405        ldrbeq      r0,[r4,#0x4]                            
ram:80006ca4    01005003        cmpeq       r0,#0x1                                 
ram:80006ca8    2e00001a        bne         LAB_80006d68                            
ram:80006cac    010000ea        b           LAB_80006cb8                            
                            LAB_80006cb0:                 ;XREF[2,0]:   80006c58,80006d7c
ram:80006cb0    0160a0e3        mov         r6,#0x1                                 
ram:80006cb4    310000ea        b           LAB_80006d80                            
                            LAB_80006cb8:                 ;XREF[1,0]:   80006cac
ram:80006cb8    022ca0e3        mov         r2,#0x200                               
ram:80006cbc    0010a0e3        mov         r1,#0x0                                 
ram:80006cc0    300084e2        add         r0,r4,#0x30                             
ram:80006cc4    e7faffeb        bl          FUN_80005868                            ;undefined FUN_80005868()
ram:80006cc8    5520a0e3        mov         r2,#0x55                                
ram:80006ccc    2e22c4e5        strb        r2,[r4,#0x22e]                          
ram:80006cd0    aa10a0e3        mov         r1,#0xaa                                
ram:80006cd4    2f12c4e5        strb        r1,[r4,#0x22f]                          
ram:80006cd8    5230a0e3        mov         r3,#0x52                                
ram:80006cdc    3030c4e5        strb        r3,[r4,#0x30]                           
ram:80006ce0    3130c4e5        strb        r3,[r4,#0x31]                           
ram:80006ce4    6110a0e3        mov         r1,#0x61                                
ram:80006ce8    4120a0e3        mov         r2,#0x41                                
ram:80006cec    3210c4e5        strb        r1,[r4,#0x32]                           
ram:80006cf0    7230a0e3        mov         r3,#0x72                                
ram:80006cf4    3320c4e5        strb        r2,[r4,#0x33]                           
ram:80006cf8    1432c4e5        strb        r3,[r4,#0x214]                          
ram:80006cfc    1532c4e5        strb        r3,[r4,#0x215]                          
ram:80006d00    1622c4e5        strb        r2,[r4,#0x216]                          
ram:80006d04    1712c4e5        strb        r1,[r4,#0x217]                          
ram:80006d08    102094e5        ldr         r2,[r4,#0x10]                           
ram:80006d0c    0130a0e3        mov         r3,#0x1                                 
ram:80006d10    2214a0e1        mov         r1,r2, lsr #0x8                         
ram:80006d14    1822c4e5        strb        r2,[r4,#0x218]                          
ram:80006d18    2124a0e1        mov         r2,r1, lsr #0x8                         
ram:80006d1c    1912c4e5        strb        r1,[r4,#0x219]                          
ram:80006d20    2214a0e1        mov         r1,r2, lsr #0x8                         
ram:80006d24    1a22c4e5        strb        r2,[r4,#0x21a]                          
ram:80006d28    1b12c4e5        strb        r1,[r4,#0x21b]                          
ram:80006d2c    0c2094e5        ldr         r2,[r4,#0xc]                            
ram:80006d30    2214a0e1        mov         r1,r2, lsr #0x8                         
ram:80006d34    1c22c4e5        strb        r2,[r4,#0x21c]                          
ram:80006d38    2124a0e1        mov         r2,r1, lsr #0x8                         
ram:80006d3c    1d12c4e5        strb        r1,[r4,#0x21d]                          
ram:80006d40    2214a0e1        mov         r1,r2, lsr #0x8                         
ram:80006d44    1e22c4e5        strb        r2,[r4,#0x21e]                          
ram:80006d48    1f12c4e5        strb        r1,[r4,#0x21f]                          
ram:80006d4c    1c0094e5        ldr         r0,[r4,#0x1c]                           
ram:80006d50    301084e2        add         r1,r4,#0x30                             
ram:80006d54    012080e2        add         r2,r0,#0x1                              
ram:80006d58    2c2084e5        str         r2,[r4,#0x2c]                           
ram:80006d5c    0100d4e5        ldrb        r0,[r4,#0x1]                            
ram:80006d60    b9f4ffeb        bl          FUN_8000404c                            ;undefined FUN_8000404c()
ram:80006d64    0450c4e5        strb        r5,[r4,#0x4]                            
                            LAB_80006d68:                 ;XREF[1,0]:   80006ca8
ram:80006d68    0020a0e3        mov         r2,#0x0                                 
ram:80006d6c    0100d4e5        ldrb        r0,[r4,#0x1]                            
ram:80006d70    0210a0e1        mov         r1,r2                                   
ram:80006d74    4df4ffeb        bl          FUN_80003eb0                            ;undefined FUN_80003eb0()
ram:80006d78    000050e3        cmp         r0,#0x0                                 
ram:80006d7c    cbffff1a        bne         LAB_80006cb0                            
                            LAB_80006d80:                 ;XREF[1,0]:   80006cb4
ram:80006d80    0600a0e1        mov         r0,r6                                   
ram:80006d84    7080bde8        ldmia       sp!,{r4 r5 r6 pc}                       
                            ;************************************************************************************************
                            ;*                                           FUNCTION                                           *
                            ;************************************************************************************************
                            ;undefined FUN_80006d88()
                                                          ;XREF[1,0]:   80003234
ram:80006d88    800050e3        cmp         r0,#0x80                                
ram:80006d8c    1000000a        beq         LAB_80006dd4                            
ram:80006d90    060000ca        bgt         LAB_80006db0                            
ram:80006d94    3f0050e3        cmp         r0,#0x3f                                
ram:80006d98    0900000a        beq         LAB_80006dc4                            
ram:80006d9c    400050e3        cmp         r0,#0x40                                
ram:80006da0    0b00000a        beq         LAB_80006dd4                            
ram:80006da4    7f0050e3        cmp         r0,#0x7f                                
ram:80006da8    0500000a        beq         LAB_80006dc4                            
ram:80006dac    0b0000ea        b           LAB_80006de0                            
                            LAB_80006db0:                 ;XREF[1,0]:   80006d90
ram:80006db0    bf0050e3        cmp         r0,#0xbf                                
ram:80006db4    0200000a        beq         LAB_80006dc4                            
ram:80006db8    c00050e3        cmp         r0,#0xc0                                
ram:80006dbc    0400000a        beq         LAB_80006dd4                            
ram:80006dc0    060000ea        b           LAB_80006de0                            
                            LAB_80006dc4:                 ;XREF[3,0]:   80006d98,80006da8,80006db4
ram:80006dc4    00100fe1        mrs         r1,cpsr                                 
ram:80006dc8    000001e0        and         r0,r1,r0                                
ram:80006dcc    00f021e1        msr         cpsr_c,r0                               
ram:80006dd0    020000ea        b           LAB_80006de0                            
                            LAB_80006dd4:                 ;XREF[3,0]:   80006d8c,80006da0,80006dbc
ram:80006dd4    00100fe1        mrs         r1,cpsr                                 
ram:80006dd8    000081e1        orr         r0,r1,r0                                
ram:80006ddc    00f021e1        msr         cpsr_c,r0                               
                            LAB_80006de0:                 ;XREF[3,0]:   80006dac,80006dc0,80006dd0
ram:80006de0    0000a0e3        mov         r0,#0x0                                 
ram:80006de4    1eff2fe1        bx          lr                                      
                            ;************************************************************************************************
                            ;*                                           FUNCTION                                           *
                            ;************************************************************************************************
                            ;undefined FUN_80006de8()
          ;local_10      undefined4         -10                      ;XREF[3,0]:   80006dfc,80006e28,80006e58
          ;local_14      undefined4         -14                      ;XREF[3,0]:   80006e04,80006e30,80006e68
          ;local_18      undefined4         -18                      ;XREF[3,0]:   80006e00,80006e2c,80006e60
          ;local_1c      undefined4         -1c                      ;XREF[2,0]:   80006e0c,80006e74
          ;local_20      undefined4         -20                      ;XREF[3,0]:   80006e08,80006e40,80006e6c
ram:80006de8    10402de9        stmdb       sp!,{r4 lr}                             
ram:80006dec    18d04de2        sub         sp,sp,#0x18                             
ram:80006df0    b4409fe5        ldr         r4,[DAT_80006eac]                       ;= 8043C000h
ram:80006df4    0000a0e3        mov         r0,#0x0                                 
ram:80006df8    0211a0e3        mov         r1=>DAT_80000000,#0x80000000            ;= DBh
ram:80006dfc    10008de5        str         r0,[sp,#local_10+0x20]                  
ram:80006e00    08108de5        str         r1=>DAT_80000000,[sp,#local_18+0x20]    ;= DBh
ram:80006e04    0c008de5        str         r0,[sp,#local_14+0x20]                  
ram:80006e08    00008de5        str         r0,[sp,#0x0]=>local_20                  
ram:80006e0c    04008de5        str         r0,[sp,#local_1c+0x20]                  
ram:80006e10    0020a0e1        mov         r2,r0                                   
ram:80006e14    0030a0e1        mov         r3,r0                                   
ram:80006e18    0400a0e1        mov         r0,r4                                   
ram:80006e1c    4cfaffeb        bl          FUN_80005754                            ;undefined FUN_80005754(undefined par...
ram:80006e20    0000a0e3        mov         r0,#0x0                                 
ram:80006e24    0211a0e3        mov         r1,#0x80000000                          
ram:80006e28    10008de5        str         r0,[sp,#local_10+0x20]                  
ram:80006e2c    08108de5        str         r1=>DAT_80000000,[sp,#local_18+0x20]    ;= DBh
ram:80006e30    0c008de5        str         r0,[sp,#local_14+0x20]                  
ram:80006e34    0100a0e1        mov         r0,r1                                   
ram:80006e38    0010a0e3        mov         r1,#0x0                                 
ram:80006e3c    0221a0e3        mov         r2=>DAT_80000000,#0x80000000            ;= DBh
ram:80006e40    f000cde1        strd        r0=>DAT_80000000,r1,[sp,#0x0]=>local_20 ;= DBh
ram:80006e44    0130a0e1        mov         r3,r1                                   
ram:80006e48    0400a0e1        mov         r0,r4                                   
ram:80006e4c    40faffeb        bl          FUN_80005754                            ;undefined FUN_80005754(undefined par...
ram:80006e50    0300a0e3        mov         r0,#0x3                                 
ram:80006e54    0214a0e3        mov         r1,#0x2000000                           
ram:80006e58    10008de5        str         r0,[sp,#local_10+0x20]                  
ram:80006e5c    0000a0e3        mov         r0,#0x0                                 
ram:80006e60    08108de5        str         r1,[sp,#local_18+0x20]                  
ram:80006e64    0211a0e3        mov         r1=>DAT_80000000,#0x80000000            ;= DBh
ram:80006e68    0c008de5        str         r0,[sp,#local_14+0x20]                  
ram:80006e6c    00108de5        str         r1=>DAT_80000000,[sp,#0x0]=>local_20    ;= DBh
ram:80006e70    0120a0e1        mov         r2=>DAT_80000000,r1                     ;= DBh
ram:80006e74    04008de5        str         r0,[sp,#local_1c+0x20]                  
ram:80006e78    0030a0e1        mov         r3,r0                                   
ram:80006e7c    0400a0e1        mov         r0,r4                                   
ram:80006e80    33faffeb        bl          FUN_80005754                            ;undefined FUN_80005754(undefined par...
ram:80006e84    0400a0e1        mov         r0,r4                                   
ram:80006e88    5ef2ffeb        bl          FUN_80003808                            ;undefined FUN_80003808()
ram:80006e8c    58f2ffeb        bl          FUN_800037f4                            ;undefined FUN_800037f4()
ram:80006e90    0100a0e3        mov         r0,#0x1                                 
ram:80006e94    46f2ffeb        bl          FUN_800037b4                            ;undefined FUN_800037b4()
ram:80006e98    4df2ffeb        bl          FUN_800037d4                            ;undefined FUN_800037d4()
ram:80006e9c    46f2ffeb        bl          FUN_800037bc                            ;undefined FUN_800037bc()
ram:80006ea0    3df2ffeb        bl          FUN_8000379c                            ;undefined FUN_8000379c()
ram:80006ea4    18d08de2        add         sp,sp,#0x18                             
ram:80006ea8    1080bde8        ldmia       sp!,{r4 pc}                             
                            DAT_80006eac:                 ;XREF[1,0]:   80006df0
ram:80006eac    00c04380        undefined4  8043C000h                               
                            LAB_80006eb0:                 ;XREF[1,0]:   80002ca8
ram:80006eb0    c0432de9        stmdb       sp!,{r6 r7 r8 r9 lr}                    
ram:80006eb4    38002de9        stmdb       sp!,{r3 r4 r5}                          
ram:80006eb8    0360a0e3        mov         r6,#0x3                                 
ram:80006ebc    41c8a0e1        mov         r12,r1, asr #0x10                       
ram:80006ec0    0060cde5        strb        r6,[sp,#0x0]=>local_20                  
ram:80006ec4    4144a0e1        mov         r4,r1, asr #0x8                         
ram:80006ec8    01c0cde5        strb        r12,[sp,#local_20+0x21]                 
ram:80006ecc    0240cde5        strb        r4,[sp,#local_20+0x22]                  
ram:80006ed0    0310cde5        strb        r1,[sp,#local_20+0x23]                  
ram:80006ed4    74109fe5        ldr         r1,[DAT_80006f50]                       ;= 01C05000h
ram:80006ed8    0050a0e3        mov         r5,#0x0                                 
ram:80006edc    004681e0        add         r4,r1,r0, lsl #0xc                      
ram:80006ee0    084094e2        adds        r4,r4,#0x8                              
ram:80006ee4    001094e5        ldr         r1,[r4,#0x0]=>DAT_01c05008              
ram:80006ee8    b010c1e3        bic         r1,r1,#0xb0                             
ram:80006eec    001084e5        str         r1,[r4,#0x0]=>DAT_01c05008              
ram:80006ef0    0280a0e1        mov         r8,r2                                   
ram:80006ef4    0360a0e1        mov         r6,r3                                   
ram:80006ef8    0070a0e1        mov         r7,r0                                   
ram:80006efc    0430a0e3        mov         r3,#0x4                                 
ram:80006f00    0d10a0e1        mov         r1,sp                                   
ram:80006f04    0520a0e1        mov         r2,r5                                   
ram:80006f08    110000eb        bl          FUN_80006f54                            ;undefined FUN_80006f54()
ram:80006f0c    040050e3        cmp         r0,#0x4                                 
ram:80006f10    0600001a        bne         LAB_80006f30                            
ram:80006f14    0630a0e1        mov         r3,r6                                   
ram:80006f18    0820a0e1        mov         r2,r8                                   
ram:80006f1c    0010a0e3        mov         r1,#0x0                                 
ram:80006f20    0700a0e1        mov         r0,r7                                   
ram:80006f24    0a0000eb        bl          FUN_80006f54                            ;undefined FUN_80006f54()
ram:80006f28    060050e1        cmp         r0,r6                                   
ram:80006f2c    0000000a        beq         LAB_80006f34                            
                            LAB_80006f30:                 ;XREF[1,0]:   80006f10
ram:80006f30    0050e0e3        mvn         r5,#0x0                                 
                            LAB_80006f34:                 ;XREF[1,0]:   80006f2c
ram:80006f34    000094e5        ldr         r0,[r4,#0x0]=>DAT_01c05008              
ram:80006f38    b000c0e3        bic         r0,r0,#0xb0                             
ram:80006f3c    800080e3        orr         r0,r0,#0x80                             
ram:80006f40    000084e5        str         r0,[r4,#0x0]=>DAT_01c05008              
ram:80006f44    0500a0e1        mov         r0,r5                                   
ram:80006f48    f800bde8        ldmia       sp!,{r3 r4 r5 r6 r7}=>local_20          
ram:80006f4c    0083bde8        ldmia       sp!,{r8 r9 pc}                          
                            DAT_80006f50:                 ;XREF[1,0]:   80006ed4
ram:80006f50    0050c001        undefined4  01C05000h                               
                            ;************************************************************************************************
                            ;*                                           FUNCTION                                           *
                            ;************************************************************************************************
                            ;undefined FUN_80006f54()
          ;local_24      undefined4         -24                      ;XREF[1,0]:   80007050
          ;local_28      undefined4         -28                      ;XREF[2,0]:   80006f68,80007048
          ;local_38      undefined4         -38                      ;XREF[2,0]:   80006f98,80006fa0
          ;local_40      undefined4         -40                      ;XREF[2,0]:   80006f80,80006fb8
                                                          ;XREF[14,0]:  80002c70,80002cfc,80002d18,80002dd4
                                                          ;             80002df0,800064b8,800064d4,80006570
                                                          ;             80006638,80006654,80006710,8000672c
                                                          ;             80006f08,80006f24
ram:80006f54    004f2de9        stmdb       sp!,{r8 r9 r10 r11 lr}                  
ram:80006f58    f8002de9        stmdb       sp!,{r3 r4 r5 r6 r7}                    
ram:80006f5c    07002de9        stmdb       sp!,{r0 r1 r2}                          
ram:80006f60    0cd04de2        sub         sp,sp,#0xc                              
ram:80006f64    ec309fe5        ldr         r3,[DAT_80007058]                       ;= 01C05000h
ram:80006f68    18809de5        ldr         r8,[sp,#local_28+0x40]                  
ram:80006f6c    00b683e0        add         r11,r3,r0, lsl #0xc                     
ram:80006f70    000058e3        cmp         r8,#0x0                                 
ram:80006f74    330000da        ble         LAB_80007048                            
ram:80006f78    34409be2        adds        r4,r11,#0x34                            
ram:80006f7c    30c09be2        adds        r12,r11,#0x30                           
ram:80006f80    00408de5        str         r4,[sp,#0x0]=>local_40                  
ram:80006f84    38e09be2        adds        lr,r11,#0x38                            
ram:80006f88    1c509be2        adds        r5,r11,#0x1c                            
ram:80006f8c    034c9be2        adds        r4,r11,#0x300                           
ram:80006f90    08a09be2        adds        r10,r11,#0x8                            
ram:80006f94    0b00a0e1        mov         r0,r11                                  
ram:80006f98    08c08de5        str         r12,[sp,#local_38+0x40]                 
                            LAB_80006f9c:                 ;XREF[1,0]:   80007044
ram:80006f9c    400058e3        cmp         r8,#0x40                                
ram:80006fa0    08309de5        ldr         r3,[sp,#local_38+0x40]                  
ram:80006fa4    0800a0d1        movle       r0,r8                                   
ram:80006fa8    4000a0c3        movgt       r0,#0x40                                
ram:80006fac    000083e5        str         r0,[r3,#0x0]                            
ram:80006fb0    0130b0e1        movs        r3,r1                                   
ram:80006fb4    00c0a0e1        mov         r12,r0                                  
ram:80006fb8    00609de5        ldr         r6,[sp,#0x0]=>local_40                  
ram:80006fbc    00c0a003        moveq       r12,#0x0                                
ram:80006fc0    ff74cce3        bic         r7,r12,#0xff000000                      
ram:80006fc4    007086e5        str         r7,[r6,#0x0]                            
ram:80006fc8    ff64cce3        bic         r6,r12,#0xff000000                      
ram:80006fcc    00608ee5        str         r6,[lr,#0x0]                            
ram:80006fd0    00005ce3        cmp         r12,#0x0                                
ram:80006fd4    0070a0e3        mov         r7,#0x0                                 
ram:80006fd8    050000da        ble         LAB_80006ff4                            
ram:80006fdc    026c9be2        adds        r6,r11,#0x200                           
                            LAB_80006fe0:                 ;XREF[1,0]:   80006ff0
ram:80006fe0    0190d3e4        ldrb        r9,[r3],#0x1                            
ram:80006fe4    017087e2        add         r7,r7,#0x1                              
ram:80006fe8    0c0057e1        cmp         r7,r12                                  
ram:80006fec    0090c6e5        strb        r9,[r6,#0x0]                            
ram:80006ff0    faffffba        blt         LAB_80006fe0                            
                            LAB_80006ff4:                 ;XREF[1,0]:   80006fd8
ram:80006ff4    00309ae5        ldr         r3,[r10,#0x0]=>DAT_01c05008             
ram:80006ff8    023183e3        orr         r3,r3,#0x80000000                       
ram:80006ffc    00308ae5        str         r3,[r10,#0x0]=>DAT_01c05008             
                            LAB_80007000:                 ;XREF[1,0]:   8000700c
ram:80007000    003095e5        ldr         r3,[r5,#0x0]                            
ram:80007004    ff3003e2        and         r3,r3,#0xff                             
ram:80007008    000053e1        cmp         r3,r0                                   
ram:8000700c    fbffff3a        bcc         LAB_80007000                            
ram:80007010    000050e3        cmp         r0,#0x0                                 
ram:80007014    0030a0e3        mov         r3,#0x0                                 
ram:80007018    050000da        ble         LAB_80007034                            
                            LAB_8000701c:                 ;XREF[1,0]:   80007030
ram:8000701c    00c0d4e5        ldrb        r12,[r4,#0x0]                           
ram:80007020    000052e3        cmp         r2,#0x0                                 
ram:80007024    013083e2        add         r3,r3,#0x1                              
ram:80007028    01c0c214        strbne      r12,[r2],#0x1                           
ram:8000702c    000053e1        cmp         r3,r0                                   
ram:80007030    f9ffffba        blt         LAB_8000701c                            
                            LAB_80007034:                 ;XREF[1,0]:   80007018
ram:80007034    000051e3        cmp         r1,#0x0                                 
ram:80007038    00108110        addne       r1,r1,r0                                
ram:8000703c    008048e0        sub         r8,r8,r0                                
ram:80007040    000058e3        cmp         r8,#0x0                                 
ram:80007044    d4ffffca        bgt         LAB_80006f9c                            
                            LAB_80007048:                 ;XREF[1,0]:   80006f74
ram:80007048    18009de5        ldr         r0,[sp,#local_28+0x40]                  
ram:8000704c    1cd08de2        add         sp,sp,#0x1c                             
ram:80007050    f001bde8        ldmia       sp!,{r4 r5 r6 r7 r8}=>local_24          
ram:80007054    008ebde8        ldmia       sp!,{r9 r10 r11 pc}                     
                            DAT_80007058:                 ;XREF[1,0]:   80006f64
ram:80007058    0050c001        undefined4  01C05000h                               
                            ;************************************************************************************************
                            ;*                                           FUNCTION                                           *
                            ;************************************************************************************************
                            ;undefined FUN_8000705c()
          ;local_10      undefined4         -10                      ;XREF[5,0]:   8000706c,80007084,8000709c,800070b4,80007504
          ;local_20      undefined4         -20                      ;XREF[1,0]:   800070cc
          ;local_34      undefined4         -34                      ;XREF[1,0]:   800070c8
          ;local_3c      undefined4         -3c                      ;XREF[3,0]:   80007144,80007178,80007400
          ;local_40      undefined4         -40                      ;XREF[4,0]:   80007140,80007154,8000745c,800074d0
          ;local_68      undefined1         -68                      ;XREF[3,0]:   800071b0,80007438,800074b0
                                                          ;XREF[44,0]:  80000aec,80001810,8000181c,80001828
                                                          ;             8000183c,80001d90,80001df4,80001e0c
                                                          ;             80001ed0,8000201c,800021f8,80002204
                                                          ;             80002230,80002248,800023d0,800023dc
                                                          ;             80002404,8000241c,80002e6c,80002ed8
                                                          ;             80002f9c,80002fb8,8000305c,80003078
                                                          ;             80003114,80003824,80004000,800040d8
                                                          ;             80005270,8000527c,80005a3c,80005ab0
                                                          ;             80005b00,80005ba4,80005cb0,80005f2c
                                                          ;             8000686c,80006930,80006984,80006a48
                                                          ;             80006a54,80006a8c,80006a98,80006adc
ram:8000705c    0f002de9        stmdb       sp!,{r0 r1 r2 r3}=>s_SD_info->sectorS...;= "SD_info->sectorSize=[%d]\r\n"
ram:80007060    004f2de9        stmdb       sp!,{r8 r9 r10 r11 lr}                  
ram:80007064    f0002de9        stmdb       sp!,{r4 r5 r6 r7}                       
ram:80007068    34d04de2        sub         sp,sp,#0x34                             
ram:8000706c    58009de5        ldr         r0,[sp,#local_10+0x68]                  
ram:80007070    5ca08de2        add         r10,sp,#0x5c                            
ram:80007074    0000d0e5        ldrb        r0,[r0,#0x0]=>s_SD_info->sectorSize=[...;= "SD_info->sectorSize=[%d]\r\n"
ram:80007078    000050e3        cmp         r0,#0x0                                 
ram:8000707c    2cb0a013        movne       r11,#0x2c                               
ram:80007080    0f00000a        beq         LAB_800070c4                            
                            LAB_80007084:                 ;XREF[1,0]:   800070c0
ram:80007084    58109de5        ldr         r1,[sp,#local_10+0x68]                  
                                                          ; FWD[2,0]:   80001898,80001899
ram:80007088    0000d1e5        ldrb        r0,[r1,#0x0]=>s_SD_info->sectorSize=[...;= "SD_info->sectorSize=[%d]\r\n"
                                                                                    ;= "D_info->sectorSize=[%d]\r\n"
ram:8000708c    250050e3        cmp         r0,#0x25                                
ram:80007090    0f00000a        beq         LAB_800070d4                            
ram:80007094    70349fe5        ldr         r3=>DAT_01c25000,[DAT_8000750c]         ;= 01C25000h
ram:80007098    011081e2        add         r1,r1,#0x1                              
ram:8000709c    58108de5        str         r1=>s_D_info->se...,[sp,#local_10+0x68] ;= "D_info->sectorSize=[%d]\r\n"
ram:800070a0    7c1083e2        add         r1,r3,#0x7c                             
                            LAB_800070a4:                 ;XREF[1,0]:   800070ac
ram:800070a4    002091e5        ldr         r2,[r1,#0x0]=>DAT_01c2507c              
ram:800070a8    020012e3        tst         r2,#0x2                                 
ram:800070ac    fcffff0a        beq         LAB_800070a4                            
ram:800070b0    000083e5        str         r0,[r3,#0x0]=>DAT_01c25000              
                            LAB_800070b4:                 ;XREF[1,0]:   80007508
ram:800070b4    58009de5        ldr         r0,[sp,#local_10+0x68]                  
                                                          ; FWD[2,0]:   80001899,8000189b
ram:800070b8    0000d0e5        ldrb        r0,[r0,#0x0]=>s_D_info->sectorSize=[%...;= "D_info->sectorSize=[%d]\r\n"
                                                                                    ;= "info->sectorSize=[%d]\r\n"
ram:800070bc    000050e3        cmp         r0,#0x0                                 
ram:800070c0    efffff1a        bne         LAB_80007084                            
                            LAB_800070c4:                 ;XREF[1,0]:   80007080
ram:800070c4    34d08de2        add         sp,sp,#0x34                             
ram:800070c8    f001bde8        ldmia       sp!,{r4 r5 r6 r7 r8}=>local_34          
ram:800070cc    000ebde8        ldmia       sp!,{r9 r10 r11}=>local_20              
ram:800070d0    14f09de4        ldr         pc,[sp],#0x14                           
                            LAB_800070d4:                 ;XREF[1,0]:   80007090
ram:800070d4    0100f1e5        ldrb        r0,[r1,#0x1]!=>s_D_info->sectorSize=[...;= "D_info->sectorSize=[%d]\r\n"
ram:800070d8    0050a0e3        mov         r5,#0x0                                 
ram:800070dc    2080a0e3        mov         r8,#0x20                                
ram:800070e0    300050e3        cmp         r0,#0x30                                
ram:800070e4    04909ae4        ldr         r9,[r10],#0x4                           
ram:800070e8    3080a003        moveq       r8,#0x30                                
ram:800070ec    000050e3        cmp         r0,#0x0                                 
ram:800070f0    0540a0e1        mov         r4,r5                                   
ram:800070f4    0560a0e1        mov         r6,r5                                   
ram:800070f8    017081e2        add         r7,r1,#0x1                              
ram:800070fc    0a00000a        beq         LAB_8000712c                            
                            LAB_80007100:                 ;XREF[1,0]:   80007120
ram:80007100    301040e2        sub         r1,r0,#0x30                             
ram:80007104    090051e3        cmp         r1,#0x9                                 
ram:80007108    3e00008a        bhi         LAB_80007208                            
ram:8000710c    051185e0        add         r1,r5,r5, lsl #0x2                      
ram:80007110    810080e0        add         r0,r0,r1, lsl #0x1                      
ram:80007114    305040e2        sub         r5,r0,#0x30                             
                            LAB_80007118:                 ;XREF[1,0]:   8000721c
ram:80007118    0100d7e4        ldrb        r0,[r7],#0x1=>s__info->sectorSize=[%d...;= "_info->sectorSize=[%d]\r\n"
ram:8000711c    000050e3        cmp         r0,#0x0                                 
ram:80007120    f6ffff1a        bne         LAB_80007100                            
                            LAB_80007124:                 ;XREF[5,0]:   8000726c,8000727c,8000728c,800073f4
                                                          ;             800073fc
ram:80007124    000054e3        cmp         r4,#0x0                                 
ram:80007128    00506512        rsbne       r5,r5,#0x0                              
                            LAB_8000712c:                 ;XREF[1,0]:   800070fc
ram:8000712c    000058e3        cmp         r8,#0x0                                 
ram:80007130    0040a0e3        mov         r4,#0x0                                 
ram:80007134    2080a003        moveq       r8,#0x20                                
ram:80007138    000055e3        cmp         r5,#0x0                                 
ram:8000713c    0900a0e1        mov         r0,r9                                   
ram:80007140    28408de5        str         r4,[sp,#local_40+0x68]                  
ram:80007144    2c408de5        str         r4,[sp,#local_3c+0x68]                  
ram:80007148    020000aa        bge         LAB_80007158                            
ram:8000714c    0110a0e3        mov         r1,#0x1                                 
ram:80007150    005065e2        rsb         r5,r5,#0x0                              
ram:80007154    28108de5        str         r1,[sp,#local_40+0x68]                  
                            LAB_80007158:                 ;XREF[1,0]:   80007148
ram:80007158    510055e3        cmp         r5,#0x51                                
ram:8000715c    0050a023        movcs       r5,#0x0                                 
ram:80007160    000056e3        cmp         r6,#0x0                                 
ram:80007164    006066b2        rsblt       r6,r6,#0x0                              
ram:80007168    000050b3        cmplt       r0,#0x0                                 
ram:8000716c    020000aa        bge         LAB_8000717c                            
ram:80007170    0110a0e3        mov         r1,#0x1                                 
ram:80007174    000060e2        rsb         r0,r0,#0x0                              
ram:80007178    2c108de5        str         r1,[sp,#local_3c+0x68]                  
                            LAB_8000717c:                 ;XREF[1,0]:   8000716c
ram:8000717c    0d90a0e1        mov         r9,sp                                   
                            LAB_80007180:                 ;XREF[3,0]:   800071c4,800071f8,80007204
ram:80007180    100056e3        cmp         r6,#0x10                                
ram:80007184    0f100002        andeq       r1,r0,#0xf                              
ram:80007188    2002a001        moveq       r0,r0, lsr #0x4                         
ram:8000718c    0300000a        beq         LAB_800071a0                            
ram:80007190    0610a0e1        mov         r1,r6                                   
ram:80007194    e3e5ffeb        bl          FUN_80000928                            ;undefined FUN_80000928()
ram:80007198    0118a0e1        mov         r1,r1, lsl #0x10                        
ram:8000719c    2118a0e1        mov         r1,r1, lsr #0x10                        
                            LAB_800071a0:                 ;XREF[1,0]:   8000718c
ram:800071a0    090051e3        cmp         r1,#0x9                                 
ram:800071a4    3020a093        movls       r2,#0x30                                
ram:800071a8    3720a083        movhi       r2,#0x37                                
ram:800071ac    021081e0        add         r1,r1,r2                                
ram:800071b0    0410c9e7        strb        r1,[r9,r4]=>local_68                    
ram:800071b4    000050e3        cmp         r0,#0x0                                 
ram:800071b8    014084e2        add         r4,r4,#0x1                              
ram:800071bc    8f00000a        beq         LAB_80007400                            
ram:800071c0    0a0056e3        cmp         r6,#0xa                                 
ram:800071c4    edffff1a        bne         LAB_80007180                            
ram:800071c8    030054e3        cmp         r4,#0x3                                 
ram:800071cc    07005413        cmpne       r4,#0x7                                 
ram:800071d0    0900000a        beq         LAB_800071fc                            
ram:800071d4    0b0054e3        cmp         r4,#0xb                                 
ram:800071d8    0110a003        moveq       r1,#0x1                                 
ram:800071dc    0300000a        beq         LAB_800071f0                            
ram:800071e0    0f0054e3        cmp         r4,#0xf                                 
ram:800071e4    0010a0e3        mov         r1,#0x0                                 
ram:800071e8    0120a003        moveq       r2,#0x1                                 
ram:800071ec    0000000a        beq         LAB_800071f4                            
                            LAB_800071f0:                 ;XREF[1,0]:   800071dc
ram:800071f0    0020a0e3        mov         r2,#0x0                                 
                            LAB_800071f4:                 ;XREF[1,0]:   800071ec
ram:800071f4    021091e1        orrs        r1,r1,r2                                
ram:800071f8    e0ffff0a        beq         LAB_80007180                            
                            LAB_800071fc:                 ;XREF[1,0]:   800071d0
ram:800071fc    04b0c9e7        strb        r11,[r9,r4]                             
ram:80007200    014084e2        add         r4,r4,#0x1                              
ram:80007204    ddffffea        b           LAB_80007180                            
                            LAB_80007208:                 ;XREF[1,0]:   80007108
ram:80007208    640050e3        cmp         r0,#0x64                                
ram:8000720c    7700000a        beq         LAB_800073f0                            
ram:80007210    0e0000ca        bgt         LAB_80007250                            
ram:80007214    2d0050e3        cmp         r0,#0x2d                                
ram:80007218    0140a003        moveq       r4,#0x1                                 
ram:8000721c    bdffff0a        beq         LAB_80007118                            
ram:80007220    050000ca        bgt         LAB_8000723c                            
ram:80007224    000050e3        cmp         r0,#0x0                                 
ram:80007228    01704702        subeq       r7,r7,#0x1                              
ram:8000722c    b400000a        beq         LAB_80007504                            
ram:80007230    250050e3        cmp         r0,#0x25                                
ram:80007234    1500000a        beq         LAB_80007290                            
ram:80007238    120000ea        b           LAB_80007288                            
                            LAB_8000723c:                 ;XREF[1,0]:   80007220
ram:8000723c    580050e3        cmp         r0,#0x58                                
ram:80007240    6c00000a        beq         LAB_800073f8                            
ram:80007244    630050e3        cmp         r0,#0x63                                
ram:80007248    1700000a        beq         LAB_800072ac                            
ram:8000724c    0d0000ea        b           LAB_80007288                            
                            LAB_80007250:                 ;XREF[1,0]:   80007210
ram:80007250    730050e3        cmp         r0,#0x73                                
ram:80007254    3400000a        beq         LAB_8000732c                            
ram:80007258    050000ca        bgt         LAB_80007274                            
ram:8000725c    690050e3        cmp         r0,#0x69                                
ram:80007260    6200000a        beq         LAB_800073f0                            
ram:80007264    6f0050e3        cmp         r0,#0x6f                                
ram:80007268    0860a003        moveq       r6,#0x8                                 
ram:8000726c    acffff0a        beq         LAB_80007124                            
ram:80007270    040000ea        b           LAB_80007288                            
                            LAB_80007274:                 ;XREF[1,0]:   80007258
ram:80007274    750050e3        cmp         r0,#0x75                                
ram:80007278    0a60a003        moveq       r6,#0xa                                 
ram:8000727c    a8ffff0a        beq         LAB_80007124                            
ram:80007280    780050e3        cmp         r0,#0x78                                
ram:80007284    5b00000a        beq         LAB_800073f8                            
                            LAB_80007288:                 ;XREF[3,0]:   80007238,8000724c,80007270
ram:80007288    0360a0e3        mov         r6,#0x3                                 
ram:8000728c    a4ffffea        b           LAB_80007124                            
                            LAB_80007290:                 ;XREF[1,0]:   80007234
ram:80007290    74329fe5        ldr         r3,[DAT_8000750c]                       ;= 01C25000h
ram:80007294    2520a0e3        mov         r2,#0x25                                
ram:80007298    7c0083e2        add         r0,r3,#0x7c                             
                            LAB_8000729c:                 ;XREF[1,0]:   800072a4
ram:8000729c    001090e5        ldr         r1,[r0,#0x0]=>DAT_01c2507c              
ram:800072a0    020011e3        tst         r1,#0x2                                 
ram:800072a4    fcffff0a        beq         LAB_8000729c                            
ram:800072a8    1d0000ea        b           LAB_80007324                            
                            LAB_800072ac:                 ;XREF[1,0]:   80007248
ram:800072ac    000054e3        cmp         r4,#0x0                                 
ram:800072b0    0600000a        beq         LAB_800072d0                            
ram:800072b4    50329fe5        ldr         r3,[DAT_8000750c]                       ;= 01C25000h
ram:800072b8    7f2009e2        and         r2,r9,#0x7f                             
ram:800072bc    7c0083e2        add         r0,r3,#0x7c                             
                            LAB_800072c0:                 ;XREF[1,0]:   800072c8
ram:800072c0    001090e5        ldr         r1,[r0,#0x0]=>DAT_01c2507c              
ram:800072c4    020011e3        tst         r1,#0x2                                 
ram:800072c8    fcffff0a        beq         LAB_800072c0                            
ram:800072cc    002083e5        str         r2,[r3,#0x0]=>DAT_01c25000              
                            LAB_800072d0:                 ;XREF[1,0]:   800072b0
ram:800072d0    000055e3        cmp         r5,#0x0                                 
ram:800072d4    0a0000da        ble         LAB_80007304                            
ram:800072d8    022045e2        sub         r2,r5,#0x2                              
ram:800072dc    010072e3        cmn         r2,#0x1                                 
ram:800072e0    28129f15        ldrne       r1,[DAT_80007510]                       ;= 01C2507Ch
ram:800072e4    7c304112        subne       r3,r1,#0x7c                             
ram:800072e8    0500000a        beq         LAB_80007304                            
                            LAB_800072ec:                 ;XREF[2,0]:   800072f4,80007300
ram:800072ec    000091e5        ldr         r0,[r1,#0x0]=>DAT_01c2507c              
ram:800072f0    020010e3        tst         r0,#0x2                                 
ram:800072f4    fcffff0a        beq         LAB_800072ec                            
ram:800072f8    008083e5        str         r8,[r3,#0x0]=>DAT_01c25000              
ram:800072fc    012052e2        subs        r2,r2,#0x1                              
ram:80007300    f9ffff2a        bcs         LAB_800072ec                            
                            LAB_80007304:                 ;XREF[2,0]:   800072d4,800072e8
ram:80007304    000054e3        cmp         r4,#0x0                                 
ram:80007308    7d00001a        bne         LAB_80007504                            
ram:8000730c    f8319fe5        ldr         r3,[DAT_8000750c]                       ;= 01C25000h
ram:80007310    7f2009e2        and         r2,r9,#0x7f                             
ram:80007314    7c0083e2        add         r0,r3,#0x7c                             
                            LAB_80007318:                 ;XREF[1,0]:   80007320
ram:80007318    001090e5        ldr         r1,[r0,#0x0]=>DAT_01c2507c              
ram:8000731c    020011e3        tst         r1,#0x2                                 
ram:80007320    fcffff0a        beq         LAB_80007318                            
                            LAB_80007324:                 ;XREF[1,0]:   800072a8
ram:80007324    002083e5        str         r2,[r3,#0x0]=>DAT_01c25000              
ram:80007328    750000ea        b           LAB_80007504                            
                            LAB_8000732c:                 ;XREF[1,0]:   80007254
ram:8000732c    000054e3        cmp         r4,#0x0                                 
ram:80007330    0d00000a        beq         LAB_8000736c                            
ram:80007334    0010d9e5        ldrb        r1,[r9,#0x0]                            
ram:80007338    0900a0e1        mov         r0,r9                                   
ram:8000733c    000051e3        cmp         r1,#0x0                                 
ram:80007340    c8c19f15        ldrne       r12,[DAT_80007510]                      ;= 01C2507Ch
ram:80007344    7c304c12        subne       r3,r12,#0x7c                            
ram:80007348    0700000a        beq         LAB_8000736c                            
                            LAB_8000734c:                 ;XREF[1,0]:   80007368
ram:8000734c    ff2001e2        and         r2,r1,#0xff                             
                            LAB_80007350:                 ;XREF[1,0]:   80007358
ram:80007350    00109ce5        ldr         r1,[r12,#0x0]                           
ram:80007354    020011e3        tst         r1,#0x2                                 
ram:80007358    fcffff0a        beq         LAB_80007350                            
ram:8000735c    002083e5        str         r2,[r3,#0x0]                            
ram:80007360    0110f0e5        ldrb        r1,[r0,#0x1]!                           
ram:80007364    000051e3        cmp         r1,#0x0                                 
ram:80007368    f7ffff1a        bne         LAB_8000734c                            
                            LAB_8000736c:                 ;XREF[2,0]:   80007330,80007348
ram:8000736c    0900a0e1        mov         r0,r9                                   
ram:80007370    d5e3fffa        blx         FUN_800002cc                            ;undefined FUN_800002cc()
ram:80007374    050050e1        cmp         r0,r5                                   
ram:80007378    0c00002a        bcs         LAB_800073b0                            
ram:8000737c    0900a0e1        mov         r0,r9                                   
ram:80007380    d1e3fffa        blx         FUN_800002cc                            ;undefined FUN_800002cc()
ram:80007384    000045e0        sub         r0,r5,r0                                
ram:80007388    012050e2        subs        r2,r0,#0x1                              
ram:8000738c    7c119f25        ldrcs       r1,[DAT_80007510]                       ;= 01C2507Ch
ram:80007390    7c304122        subcs       r3,r1,#0x7c                             
ram:80007394    0500003a        bcc         LAB_800073b0                            
                            LAB_80007398:                 ;XREF[2,0]:   800073a0,800073ac
ram:80007398    000091e5        ldr         r0,[r1,#0x0]                            
ram:8000739c    020010e3        tst         r0,#0x2                                 
ram:800073a0    fcffff0a        beq         LAB_80007398                            
ram:800073a4    008083e5        str         r8,[r3,#0x0]                            
ram:800073a8    012052e2        subs        r2,r2,#0x1                              
ram:800073ac    f9ffff2a        bcs         LAB_80007398                            
                            LAB_800073b0:                 ;XREF[2,0]:   80007378,80007394
ram:800073b0    000054e3        cmp         r4,#0x0                                 
ram:800073b4    5200001a        bne         LAB_80007504                            
ram:800073b8    0000d9e5        ldrb        r0,[r9,#0x0]                            
ram:800073bc    000050e3        cmp         r0,#0x0                                 
ram:800073c0    48119f15        ldrne       r1,[DAT_80007510]                       ;= 01C2507Ch
ram:800073c4    7c304112        subne       r3,r1,#0x7c                             
ram:800073c8    4d00000a        beq         LAB_80007504                            
                            LAB_800073cc:                 ;XREF[1,0]:   800073e8
ram:800073cc    ff2000e2        and         r2,r0,#0xff                             
                            LAB_800073d0:                 ;XREF[1,0]:   800073d8
ram:800073d0    000091e5        ldr         r0,[r1,#0x0]                            
ram:800073d4    020010e3        tst         r0,#0x2                                 
ram:800073d8    fcffff0a        beq         LAB_800073d0                            
ram:800073dc    002083e5        str         r2,[r3,#0x0]                            
ram:800073e0    0100f9e5        ldrb        r0,[r9,#0x1]!                           
ram:800073e4    000050e3        cmp         r0,#0x0                                 
ram:800073e8    f7ffff1a        bne         LAB_800073cc                            
ram:800073ec    440000ea        b           LAB_80007504                            
                            LAB_800073f0:                 ;XREF[2,0]:   8000720c,80007260
ram:800073f0    0960e0e3        mvn         r6,#0x9                                 
ram:800073f4    4affffea        b           LAB_80007124                            
                            LAB_800073f8:                 ;XREF[2,0]:   80007240,80007284
ram:800073f8    1060a0e3        mov         r6,#0x10                                
ram:800073fc    48ffffea        b           LAB_80007124                            
                            LAB_80007400:                 ;XREF[1,0]:   800071bc
ram:80007400    2c009de5        ldr         r0,[sp,#local_3c+0x68]                  
ram:80007404    000050e3        cmp         r0,#0x0                                 
ram:80007408    0200000a        beq         LAB_80007418                            
ram:8000740c    2d00a0e3        mov         r0,#0x2d                                
ram:80007410    0400c9e7        strb        r0,[r9,r4]                              
ram:80007414    014084e2        add         r4,r4,#0x1                              
                            LAB_80007418:                 ;XREF[1,0]:   80007408
ram:80007418    040055e1        cmp         r5,r4                                   
ram:8000741c    0e0000ca        bgt         LAB_8000745c                            
ram:80007420    000054e3        cmp         r4,#0x0                                 
ram:80007424    e4009fc5        ldrgt       r0,[DAT_80007510]                       ;= 01C2507Ch
ram:80007428    0d50a0e1        mov         r5,sp                                   
ram:8000742c    012044e2        sub         r2,r4,#0x1                              
ram:80007430    7cc040c2        subgt       r12,r0,#0x7c                            
ram:80007434    320000da        ble         LAB_80007504                            
                            LAB_80007438:                 ;XREF[1,0]:   80007454
ram:80007438    0230d5e7        ldrb        r3,[r5,r2]=>local_68                    
                            LAB_8000743c:                 ;XREF[1,0]:   80007444
ram:8000743c    001090e5        ldr         r1,[r0,#0x0]=>DAT_01c2507c              
ram:80007440    020011e3        tst         r1,#0x2                                 
ram:80007444    fcffff0a        beq         LAB_8000743c                            
ram:80007448    00308ce5        str         r3,[r12,#0x0]=>DAT_01c25000             
ram:8000744c    000052e3        cmp         r2,#0x0                                 
ram:80007450    012042e2        sub         r2,r2,#0x1                              
ram:80007454    f7ffffca        bgt         LAB_80007438                            
ram:80007458    290000ea        b           LAB_80007504                            
                            LAB_8000745c:                 ;XREF[1,0]:   8000741c
ram:8000745c    28009de5        ldr         r0,[sp,#local_40+0x68]                  
ram:80007460    045045e0        sub         r5,r5,r4                                
ram:80007464    000050e3        cmp         r0,#0x0                                 
ram:80007468    0a00001a        bne         LAB_80007498                            
ram:8000746c    013055e2        subs        r3,r5,#0x1                              
ram:80007470    98c09f25        ldrcs       r12,[DAT_80007510]                      ;= 01C2507Ch
ram:80007474    0810a0e1        mov         r1,r8                                   
ram:80007478    7c204c22        subcs       r2,r12,#0x7c                            
ram:8000747c    0500003a        bcc         LAB_80007498                            
                            LAB_80007480:                 ;XREF[2,0]:   80007488,80007494
ram:80007480    00009ce5        ldr         r0,[r12,#0x0]=>DAT_01c2507c             
ram:80007484    020010e3        tst         r0,#0x2                                 
ram:80007488    fcffff0a        beq         LAB_80007480                            
ram:8000748c    001082e5        str         r1,[r2,#0x0]=>DAT_01c25000              
ram:80007490    013053e2        subs        r3,r3,#0x1                              
ram:80007494    f9ffff2a        bcs         LAB_80007480                            
                            LAB_80007498:                 ;XREF[2,0]:   80007468,8000747c
ram:80007498    000054e3        cmp         r4,#0x0                                 
ram:8000749c    6cc09fc5        ldrgt       r12,[DAT_80007510]                      ;= 01C2507Ch
ram:800074a0    0d60a0e1        mov         r6,sp                                   
ram:800074a4    010044e2        sub         r0,r4,#0x1                              
ram:800074a8    7c304cc2        subgt       r3,r12,#0x7c                            
ram:800074ac    070000da        ble         LAB_800074d0                            
                            LAB_800074b0:                 ;XREF[1,0]:   800074cc
ram:800074b0    0020d6e7        ldrb        r2,[r6,r0]=>local_68                    
                            LAB_800074b4:                 ;XREF[1,0]:   800074bc
ram:800074b4    00109ce5        ldr         r1,[r12,#0x0]=>DAT_01c2507c             
ram:800074b8    020011e3        tst         r1,#0x2                                 
ram:800074bc    fcffff0a        beq         LAB_800074b4                            
ram:800074c0    002083e5        str         r2,[r3,#0x0]=>DAT_01c25000              
ram:800074c4    000050e3        cmp         r0,#0x0                                 
ram:800074c8    010040e2        sub         r0,r0,#0x1                              
ram:800074cc    f7ffffca        bgt         LAB_800074b0                            
                            LAB_800074d0:                 ;XREF[1,0]:   800074ac
ram:800074d0    28009de5        ldr         r0,[sp,#local_40+0x68]                  
ram:800074d4    000050e3        cmp         r0,#0x0                                 
ram:800074d8    0900000a        beq         LAB_80007504                            
ram:800074dc    013055e2        subs        r3,r5,#0x1                              
ram:800074e0    28109f25        ldrcs       r1,[DAT_80007510]                       ;= 01C2507Ch
ram:800074e4    7c204122        subcs       r2,r1,#0x7c                             
ram:800074e8    0500003a        bcc         LAB_80007504                            
                            LAB_800074ec:                 ;XREF[2,0]:   800074f4,80007500
ram:800074ec    000091e5        ldr         r0,[r1,#0x0]=>DAT_01c2507c              
ram:800074f0    020010e3        tst         r0,#0x2                                 
ram:800074f4    fcffff0a        beq         LAB_800074ec                            
ram:800074f8    008082e5        str         r8,[r2,#0x0]=>DAT_01c25000              
ram:800074fc    013053e2        subs        r3,r3,#0x1                              
ram:80007500    f9ffff2a        bcs         LAB_800074ec                            
                            LAB_80007504:                 ;XREF[10,0]:  8000722c,80007308,80007328,800073b4
                                                          ;             800073c8,800073ec,80007434,80007458
                                                          ;             800074d8,800074e8
                                                          ; FWD[4,0]:   Stack[-0x10],80001899,8000189a
                                                          ;             8000189b
ram:80007504    58708de5        str         r7=>s_info->sect...,[sp,#local_10+0x68] ;= "D_info->sectorSize=[%d]\r\n"
                                                                                    ;= "info->sectorSize=[%d]\r\n"
                                                                                    ;= "_info->sectorSize=[%d]\r\n"
ram:80007508    e9feffea        b           LAB_800070b4                            
                            DAT_8000750c:                 ;XREF[4,0]:   80007094,80007290,800072b4,8000730c
ram:8000750c    0050c201        undefined4  01C25000h                               
                            DAT_80007510:                 ;XREF[8,0]:   800072e0,80007340,8000738c,800073c0
                                                          ;             80007424,80007470,8000749c,800074e0
ram:80007510    7c50c201        undefined4  01C2507Ch                               
                            ;************************************************************************************************
                            ;*                                           FUNCTION                                           *
                            ;************************************************************************************************
                            ;undefined FUN_80007514()
                                                          ;XREF[3,0]:   80004140,80004584,800048fc
ram:80007514    70402de9        stmdb       sp!,{r4 r5 r6 lr}                       
ram:80007518    0040b0e1        movs        r4,r0                                   
ram:8000751c    00009415        ldrne       r0,[r4,#0x0]                            
ram:80007520    0160a0e1        mov         r6,r1                                   
ram:80007524    00005013        cmpne       r0,#0x0                                 
ram:80007528    0010d015        ldrbne      r1,[r0,#0x0]                            
ram:8000752c    0950a0e3        mov         r5,#0x9                                 
ram:80007530    00005113        cmpne       r1,#0x0                                 
ram:80007534    0900000a        beq         LAB_80007560                            
ram:80007538    b410d4e1        ldrh        r1,[r4,#0x4]                            
ram:8000753c    b620d0e1        ldrh        r2,[r0,#0x6]                            
ram:80007540    020051e1        cmp         r1,r2                                   
ram:80007544    0500001a        bne         LAB_80007560                            
ram:80007548    0100d0e5        ldrb        r0,[r0,#0x1]                            
ram:8000754c    bcf2ffeb        bl          FUN_80004044                            ;undefined FUN_80004044()
ram:80007550    010010e3        tst         r0,#0x1                                 
ram:80007554    00009405        ldreq       r0,[r4,#0x0]                            
ram:80007558    0050a003        moveq       r5,#0x0                                 
ram:8000755c    0000000a        beq         LAB_80007564                            
                            LAB_80007560:                 ;XREF[2,0]:   80007534,80007544
ram:80007560    0000a0e3        mov         r0,#0x0                                 
                            LAB_80007564:                 ;XREF[1,0]:   8000755c
ram:80007564    000086e5        str         r0,[r6,#0x0]                            
ram:80007568    0500a0e1        mov         r0,r5                                   
ram:8000756c    7080bde8        ldmia       sp!,{r4 r5 r6 pc}                       
                            ;************************************************************************************************
                            ;*                                           FUNCTION                                           *
                            ;************************************************************************************************
                            ;undefined FUN_80007570()
                                                          ;XREF[9,0]:   800033dc,8000358c,800035d8,80003624
                                                          ;             80003670,800036bc,800036e8,80003714
                                                          ;             80003774
ram:80007570    002080e5        str         r2,[r0,#0x0]                            
ram:80007574    1eff2fe1        bx          lr                                      
                            ;************************************************************************************************
                            ;*                                           FUNCTION                                           *
                            ;************************************************************************************************
                            ;undefined FUN_80007578()
                                                          ;XREF[1,0]:   8000113c
ram:80007578    a01bb0e1        movs        r1,r0, lsr #0x17                        
ram:8000757c    9e2071e2        rsbs        r2,r1,#0x9e                             
ram:80007580    030000ba        blt         LAB_80007594                            
ram:80007584    0034a0e1        mov         r3,r0, lsl #0x8                         
ram:80007588    023183e3        orr         r3,r3,#0x80000000                       
ram:8000758c    3302a0e1        mov         r0,r3, lsr r2                           
ram:80007590    1eff2fe1        bx          lr                                      
                            LAB_80007594:                 ;XREF[1,0]:   80007580
ram:80007594    000010e1        tst         r0,r0                                   
ram:80007598    0400005a        bpl         LAB_800075b0                            
ram:8000759c    8010a0e1        mov         r1,r0, lsl #0x1                         
ram:800075a0    7f0451e3        cmp         r1,#0x7f000000                          
ram:800075a4    0100002a        bcs         LAB_800075b0                            
ram:800075a8    0000a0e3        mov         r0,#0x0                                 
ram:800075ac    1eff2fe1        bx          lr                                      
                            LAB_800075b0:                 ;XREF[2,0]:   80007598,800075a4
ram:800075b0    10402de9        stmdb       sp!,{r4 lr}                             
ram:800075b4    500000eb        bl          FUN_800076fc                            ;undefined FUN_800076fc(undefined par...
ram:800075b8    92              ??          92h                                     
ram:800075b9    24              ??          24h    $                                
ram:800075ba    49              ??          49h    I                                
ram:800075bb    80              ??          80h                                     
ram:800075bc    00              ??          00h                                     
ram:800075bd    00              ??          00h                                     
ram:800075be    a0              ??          A0h                                     
ram:800075bf    e3              ??          E3h                                     
ram:800075c0    1e              ??          1Eh                                     
ram:800075c1    ff              ??          FFh                                     
ram:800075c2    2f              ??          2Fh    /                                
ram:800075c3    e1              ??          E1h                                     
ram:800075c4    40              ??          40h    @                                
ram:800075c5    00              ??          00h                                     
ram:800075c6    e0              ??          E0h                                     
ram:800075c7    e1              ??          E1h                                     
ram:800075c8    1e              ??          1Eh                                     
ram:800075c9    ff              ??          FFh                                     
ram:800075ca    2f              ??          2Fh    /                                
ram:800075cb    e1              ??          E1h                                     
                            ;************************************************************************************************
                            ;*                                           FUNCTION                                           *
                            ;************************************************************************************************
                            ;undefined FUN_800075cc()
                                                          ;XREF[1,0]:   80001128
ram:800075cc    021110e2        ands        r1,r0,#0x80000000                       
ram:800075d0    00006042        rsbmi       r0,r0,#0x0                              
ram:800075d4    103f6fe1        clz         r3,r0                                   
ram:800075d8    1023b0e1        movs        r2,r0, lsl r3                           
ram:800075dc    9d3063e2        rsb         r3,r3,#0x9d                             
ram:800075e0    1eff2f01        bxeq        lr                                      
ram:800075e4    831b91e1        orrs        r1,r1,r3, lsl #0x17                     
ram:800075e8    823cb0e1        movs        r3,r2, lsl #0x19                        
ram:800075ec    2204a1e0        adc         r0,r1,r2, lsr #0x8                      
ram:800075f0    1eff2f31        bxcc        lr                                      
ram:800075f4    0100c003        biceq       r0,r0,#0x1                              
ram:800075f8    1eff2fe1        bx          lr                                      
                            ;************************************************************************************************
                            ;*                                           FUNCTION                                           *
                            ;************************************************************************************************
                            ;undefined FUN_800075fc()
                                                          ;XREF[1,0]:   80001134
ram:800075fc    ffc8a0e3        mov         r12,#0xff0000                           
ram:80007600    a0231ce0        ands        r2,r12,r0, lsr #0x7                     
ram:80007604    a1331c10        andnes      r3,r12,r1, lsr #0x7                     
ram:80007608    0c003211        teqne       r2,r12                                  
ram:8000760c    0c003311        teqne       r3,r12                                  
ram:80007610    2000000a        beq         LAB_80007698                            
ram:80007614    010030e1        teq         r0,r1                                   
ram:80007618    02c1a0e3        mov         r12,#0x80000000                         
ram:8000761c    012c8243        orrmi       r2,r2,#0x100                            
ram:80007620    00048ce1        orr         r0,r12,r0, lsl #0x8                     
ram:80007624    01148ce1        orr         r1,r12,r1, lsl #0x8                     
ram:80007628    032082e0        add         r2,r2,r3                                
ram:8000762c    901183e0        umull       r1,r3,r0,r1                             
ram:80007630    022542e2        sub         r2,r2,#0x800000                         
ram:80007634    000051e3        cmp         r1,#0x0                                 
ram:80007638    01308313        orrne       r3,r3,#0x1                              
ram:8000763c    8330b0e1        movs        r3,r3, lsl #0x1                         
ram:80007640    4228a2e0        adc         r2,r2,r2, asr #0x10                     
ram:80007644    6330a021        movcs       r3,r3, rrx                              
ram:80007648    23c4b0e1        movs        r12,r3, lsr #0x8                        
ram:8000764c    7f001323        tstcs       r3,#0x7f                                
ram:80007650    820bace0        adc         r0,r12,r2, lsl #0x17                    
ram:80007654    3f075213        cmpne       r2,#0xfc0000                            
ram:80007658    1eff2f31        bxcc        lr                                      
ram:8000765c    0100c003        biceq       r0,r0,#0x1                              
ram:80007660    3f0752e3        cmp         r2,#0xfc0000                            
ram:80007664    1eff2f31        bxcc        lr                                      
ram:80007668    0500005a        bpl         LAB_80007684                            
ram:8000766c    ff2022e2        eor         r2,r2,#0xff                             
ram:80007670    010872e3        cmn         r2,#0x10000                             
ram:80007674    1eff2fc1        bxgt        lr                                      
ram:80007678    060280e2        add         r0,r0,#0x60000000                       
ram:8000767c    020100d2        andle       r0,r0,#0x80000000                       
ram:80007680    1eff2fe1        bx          lr                                      
                            LAB_80007684:                 ;XREF[1,0]:   80007668
ram:80007684    02c580e2        add         r12,r0,#0x800000                        
ram:80007688    8cc0b0e1        movs        r12,r12, lsl #0x1                       
ram:8000768c    1eff2f41        bxmi        lr                                      
ram:80007690    060250e2        subs        r0,r0,#0x60000000                       
ram:80007694    400000ea        b           LAB_8000779c                            
                            LAB_80007698:                 ;XREF[1,0]:   80007610
ram:80007698    010030e1        teq         r0,r1                                   
ram:8000769c    012c8243        orrmi       r2,r2,#0x100                            
ram:800076a0    0c0052e1        cmp         r2,r12                                  
ram:800076a4    a1330ce0        and         r3,r12,r1, lsr #0x7                     
ram:800076a8    0c005331        cmpcc       r3,r12                                  
ram:800076ac    0200002a        bcs         LAB_800076bc                            
ram:800076b0    010020e0        eor         r0,r0,r1                                
ram:800076b4    020100e2        and         r0,r0,#0x80000000                       
ram:800076b8    1eff2fe1        bx          lr                                      
                            LAB_800076bc:                 ;XREF[1,0]:   800076ac
ram:800076bc    10402de9        stmdb       sp!,{r4 lr}                             
ram:800076c0    0d0000eb        bl          FUN_800076fc                            ;undefined FUN_800076fc(undefined par...
ram:800076c4    8900013e        cdpcc       p0,0x0,cr0,cr1,cr9,0x4                  
ram:800076c8    030000ea        b           LAB_800076dc                            
ram:800076cc    04              ??          04h                                     
ram:800076cd    00              ??          00h                                     
ram:800076ce    00              ??          00h                                     
ram:800076cf    ea              ??          EAh                                     
ram:800076d0    81              ??          81h                                     
ram:800076d1    c0              ??          C0h                                     
ram:800076d2    b0              ??          B0h                                     
ram:800076d3    e1              ??          E1h                                     
ram:800076d4    2c              ??          2Ch    ,                                
ram:800076d5    cc              ??          CCh                                     
ram:800076d6    b0              ??          B0h                                     
ram:800076d7    e1              ??          E1h                                     
ram:800076d8    04              ??          04h                                     
ram:800076d9    00              ??          00h                                     
ram:800076da    00              ??          00h                                     
ram:800076db    0a              ??          0Ah                                     
                            LAB_800076dc:                 ;XREF[1,0]:   800076c8
ram:800076dc    010020e0        eor         r0,r0,r1                                
ram:800076e0    2d0000ea        b           LAB_8000779c                            
ram:800076e4    80              ??          80h                                     
ram:800076e5    c0              ??          C0h                                     
ram:800076e6    b0              ??          B0h                                     
ram:800076e7    e1              ??          E1h                                     
ram:800076e8    2c              ??          2Ch    ,                                
ram:800076e9    cc              ??          CCh                                     
ram:800076ea    b0              ??          B0h                                     
ram:800076eb    e1              ??          E1h                                     
ram:800076ec    fa              ??          FAh                                     
ram:800076ed    ff              ??          FFh                                     
ram:800076ee    ff              ??          FFh                                     
ram:800076ef    1a              ??          1Ah                                     
ram:800076f0    02              ??          02h                                     
ram:800076f1    01              ??          01h                                     
ram:800076f2    a0              ??          A0h                                     
ram:800076f3    e3              ??          E3h                                     
ram:800076f4    01              ??          01h                                     
ram:800076f5    05              ??          05h                                     
ram:800076f6    40              ??          40h    @                                
ram:800076f7    e2              ??          E2h                                     
ram:800076f8    1e              ??          1Eh                                     
ram:800076f9    ff              ??          FFh                                     
ram:800076fa    2f              ??          2Fh    /                                
ram:800076fb    e1              ??          E1h                                     
                            ;************************************************************************************************
                            ;*                                           FUNCTION                                           *
                            ;************************************************************************************************
                            ;undefined FUN_800076fc(undefined param_1, undefined param_2, undefined param_3, undefined param_4, undefined4 param_5)
          ;param_1       undefined           r0                      
          ;param_2       undefined           r1                      
          ;param_3       undefined           r2                      
          ;param_4       undefined           r3                      
          ;param_5       undefined4           0                      ;XREF[1,0]:   80007760
                                                          ;XREF[2,0]:   800075b4,800076c0
ram:800076fc    04409ee4        ldr         r4,[lr],#0x4                            
ram:80007700    040014e1        tst         r4,r4                                   
ram:80007704    0200004a        bmi         LAB_80007714                            
ram:80007708    8120a0e1        mov         param_3,param_2, lsl #0x1               
ram:8000770c    ff0452e3        cmp         param_3,#0xff000000                     
ram:80007710    0900008a        bhi         LAB_8000773c                            
                            LAB_80007714:                 ;XREF[1,0]:   80007704
ram:80007714    8030a0e1        mov         param_4,param_1, lsl #0x1               
ram:80007718    ff0453e3        cmp         param_4,#0xff000000                     
ram:8000771c    0600008a        bhi         LAB_8000773c                            
ram:80007720    0700001a        bne         LAB_80007744                            
ram:80007724    a0cfa0e1        mov         r12,param_1, lsr #0x1f                  
ram:80007728    ff0452e3        cmp         param_3,#0xff000000                     
ram:8000772c    8cc08ce0        add         r12,r12,r12, lsl #0x1                   
ram:80007730    02c08ce2        add         r12,r12,#0x2                            
ram:80007734    a1cfac00        adceq       r12,r12,param_2, lsr #0x1f              
ram:80007738    020000ea        b           LAB_80007748                            
                            LAB_8000773c:                 ;XREF[2,0]:   80007710,8000771c
ram:8000773c    08c0a0e3        mov         r12,#0x8                                
ram:80007740    000000ea        b           LAB_80007748                            
                            LAB_80007744:                 ;XREF[1,0]:   80007720
ram:80007744    a1cfa0e1        mov         r12,param_2, lsr #0x1f                  
                            LAB_80007748:                 ;XREF[2,0]:   80007738,80007740
ram:80007748    8c308ce0        add         param_4,r12,r12, lsl #0x1               
ram:8000774c    3443a0e1        mov         r4,r4, lsr param_4                      
ram:80007750    074004e2        and         r4,r4,#0x7                              
ram:80007754    04c054e2        subs        r12,r4,#0x4                             
ram:80007758    0200002a        bcs         switchD_80007768::switchD               
                            caseD_4:                      ;XREF[1,0]:   80007768
ram:8000775c    04c18ee0        add         r12,lr,r4, lsl #0x2                     
ram:80007760    1040bde8        ldmia       sp!,{r4 lr}=>param_5                    
ram:80007764    1cff2fe1        bx          r12                                     
                            switchD:                      ;XREF[1,0]:   80007758
                                                          ; FWD[5,0]:   8000775c,80007770,80007774,80007778
                                                          ;             8000777c
ram:80007768    0cf18fe0        add         pc,pc,r12, lsl #0x2                     
ram:8000776c    00              ??          00h                                     
ram:8000776d    00              ??          00h                                     
ram:8000776e    a0              ??          A0h                                     
ram:8000776f    e1              ??          E1h                                     
                            caseD_4:                      ;XREF[1,0]:   80007768
ram:80007770    040000ea        b           LAB_80007788                            
                            caseD_5:                      ;XREF[1,0]:   80007768
ram:80007774    040000ea        b           LAB_8000778c                            
                            caseD_6:                      ;XREF[1,0]:   80007768
ram:80007778    ffffffea        b           switchD_80007768::caseD_7               
                            caseD_7:                      ;XREF[2,0]:   80007768,80007778
ram:8000777c    0201a0e3        mov         param_1,#0x80000000                     
ram:80007780    010540e2        sub         param_1,param_1,#0x400000               
ram:80007784    1080bde8        ldmia       sp!,{r4 pc}                             
                            LAB_80007788:                 ;XREF[1,0]:   80007770
ram:80007788    0100a0e1        mov         param_1,param_2                         
                            LAB_8000778c:                 ;XREF[1,0]:   80007774
ram:8000778c    8020b0e1        movs        param_3,param_1, lsl #0x1               
ram:80007790    01247212        rsbnes      param_3,param_3,#0x1000000              
ram:80007794    02010082        andhi       param_1,param_1,#0x80000000             
ram:80007798    1080bde8        ldmia       sp!,{r4 pc}                             
                            LAB_8000779c:                 ;XREF[2,0]:   80007694,800076e0
ram:8000779c    ff10b0e3        movs        r1,#0xff                                
ram:800077a0    a00b81e1        orr         r0,r1,r0, lsr #0x17                     
ram:800077a4    800bb0e1        movs        r0,r0, lsl #0x17                        
ram:800077a8    1eff2fe1        bx          lr                                      
                            s_ERROR:_Fail_to_access_inv...;XREF[6,0]:   800021f0,80002330,800023c8,80002504
                                                          ;             8000526c,8000528c
ram:800077ac    4552524f5...    ds          "ERROR: Fail to access invalid sector...
                            s_mmc_%u_set_[mod-clk_req_%...;XREF[2,0]:   80005b8c,80005c10
ram:800077f0    6d6d63202...    ds          "mmc %u set [mod-clk req %u]-[parent ...
ram:80007834    64780080        addr        DAT_80007864                            ;= 01h
ram:80007838    dc790080        addr        DAT_800079dc                            
ram:8000783c    10              ??          10h                                     
ram:8000783d    00              ??          00h                                     
ram:8000783e    00              ??          00h                                     
ram:8000783f    00              ??          00h                                     
ram:80007840    24010080        addr        LAB_80000124                            
ram:80007844    dc790080        addr        DAT_800079dc                            
ram:80007848    64780080        addr        DAT_80007864                            ;= 01h
ram:8000784c    78              ??          78h    x                                
ram:8000784d    01              ??          01h                                     
ram:8000784e    00              ??          00h                                     
ram:8000784f    00              ??          00h                                     
ram:80007850    c8000080        addr        LAB_800000c8                            
ram:80007854    74780080        addr        DAT_80007874                            
ram:80007858    dc790080        addr        DAT_800079dc                            
ram:8000785c    78              ??          78h    x                                
ram:8000785d    b6              ??          B6h                                     
ram:8000785e    44              ??          44h    D                                
ram:8000785f    00              ??          00h                                     
ram:80007860    4c              ??          4Ch    L                                ;?  ->  8000014c
ram:80007861    01              ??          01h                                     
ram:80007862    00              ??          00h                                     
ram:80007863    80              ??          80h                                     
                            DAT_80007864:                 ;XREF[6,0]:   8000264c,80002774,80002a8c,80002c38
                                                          ;             80007834,80007848
ram:80007864    01              undefined1  01h                                     
ram:80007865    14              ??          14h                                     
ram:80007866    13              ??          13h                                     
ram:80007867    9c              ??          9Ch                                     
                            DAT_80007868:                 ;XREF[3,0]:   8000521c,80005224,80005244
ram:80007868    110a            undefined2  0A11h                                   
ram:8000786a    9a              ??          9Ah                                     
ram:8000786b    80              ??          80h                                     
                            DAT_8000786c:                 ;XREF[6,0]:   800041b8,800041c0,800041dc,80004204
                                                          ;             80004c8c,800050cc
ram:8000786c    0409a6a4        undefined4  A4A60904h                               
                            DAT_80007870:                 ;XREF[3,0]:   80001950,80001958,800019fc
ram:80007870    01              undefined1  01h                                     
ram:80007871    1c              ??          1Ch                                     
ram:80007872    00              ??          00h                                     
ram:80007873    00              ??          00h                                     
                            DAT_80007874:                 ;XREF[5,0]:   80001940,8000199c,800019a0,80001a04
                                                          ;             80007854
ram:80007874    00              ??          00h                                     
ram:80007875    00              ??          00h                                     
ram:80007876    00              ??          00h                                     
ram:80007877    00              ??          00h                                     
                            DAT_80007878:                 ;XREF[1,0]:   8000192c
ram:80007878    00000000        undefined4  00000000h                               
ram:8000787c    00              ??          00h                                     
ram:8000787d    00              ??          00h                                     
ram:8000787e    00              ??          00h                                     
ram:8000787f    00              ??          00h                                     
ram:80007880    00              ??          00h                                     
ram:80007881    00              ??          00h                                     
ram:80007882    00              ??          00h                                     
ram:80007883    00              ??          00h                                     
ram:80007884    00              ??          00h                                     
ram:80007885    00              ??          00h                                     
ram:80007886    00              ??          00h                                     
ram:80007887    00              ??          00h                                     
ram:80007888    00              ??          00h                                     
ram:80007889    00              ??          00h                                     
ram:8000788a    00              ??          00h                                     
ram:8000788b    00              ??          00h                                     
ram:8000788c    00              ??          00h                                     
ram:8000788d    00              ??          00h                                     
ram:8000788e    00              ??          00h                                     
ram:8000788f    00              ??          00h                                     
ram:80007890    00              ??          00h                                     
ram:80007891    00              ??          00h                                     
ram:80007892    00              ??          00h                                     
ram:80007893    00              ??          00h                                     
ram:80007894    00              ??          00h                                     
ram:80007895    00              ??          00h                                     
ram:80007896    00              ??          00h                                     
ram:80007897    00              ??          00h                                     
ram:80007898    00              ??          00h                                     
ram:80007899    00              ??          00h                                     
ram:8000789a    00              ??          00h                                     
ram:8000789b    00              ??          00h                                     
ram:8000789c    00              ??          00h                                     
ram:8000789d    00              ??          00h                                     
ram:8000789e    00              ??          00h                                     
ram:8000789f    00              ??          00h                                     
ram:800078a0    00              ??          00h                                     
ram:800078a1    00              ??          00h                                     
ram:800078a2    00              ??          00h                                     
ram:800078a3    00              ??          00h                                     
ram:800078a4    00              ??          00h                                     
ram:800078a5    00              ??          00h                                     
ram:800078a6    00              ??          00h                                     
ram:800078a7    00              ??          00h                                     
ram:800078a8    00              ??          00h                                     
ram:800078a9    00              ??          00h                                     
ram:800078aa    00              ??          00h                                     
ram:800078ab    00              ??          00h                                     
ram:800078ac    00              ??          00h                                     
ram:800078ad    00              ??          00h                                     
ram:800078ae    00              ??          00h                                     
ram:800078af    00              ??          00h                                     
ram:800078b0    00              ??          00h                                     
ram:800078b1    00              ??          00h                                     
ram:800078b2    00              ??          00h                                     
ram:800078b3    00              ??          00h                                     
ram:800078b4    00              ??          00h                                     
ram:800078b5    00              ??          00h                                     
ram:800078b6    00              ??          00h                                     
ram:800078b7    00              ??          00h                                     
ram:800078b8    00              ??          00h                                     
ram:800078b9    00              ??          00h                                     
ram:800078ba    00              ??          00h                                     
ram:800078bb    00              ??          00h                                     
ram:800078bc    00              ??          00h                                     
ram:800078bd    00              ??          00h                                     
ram:800078be    00              ??          00h                                     
ram:800078bf    00              ??          00h                                     
ram:800078c0    00              ??          00h                                     
ram:800078c1    00              ??          00h                                     
ram:800078c2    00              ??          00h                                     
ram:800078c3    00              ??          00h                                     
ram:800078c4    00              ??          00h                                     
ram:800078c5    00              ??          00h                                     
ram:800078c6    00              ??          00h                                     
ram:800078c7    00              ??          00h                                     
ram:800078c8    00              ??          00h                                     
ram:800078c9    00              ??          00h                                     
ram:800078ca    00              ??          00h                                     
ram:800078cb    00              ??          00h                                     
ram:800078cc    00              ??          00h                                     
ram:800078cd    00              ??          00h                                     
ram:800078ce    00              ??          00h                                     
ram:800078cf    00              ??          00h                                     
ram:800078d0    00              ??          00h                                     
ram:800078d1    00              ??          00h                                     
ram:800078d2    00              ??          00h                                     
ram:800078d3    00              ??          00h                                     
ram:800078d4    00              ??          00h                                     
ram:800078d5    00              ??          00h                                     
ram:800078d6    00              ??          00h                                     
ram:800078d7    00              ??          00h                                     
ram:800078d8    00              ??          00h                                     
ram:800078d9    00              ??          00h                                     
ram:800078da    00              ??          00h                                     
ram:800078db    00              ??          00h                                     
ram:800078dc    00              ??          00h                                     
ram:800078dd    00              ??          00h                                     
ram:800078de    00              ??          00h                                     
ram:800078df    00              ??          00h                                     
ram:800078e0    00              ??          00h                                     
ram:800078e1    00              ??          00h                                     
ram:800078e2    00              ??          00h                                     
ram:800078e3    00              ??          00h                                     
ram:800078e4    00              ??          00h                                     
ram:800078e5    00              ??          00h                                     
ram:800078e6    00              ??          00h                                     
ram:800078e7    00              ??          00h                                     
ram:800078e8    00              ??          00h                                     
ram:800078e9    00              ??          00h                                     
ram:800078ea    00              ??          00h                                     
ram:800078eb    00              ??          00h                                     
ram:800078ec    00              ??          00h                                     
ram:800078ed    00              ??          00h                                     
ram:800078ee    00              ??          00h                                     
ram:800078ef    00              ??          00h                                     
ram:800078f0    00              ??          00h                                     
ram:800078f1    00              ??          00h                                     
ram:800078f2    00              ??          00h                                     
ram:800078f3    00              ??          00h                                     
ram:800078f4    00              ??          00h                                     
ram:800078f5    00              ??          00h                                     
ram:800078f6    00              ??          00h                                     
ram:800078f7    00              ??          00h                                     
ram:800078f8    00              ??          00h                                     
ram:800078f9    00              ??          00h                                     
ram:800078fa    00              ??          00h                                     
ram:800078fb    00              ??          00h                                     
ram:800078fc    00              ??          00h                                     
ram:800078fd    00              ??          00h                                     
ram:800078fe    00              ??          00h                                     
ram:800078ff    00              ??          00h                                     
ram:80007900    00              ??          00h                                     
ram:80007901    00              ??          00h                                     
ram:80007902    00              ??          00h                                     
ram:80007903    00              ??          00h                                     
ram:80007904    00              ??          00h                                     
ram:80007905    00              ??          00h                                     
ram:80007906    00              ??          00h                                     
ram:80007907    00              ??          00h                                     
ram:80007908    00              ??          00h                                     
ram:80007909    00              ??          00h                                     
ram:8000790a    00              ??          00h                                     
ram:8000790b    00              ??          00h                                     
ram:8000790c    00              ??          00h                                     
ram:8000790d    00              ??          00h                                     
ram:8000790e    00              ??          00h                                     
ram:8000790f    00              ??          00h                                     
ram:80007910    00              ??          00h                                     
ram:80007911    00              ??          00h                                     
ram:80007912    00              ??          00h                                     
ram:80007913    00              ??          00h                                     
ram:80007914    00              ??          00h                                     
ram:80007915    00              ??          00h                                     
ram:80007916    00              ??          00h                                     
ram:80007917    00              ??          00h                                     
                            DAT_80007918:                 ;XREF[3,0]:   8000198c,80001990,80001a00
ram:80007918    00              ??          00h                                     
ram:80007919    00              ??          00h                                     
ram:8000791a    00              ??          00h                                     
ram:8000791b    00              ??          00h                                     
ram:8000791c    00              ??          00h                                     
ram:8000791d    00              ??          00h                                     
ram:8000791e    00              ??          00h                                     
ram:8000791f    00              ??          00h                                     
ram:80007920    00              ??          00h                                     
ram:80007921    00              ??          00h                                     
ram:80007922    00              ??          00h                                     
ram:80007923    00              ??          00h                                     
ram:80007924    00              ??          00h                                     
ram:80007925    00              ??          00h                                     
ram:80007926    00              ??          00h                                     
ram:80007927    00              ??          00h                                     
ram:80007928    00              ??          00h                                     
ram:80007929    00              ??          00h                                     
ram:8000792a    00              ??          00h                                     
ram:8000792b    00              ??          00h                                     
ram:8000792c    00              ??          00h                                     
ram:8000792d    00              ??          00h                                     
ram:8000792e    00              ??          00h                                     
ram:8000792f    00              ??          00h                                     
ram:80007930    00              ??          00h                                     
ram:80007931    00              ??          00h                                     
ram:80007932    00              ??          00h                                     
ram:80007933    00              ??          00h                                     
ram:80007934    00              ??          00h                                     
ram:80007935    00              ??          00h                                     
ram:80007936    00              ??          00h                                     
ram:80007937    00              ??          00h                                     
ram:80007938    00              ??          00h                                     
ram:80007939    00              ??          00h                                     
ram:8000793a    00              ??          00h                                     
ram:8000793b    00              ??          00h                                     
ram:8000793c    00              ??          00h                                     
ram:8000793d    00              ??          00h                                     
ram:8000793e    00              ??          00h                                     
ram:8000793f    00              ??          00h                                     
ram:80007940    00              ??          00h                                     
ram:80007941    00              ??          00h                                     
ram:80007942    00              ??          00h                                     
ram:80007943    00              ??          00h                                     
ram:80007944    00              ??          00h                                     
ram:80007945    00              ??          00h                                     
ram:80007946    00              ??          00h                                     
ram:80007947    00              ??          00h                                     
ram:80007948    00              ??          00h                                     
ram:80007949    00              ??          00h                                     
ram:8000794a    00              ??          00h                                     
ram:8000794b    00              ??          00h                                     
ram:8000794c    00              ??          00h                                     
ram:8000794d    00              ??          00h                                     
ram:8000794e    00              ??          00h                                     
ram:8000794f    00              ??          00h                                     
ram:80007950    00              ??          00h                                     
ram:80007951    00              ??          00h                                     
ram:80007952    00              ??          00h                                     
ram:80007953    00              ??          00h                                     
ram:80007954    00              ??          00h                                     
ram:80007955    00              ??          00h                                     
ram:80007956    00              ??          00h                                     
ram:80007957    00              ??          00h                                     
ram:80007958    00              ??          00h                                     
ram:80007959    00              ??          00h                                     
ram:8000795a    00              ??          00h                                     
ram:8000795b    00              ??          00h                                     
ram:8000795c    00              ??          00h                                     
ram:8000795d    00              ??          00h                                     
ram:8000795e    00              ??          00h                                     
ram:8000795f    00              ??          00h                                     
ram:80007960    00              ??          00h                                     
ram:80007961    00              ??          00h                                     
ram:80007962    00              ??          00h                                     
ram:80007963    00              ??          00h                                     
ram:80007964    00              ??          00h                                     
ram:80007965    00              ??          00h                                     
ram:80007966    00              ??          00h                                     
ram:80007967    00              ??          00h                                     
ram:80007968    00              ??          00h                                     
ram:80007969    00              ??          00h                                     
ram:8000796a    00              ??          00h                                     
ram:8000796b    00              ??          00h                                     
ram:8000796c    00              ??          00h                                     
ram:8000796d    00              ??          00h                                     
ram:8000796e    00              ??          00h                                     
ram:8000796f    00              ??          00h                                     
ram:80007970    00              ??          00h                                     
ram:80007971    00              ??          00h                                     
ram:80007972    00              ??          00h                                     
ram:80007973    00              ??          00h                                     
ram:80007974    00              ??          00h                                     
ram:80007975    00              ??          00h                                     
ram:80007976    00              ??          00h                                     
ram:80007977    00              ??          00h                                     
ram:80007978    00              ??          00h                                     
ram:80007979    00              ??          00h                                     
ram:8000797a    00              ??          00h                                     
ram:8000797b    00              ??          00h                                     
ram:8000797c    00              ??          00h                                     
ram:8000797d    00              ??          00h                                     
ram:8000797e    00              ??          00h                                     
ram:8000797f    00              ??          00h                                     
ram:80007980    00              ??          00h                                     
ram:80007981    00              ??          00h                                     
ram:80007982    00              ??          00h                                     
ram:80007983    00              ??          00h                                     
ram:80007984    00              ??          00h                                     
ram:80007985    00              ??          00h                                     
ram:80007986    00              ??          00h                                     
ram:80007987    00              ??          00h                                     
ram:80007988    00              ??          00h                                     
ram:80007989    00              ??          00h                                     
ram:8000798a    00              ??          00h                                     
ram:8000798b    00              ??          00h                                     
ram:8000798c    00              ??          00h                                     
ram:8000798d    00              ??          00h                                     
ram:8000798e    00              ??          00h                                     
ram:8000798f    00              ??          00h                                     
ram:80007990    00              ??          00h                                     
ram:80007991    00              ??          00h                                     
ram:80007992    00              ??          00h                                     
ram:80007993    00              ??          00h                                     
ram:80007994    00              ??          00h                                     
ram:80007995    00              ??          00h                                     
ram:80007996    00              ??          00h                                     
ram:80007997    00              ??          00h                                     
ram:80007998    00              ??          00h                                     
ram:80007999    00              ??          00h                                     
ram:8000799a    00              ??          00h                                     
ram:8000799b    00              ??          00h                                     
ram:8000799c    00              ??          00h                                     
ram:8000799d    00              ??          00h                                     
ram:8000799e    00              ??          00h                                     
ram:8000799f    00              ??          00h                                     
ram:800079a0    00              ??          00h                                     
ram:800079a1    00              ??          00h                                     
ram:800079a2    00              ??          00h                                     
ram:800079a3    00              ??          00h                                     
ram:800079a4    00              ??          00h                                     
ram:800079a5    00              ??          00h                                     
ram:800079a6    00              ??          00h                                     
ram:800079a7    00              ??          00h                                     
ram:800079a8    00              ??          00h                                     
ram:800079a9    00              ??          00h                                     
ram:800079aa    00              ??          00h                                     
ram:800079ab    00              ??          00h                                     
ram:800079ac    00              ??          00h                                     
ram:800079ad    00              ??          00h                                     
ram:800079ae    00              ??          00h                                     
ram:800079af    00              ??          00h                                     
ram:800079b0    00              ??          00h                                     
ram:800079b1    00              ??          00h                                     
ram:800079b2    00              ??          00h                                     
ram:800079b3    00              ??          00h                                     
ram:800079b4    00              ??          00h                                     
ram:800079b5    00              ??          00h                                     
ram:800079b6    00              ??          00h                                     
ram:800079b7    00              ??          00h                                     
ram:800079b8    00              ??          00h                                     
ram:800079b9    00              ??          00h                                     
ram:800079ba    00              ??          00h                                     
ram:800079bb    00              ??          00h                                     
                            DAT_800079bc:                 ;XREF[1,0]:   80001a9c
ram:800079bc    00              ??          00h                                     
ram:800079bd    00              ??          00h                                     
ram:800079be    00              ??          00h                                     
ram:800079bf    00              ??          00h                                     
ram:800079c0    00              ??          00h                                     
ram:800079c1    00              ??          00h                                     
ram:800079c2    00              ??          00h                                     
ram:800079c3    00              ??          00h                                     
                            DAT_800079c4:                 ;XREF[7,0]:   80001b3c,80001b44,800033e4,800033f0
                                                          ;             800033f8,80003408,80003414
ram:800079c4    00000000        undefined4  00000000h                               
                            DAT_800079c8:                 ;XREF[16,0]:  800016f8,80001840,80001df0,80001ec8
                                                          ;             80001ed4,80001f2c,80002008,80002018
                                                          ;             800020bc,800020e0,8000225c,8000232c
                                                          ;             80002430,80002500,80003184,80005288
ram:800079c8    00000000        undefined4  00000000h                               
                            DAT_800079cc:                 ;XREF[6,0]:   800016a8,80001774,80002188,80002260
                                                          ;             80002434,80002e78
ram:800079cc    00000000        undefined4  00000000h                               
ram:800079d0    00              ??          00h                                     
ram:800079d1    00              ??          00h                                     
ram:800079d2    00              ??          00h                                     
ram:800079d3    00              ??          00h                                     
                            DAT_800079d4:                 ;XREF[7,0]:   80001764,800021d4,80002200,800023ac
                                                          ;             800023d8,80005254,80005274
ram:800079d4    00000000        undefined4  00000000h                               
                            DAT_800079d8:                 ;XREF[5,0]:   80000848,80000850,8000085e,80000884
                                                          ;             80000888
ram:800079d8    00000000        undefined4  00000000h                               
                            DAT_800079dc:                 ;XREF[18,0]:  800025e0,80002648,800026a8,80002778
                                                          ;             8000278c,8000279c,800027bc,800028e0
                                                          ;             800028f4,80002a6c,80002a7c,80002aa4
                                                          ;             80002b48,80002b88,80002c34,80007838
                                                          ;             80007844,80007858
ram:800079dc    00              undefined1  00h                                     
                            DAT_800079dd:                 ;XREF[60,0]:  800025f0,80002650,80002660,8000266c
                                                          ;             80002678,80002688,800026ac,800027cc
                                                          ;             800027d0,800027e0,800027ec,800027f0
                                                          ;             80002800,8000280c,80002810,80002820
                                                          ;             8000282c,80002830,80002840,8000284c
                                                          ;             80002850,80002860,8000286c,80002870
                                                          ;             80002880,8000288c,80002890,800028a0
                                                          ;             800028ac,800028b0,800028c0,80002920
                                                          ;             80002924,80002934,80002940,80002944
                                                          ;             80002954,80002960,80002964,80002974
                                                          ;             80002980,80002984,80002994,800029a0
                                                          ;             800029a4,800029b4,800029c0,800029c4
                                                          ;             800029d4,800029e0,800029e4,800029f4
                                                          ;             80002a00,80002a04,80002a14,80002aa8
                                                          ;             80002b38,80002b40,80002b4c,80002b9c
ram:800079dd    00              undefined1  00h                                     
                            DAT_800079de:                 ;XREF[4,0]:   80002600,800026c4,80002b74,80002bb0
ram:800079de    00              undefined1  00h                                     
